ARM GAS  /var/folders/nl/kwfz41d55ync1k9vlz8wmkc80000gn/T//ccq26bS7.s 			page 1


   1              		.cpu cortex-m0plus
   2              		.arch armv6s-m
   3              		.fpu softvfp
   4              		.eabi_attribute 20, 1
   5              		.eabi_attribute 21, 1
   6              		.eabi_attribute 23, 3
   7              		.eabi_attribute 24, 1
   8              		.eabi_attribute 25, 1
   9              		.eabi_attribute 26, 1
  10              		.eabi_attribute 30, 1
  11              		.eabi_attribute 34, 0
  12              		.eabi_attribute 18, 4
  13              		.file	"stm32c0xx_hal_exti.c"
  14              		.text
  15              	.Ltext0:
  16              		.cfi_sections	.debug_frame
  17              		.section	.text.HAL_EXTI_SetConfigLine,"ax",%progbits
  18              		.align	1
  19              		.global	HAL_EXTI_SetConfigLine
  20              		.syntax unified
  21              		.code	16
  22              		.thumb_func
  24              	HAL_EXTI_SetConfigLine:
  25              	.LVL0:
  26              	.LFB214:
  27              		.file 1 "Drivers/STM32C0xx_HAL_Driver/Src/stm32c0xx_hal_exti.c"
   1:Drivers/STM32C0xx_HAL_Driver/Src/stm32c0xx_hal_exti.c **** /**
   2:Drivers/STM32C0xx_HAL_Driver/Src/stm32c0xx_hal_exti.c ****   ******************************************************************************
   3:Drivers/STM32C0xx_HAL_Driver/Src/stm32c0xx_hal_exti.c ****   * @file    stm32c0xx_hal_exti.c
   4:Drivers/STM32C0xx_HAL_Driver/Src/stm32c0xx_hal_exti.c ****   * @author  MCD Application Team
   5:Drivers/STM32C0xx_HAL_Driver/Src/stm32c0xx_hal_exti.c ****   * @brief   EXTI HAL module driver.
   6:Drivers/STM32C0xx_HAL_Driver/Src/stm32c0xx_hal_exti.c ****   *          This file provides firmware functions to manage the following
   7:Drivers/STM32C0xx_HAL_Driver/Src/stm32c0xx_hal_exti.c ****   *          functionalities of the General Purpose Input/Output (EXTI) peripheral:
   8:Drivers/STM32C0xx_HAL_Driver/Src/stm32c0xx_hal_exti.c ****   *           + Initialization and de-initialization functions
   9:Drivers/STM32C0xx_HAL_Driver/Src/stm32c0xx_hal_exti.c ****   *           + IO operation functions
  10:Drivers/STM32C0xx_HAL_Driver/Src/stm32c0xx_hal_exti.c ****   *
  11:Drivers/STM32C0xx_HAL_Driver/Src/stm32c0xx_hal_exti.c ****   ******************************************************************************
  12:Drivers/STM32C0xx_HAL_Driver/Src/stm32c0xx_hal_exti.c ****   * @attention
  13:Drivers/STM32C0xx_HAL_Driver/Src/stm32c0xx_hal_exti.c ****   *
  14:Drivers/STM32C0xx_HAL_Driver/Src/stm32c0xx_hal_exti.c ****   * Copyright (c) 2022 STMicroelectronics.
  15:Drivers/STM32C0xx_HAL_Driver/Src/stm32c0xx_hal_exti.c ****   * All rights reserved.
  16:Drivers/STM32C0xx_HAL_Driver/Src/stm32c0xx_hal_exti.c ****   *
  17:Drivers/STM32C0xx_HAL_Driver/Src/stm32c0xx_hal_exti.c ****   * This software is licensed under terms that can be found in the LICENSE file
  18:Drivers/STM32C0xx_HAL_Driver/Src/stm32c0xx_hal_exti.c ****   * in the root directory of this software component.
  19:Drivers/STM32C0xx_HAL_Driver/Src/stm32c0xx_hal_exti.c ****   * If no LICENSE file comes with this software, it is provided AS-IS.
  20:Drivers/STM32C0xx_HAL_Driver/Src/stm32c0xx_hal_exti.c ****   *
  21:Drivers/STM32C0xx_HAL_Driver/Src/stm32c0xx_hal_exti.c ****   ******************************************************************************
  22:Drivers/STM32C0xx_HAL_Driver/Src/stm32c0xx_hal_exti.c ****   @verbatim
  23:Drivers/STM32C0xx_HAL_Driver/Src/stm32c0xx_hal_exti.c ****   ==============================================================================
  24:Drivers/STM32C0xx_HAL_Driver/Src/stm32c0xx_hal_exti.c ****                     ##### EXTI Peripheral features #####
  25:Drivers/STM32C0xx_HAL_Driver/Src/stm32c0xx_hal_exti.c ****   ==============================================================================
  26:Drivers/STM32C0xx_HAL_Driver/Src/stm32c0xx_hal_exti.c ****   [..]
  27:Drivers/STM32C0xx_HAL_Driver/Src/stm32c0xx_hal_exti.c ****     (+) Each Exti line can be configured within this driver.
  28:Drivers/STM32C0xx_HAL_Driver/Src/stm32c0xx_hal_exti.c **** 
  29:Drivers/STM32C0xx_HAL_Driver/Src/stm32c0xx_hal_exti.c ****     (+) Exti line can be configured in 3 different modes
  30:Drivers/STM32C0xx_HAL_Driver/Src/stm32c0xx_hal_exti.c ****         (++) Interrupt
  31:Drivers/STM32C0xx_HAL_Driver/Src/stm32c0xx_hal_exti.c ****         (++) Event
ARM GAS  /var/folders/nl/kwfz41d55ync1k9vlz8wmkc80000gn/T//ccq26bS7.s 			page 2


  32:Drivers/STM32C0xx_HAL_Driver/Src/stm32c0xx_hal_exti.c ****         (++) Both of them
  33:Drivers/STM32C0xx_HAL_Driver/Src/stm32c0xx_hal_exti.c **** 
  34:Drivers/STM32C0xx_HAL_Driver/Src/stm32c0xx_hal_exti.c ****     (+) Configurable Exti lines can be configured with 3 different triggers
  35:Drivers/STM32C0xx_HAL_Driver/Src/stm32c0xx_hal_exti.c ****         (++) Rising
  36:Drivers/STM32C0xx_HAL_Driver/Src/stm32c0xx_hal_exti.c ****         (++) Falling
  37:Drivers/STM32C0xx_HAL_Driver/Src/stm32c0xx_hal_exti.c ****         (++) Both of them
  38:Drivers/STM32C0xx_HAL_Driver/Src/stm32c0xx_hal_exti.c **** 
  39:Drivers/STM32C0xx_HAL_Driver/Src/stm32c0xx_hal_exti.c ****     (+) When set in interrupt mode, configurable Exti lines have two diffenrents
  40:Drivers/STM32C0xx_HAL_Driver/Src/stm32c0xx_hal_exti.c ****         interrupt pending registers which allow to distinguish which transition
  41:Drivers/STM32C0xx_HAL_Driver/Src/stm32c0xx_hal_exti.c ****         occurs:
  42:Drivers/STM32C0xx_HAL_Driver/Src/stm32c0xx_hal_exti.c ****         (++) Rising edge pending interrupt
  43:Drivers/STM32C0xx_HAL_Driver/Src/stm32c0xx_hal_exti.c ****         (++) Falling
  44:Drivers/STM32C0xx_HAL_Driver/Src/stm32c0xx_hal_exti.c **** 
  45:Drivers/STM32C0xx_HAL_Driver/Src/stm32c0xx_hal_exti.c ****     (+) Exti lines 0 to 15 are linked to gpio pin number 0 to 15. Gpio port can
  46:Drivers/STM32C0xx_HAL_Driver/Src/stm32c0xx_hal_exti.c ****         be selected through multiplexer.
  47:Drivers/STM32C0xx_HAL_Driver/Src/stm32c0xx_hal_exti.c **** 
  48:Drivers/STM32C0xx_HAL_Driver/Src/stm32c0xx_hal_exti.c ****                      ##### How to use this driver #####
  49:Drivers/STM32C0xx_HAL_Driver/Src/stm32c0xx_hal_exti.c ****   ==============================================================================
  50:Drivers/STM32C0xx_HAL_Driver/Src/stm32c0xx_hal_exti.c ****   [..]
  51:Drivers/STM32C0xx_HAL_Driver/Src/stm32c0xx_hal_exti.c **** 
  52:Drivers/STM32C0xx_HAL_Driver/Src/stm32c0xx_hal_exti.c ****     (#) Configure the EXTI line using HAL_EXTI_SetConfigLine().
  53:Drivers/STM32C0xx_HAL_Driver/Src/stm32c0xx_hal_exti.c ****         (++) Choose the interrupt line number by setting "Line" member from
  54:Drivers/STM32C0xx_HAL_Driver/Src/stm32c0xx_hal_exti.c ****              EXTI_ConfigTypeDef structure.
  55:Drivers/STM32C0xx_HAL_Driver/Src/stm32c0xx_hal_exti.c ****         (++) Configure the interrupt and/or event mode using "Mode" member from
  56:Drivers/STM32C0xx_HAL_Driver/Src/stm32c0xx_hal_exti.c ****              EXTI_ConfigTypeDef structure.
  57:Drivers/STM32C0xx_HAL_Driver/Src/stm32c0xx_hal_exti.c ****         (++) For configurable lines, configure rising and/or falling trigger
  58:Drivers/STM32C0xx_HAL_Driver/Src/stm32c0xx_hal_exti.c ****              "Trigger" member from EXTI_ConfigTypeDef structure.
  59:Drivers/STM32C0xx_HAL_Driver/Src/stm32c0xx_hal_exti.c ****         (++) For Exti lines linked to gpio, choose gpio port using "GPIOSel"
  60:Drivers/STM32C0xx_HAL_Driver/Src/stm32c0xx_hal_exti.c ****              member from GPIO_InitTypeDef structure.
  61:Drivers/STM32C0xx_HAL_Driver/Src/stm32c0xx_hal_exti.c **** 
  62:Drivers/STM32C0xx_HAL_Driver/Src/stm32c0xx_hal_exti.c ****     (#) Get current Exti configuration of a dedicated line using
  63:Drivers/STM32C0xx_HAL_Driver/Src/stm32c0xx_hal_exti.c ****         HAL_EXTI_GetConfigLine().
  64:Drivers/STM32C0xx_HAL_Driver/Src/stm32c0xx_hal_exti.c ****         (++) Provide exiting handle as parameter.
  65:Drivers/STM32C0xx_HAL_Driver/Src/stm32c0xx_hal_exti.c ****         (++) Provide pointer on EXTI_ConfigTypeDef structure as second parameter.
  66:Drivers/STM32C0xx_HAL_Driver/Src/stm32c0xx_hal_exti.c **** 
  67:Drivers/STM32C0xx_HAL_Driver/Src/stm32c0xx_hal_exti.c ****     (#) Clear Exti configuration of a dedicated line using HAL_EXTI_GetConfigLine().
  68:Drivers/STM32C0xx_HAL_Driver/Src/stm32c0xx_hal_exti.c ****         (++) Provide exiting handle as parameter.
  69:Drivers/STM32C0xx_HAL_Driver/Src/stm32c0xx_hal_exti.c **** 
  70:Drivers/STM32C0xx_HAL_Driver/Src/stm32c0xx_hal_exti.c ****     (#) Register callback to treat Exti interrupts using HAL_EXTI_RegisterCallback().
  71:Drivers/STM32C0xx_HAL_Driver/Src/stm32c0xx_hal_exti.c ****         (++) Provide exiting handle as first parameter.
  72:Drivers/STM32C0xx_HAL_Driver/Src/stm32c0xx_hal_exti.c ****         (++) Provide which callback will be registered using one value from
  73:Drivers/STM32C0xx_HAL_Driver/Src/stm32c0xx_hal_exti.c ****              EXTI_CallbackIDTypeDef.
  74:Drivers/STM32C0xx_HAL_Driver/Src/stm32c0xx_hal_exti.c ****         (++) Provide callback function pointer.
  75:Drivers/STM32C0xx_HAL_Driver/Src/stm32c0xx_hal_exti.c **** 
  76:Drivers/STM32C0xx_HAL_Driver/Src/stm32c0xx_hal_exti.c ****     (#) Get interrupt pending bit using HAL_EXTI_GetPending().
  77:Drivers/STM32C0xx_HAL_Driver/Src/stm32c0xx_hal_exti.c **** 
  78:Drivers/STM32C0xx_HAL_Driver/Src/stm32c0xx_hal_exti.c ****     (#) Clear interrupt pending bit using HAL_EXTI_GetPending().
  79:Drivers/STM32C0xx_HAL_Driver/Src/stm32c0xx_hal_exti.c **** 
  80:Drivers/STM32C0xx_HAL_Driver/Src/stm32c0xx_hal_exti.c ****     (#) Generate software interrupt using HAL_EXTI_GenerateSWI().
  81:Drivers/STM32C0xx_HAL_Driver/Src/stm32c0xx_hal_exti.c **** 
  82:Drivers/STM32C0xx_HAL_Driver/Src/stm32c0xx_hal_exti.c ****   @endverbatim
  83:Drivers/STM32C0xx_HAL_Driver/Src/stm32c0xx_hal_exti.c ****   */
  84:Drivers/STM32C0xx_HAL_Driver/Src/stm32c0xx_hal_exti.c **** 
  85:Drivers/STM32C0xx_HAL_Driver/Src/stm32c0xx_hal_exti.c **** /* Includes ------------------------------------------------------------------*/
  86:Drivers/STM32C0xx_HAL_Driver/Src/stm32c0xx_hal_exti.c **** #include "stm32c0xx_hal.h"
  87:Drivers/STM32C0xx_HAL_Driver/Src/stm32c0xx_hal_exti.c **** 
  88:Drivers/STM32C0xx_HAL_Driver/Src/stm32c0xx_hal_exti.c **** /** @addtogroup STM32C0xx_HAL_Driver
ARM GAS  /var/folders/nl/kwfz41d55ync1k9vlz8wmkc80000gn/T//ccq26bS7.s 			page 3


  89:Drivers/STM32C0xx_HAL_Driver/Src/stm32c0xx_hal_exti.c ****   * @{
  90:Drivers/STM32C0xx_HAL_Driver/Src/stm32c0xx_hal_exti.c ****   */
  91:Drivers/STM32C0xx_HAL_Driver/Src/stm32c0xx_hal_exti.c **** 
  92:Drivers/STM32C0xx_HAL_Driver/Src/stm32c0xx_hal_exti.c **** /** @addtogroup EXTI
  93:Drivers/STM32C0xx_HAL_Driver/Src/stm32c0xx_hal_exti.c ****   * @{
  94:Drivers/STM32C0xx_HAL_Driver/Src/stm32c0xx_hal_exti.c ****   */
  95:Drivers/STM32C0xx_HAL_Driver/Src/stm32c0xx_hal_exti.c **** 
  96:Drivers/STM32C0xx_HAL_Driver/Src/stm32c0xx_hal_exti.c **** #ifdef HAL_EXTI_MODULE_ENABLED
  97:Drivers/STM32C0xx_HAL_Driver/Src/stm32c0xx_hal_exti.c **** 
  98:Drivers/STM32C0xx_HAL_Driver/Src/stm32c0xx_hal_exti.c **** /* Private typedef -----------------------------------------------------------*/
  99:Drivers/STM32C0xx_HAL_Driver/Src/stm32c0xx_hal_exti.c **** /* Private defines ------------------------------------------------------------*/
 100:Drivers/STM32C0xx_HAL_Driver/Src/stm32c0xx_hal_exti.c **** /** @defgroup EXTI_Private_Constants EXTI Private Constants
 101:Drivers/STM32C0xx_HAL_Driver/Src/stm32c0xx_hal_exti.c ****   * @{
 102:Drivers/STM32C0xx_HAL_Driver/Src/stm32c0xx_hal_exti.c ****   */
 103:Drivers/STM32C0xx_HAL_Driver/Src/stm32c0xx_hal_exti.c **** #define EXTI_MODE_OFFSET                 0x04u   /* 0x10: offset between CPU IMR/EMR registers */
 104:Drivers/STM32C0xx_HAL_Driver/Src/stm32c0xx_hal_exti.c **** #define EXTI_CONFIG_OFFSET               0x08u   /* 0x20: offset between CPU Rising/Falling configu
 105:Drivers/STM32C0xx_HAL_Driver/Src/stm32c0xx_hal_exti.c **** /**
 106:Drivers/STM32C0xx_HAL_Driver/Src/stm32c0xx_hal_exti.c ****   * @}
 107:Drivers/STM32C0xx_HAL_Driver/Src/stm32c0xx_hal_exti.c ****   */
 108:Drivers/STM32C0xx_HAL_Driver/Src/stm32c0xx_hal_exti.c **** 
 109:Drivers/STM32C0xx_HAL_Driver/Src/stm32c0xx_hal_exti.c **** /* Private macros ------------------------------------------------------------*/
 110:Drivers/STM32C0xx_HAL_Driver/Src/stm32c0xx_hal_exti.c **** /* Private variables ---------------------------------------------------------*/
 111:Drivers/STM32C0xx_HAL_Driver/Src/stm32c0xx_hal_exti.c **** /* Private function prototypes -----------------------------------------------*/
 112:Drivers/STM32C0xx_HAL_Driver/Src/stm32c0xx_hal_exti.c **** /* Exported functions --------------------------------------------------------*/
 113:Drivers/STM32C0xx_HAL_Driver/Src/stm32c0xx_hal_exti.c **** 
 114:Drivers/STM32C0xx_HAL_Driver/Src/stm32c0xx_hal_exti.c **** /** @addtogroup EXTI_Exported_Functions
 115:Drivers/STM32C0xx_HAL_Driver/Src/stm32c0xx_hal_exti.c ****   * @{
 116:Drivers/STM32C0xx_HAL_Driver/Src/stm32c0xx_hal_exti.c ****   */
 117:Drivers/STM32C0xx_HAL_Driver/Src/stm32c0xx_hal_exti.c **** 
 118:Drivers/STM32C0xx_HAL_Driver/Src/stm32c0xx_hal_exti.c **** /** @addtogroup EXTI_Exported_Functions_Group1
 119:Drivers/STM32C0xx_HAL_Driver/Src/stm32c0xx_hal_exti.c ****   *  @brief    Configuration functions
 120:Drivers/STM32C0xx_HAL_Driver/Src/stm32c0xx_hal_exti.c ****   *
 121:Drivers/STM32C0xx_HAL_Driver/Src/stm32c0xx_hal_exti.c **** @verbatim
 122:Drivers/STM32C0xx_HAL_Driver/Src/stm32c0xx_hal_exti.c ****  ===============================================================================
 123:Drivers/STM32C0xx_HAL_Driver/Src/stm32c0xx_hal_exti.c ****               ##### Configuration functions #####
 124:Drivers/STM32C0xx_HAL_Driver/Src/stm32c0xx_hal_exti.c ****  ===============================================================================
 125:Drivers/STM32C0xx_HAL_Driver/Src/stm32c0xx_hal_exti.c **** 
 126:Drivers/STM32C0xx_HAL_Driver/Src/stm32c0xx_hal_exti.c **** @endverbatim
 127:Drivers/STM32C0xx_HAL_Driver/Src/stm32c0xx_hal_exti.c ****   * @{
 128:Drivers/STM32C0xx_HAL_Driver/Src/stm32c0xx_hal_exti.c ****   */
 129:Drivers/STM32C0xx_HAL_Driver/Src/stm32c0xx_hal_exti.c **** 
 130:Drivers/STM32C0xx_HAL_Driver/Src/stm32c0xx_hal_exti.c **** /**
 131:Drivers/STM32C0xx_HAL_Driver/Src/stm32c0xx_hal_exti.c ****   * @brief  Set configuration of a dedicated Exti line.
 132:Drivers/STM32C0xx_HAL_Driver/Src/stm32c0xx_hal_exti.c ****   * @param  hexti Exti handle.
 133:Drivers/STM32C0xx_HAL_Driver/Src/stm32c0xx_hal_exti.c ****   * @param  pExtiConfig Pointer on EXTI configuration to be set.
 134:Drivers/STM32C0xx_HAL_Driver/Src/stm32c0xx_hal_exti.c ****   * @retval HAL Status.
 135:Drivers/STM32C0xx_HAL_Driver/Src/stm32c0xx_hal_exti.c ****   */
 136:Drivers/STM32C0xx_HAL_Driver/Src/stm32c0xx_hal_exti.c **** HAL_StatusTypeDef HAL_EXTI_SetConfigLine(EXTI_HandleTypeDef *hexti, EXTI_ConfigTypeDef *pExtiConfig
 137:Drivers/STM32C0xx_HAL_Driver/Src/stm32c0xx_hal_exti.c **** {
  28              		.loc 1 137 1 view -0
  29              		.cfi_startproc
  30              		@ args = 0, pretend = 0, frame = 0
  31              		@ frame_needed = 0, uses_anonymous_args = 0
  32              		.loc 1 137 1 is_stmt 0 view .LVU1
  33 0000 F0B5     		push	{r4, r5, r6, r7, lr}
  34              	.LCFI0:
  35              		.cfi_def_cfa_offset 20
ARM GAS  /var/folders/nl/kwfz41d55ync1k9vlz8wmkc80000gn/T//ccq26bS7.s 			page 4


  36              		.cfi_offset 4, -20
  37              		.cfi_offset 5, -16
  38              		.cfi_offset 6, -12
  39              		.cfi_offset 7, -8
  40              		.cfi_offset 14, -4
 138:Drivers/STM32C0xx_HAL_Driver/Src/stm32c0xx_hal_exti.c ****   __IO uint32_t *regaddr;
  41              		.loc 1 138 3 is_stmt 1 view .LVU2
 139:Drivers/STM32C0xx_HAL_Driver/Src/stm32c0xx_hal_exti.c ****   uint32_t regval;
  42              		.loc 1 139 3 view .LVU3
 140:Drivers/STM32C0xx_HAL_Driver/Src/stm32c0xx_hal_exti.c ****   uint32_t linepos;
  43              		.loc 1 140 3 view .LVU4
 141:Drivers/STM32C0xx_HAL_Driver/Src/stm32c0xx_hal_exti.c ****   uint32_t maskline;
  44              		.loc 1 141 3 view .LVU5
 142:Drivers/STM32C0xx_HAL_Driver/Src/stm32c0xx_hal_exti.c ****   uint32_t offset;
  45              		.loc 1 142 3 view .LVU6
 143:Drivers/STM32C0xx_HAL_Driver/Src/stm32c0xx_hal_exti.c **** 
 144:Drivers/STM32C0xx_HAL_Driver/Src/stm32c0xx_hal_exti.c ****   /* Check null pointer */
 145:Drivers/STM32C0xx_HAL_Driver/Src/stm32c0xx_hal_exti.c ****   if ((hexti == NULL) || (pExtiConfig == NULL))
  46              		.loc 1 145 3 view .LVU7
  47              		.loc 1 145 6 is_stmt 0 view .LVU8
  48 0002 0028     		cmp	r0, #0
  49 0004 54D0     		beq	.L12
  50              		.loc 1 145 23 discriminator 1 view .LVU9
  51 0006 0029     		cmp	r1, #0
  52 0008 54D0     		beq	.L13
 146:Drivers/STM32C0xx_HAL_Driver/Src/stm32c0xx_hal_exti.c ****   {
 147:Drivers/STM32C0xx_HAL_Driver/Src/stm32c0xx_hal_exti.c ****     return HAL_ERROR;
 148:Drivers/STM32C0xx_HAL_Driver/Src/stm32c0xx_hal_exti.c ****   }
 149:Drivers/STM32C0xx_HAL_Driver/Src/stm32c0xx_hal_exti.c **** 
 150:Drivers/STM32C0xx_HAL_Driver/Src/stm32c0xx_hal_exti.c ****   /* Check the parameters */
 151:Drivers/STM32C0xx_HAL_Driver/Src/stm32c0xx_hal_exti.c ****   assert_param(IS_EXTI_LINE(pExtiConfig->Line));
  53              		.loc 1 151 3 is_stmt 1 view .LVU10
 152:Drivers/STM32C0xx_HAL_Driver/Src/stm32c0xx_hal_exti.c ****   assert_param(IS_EXTI_MODE(pExtiConfig->Mode));
  54              		.loc 1 152 3 view .LVU11
 153:Drivers/STM32C0xx_HAL_Driver/Src/stm32c0xx_hal_exti.c **** 
 154:Drivers/STM32C0xx_HAL_Driver/Src/stm32c0xx_hal_exti.c ****   /* Assign line number to handle */
 155:Drivers/STM32C0xx_HAL_Driver/Src/stm32c0xx_hal_exti.c ****   hexti->Line = pExtiConfig->Line;
  55              		.loc 1 155 3 view .LVU12
  56              		.loc 1 155 28 is_stmt 0 view .LVU13
  57 000a 0C68     		ldr	r4, [r1]
  58              		.loc 1 155 15 view .LVU14
  59 000c 0460     		str	r4, [r0]
 156:Drivers/STM32C0xx_HAL_Driver/Src/stm32c0xx_hal_exti.c **** 
 157:Drivers/STM32C0xx_HAL_Driver/Src/stm32c0xx_hal_exti.c ****   /* compute line register offset and line mask */
 158:Drivers/STM32C0xx_HAL_Driver/Src/stm32c0xx_hal_exti.c ****   offset = ((pExtiConfig->Line & EXTI_REG_MASK) >> EXTI_REG_SHIFT);
  60              		.loc 1 158 3 is_stmt 1 view .LVU15
  61              		.loc 1 158 49 is_stmt 0 view .LVU16
  62 000e 230C     		lsrs	r3, r4, #16
  63              		.loc 1 158 10 view .LVU17
  64 0010 0122     		movs	r2, #1
  65 0012 1340     		ands	r3, r2
  66              	.LVL1:
 159:Drivers/STM32C0xx_HAL_Driver/Src/stm32c0xx_hal_exti.c ****   linepos = (pExtiConfig->Line & EXTI_PIN_MASK);
  67              		.loc 1 159 3 is_stmt 1 view .LVU18
  68              		.loc 1 159 11 is_stmt 0 view .LVU19
  69 0014 1F20     		movs	r0, #31
  70              	.LVL2:
ARM GAS  /var/folders/nl/kwfz41d55ync1k9vlz8wmkc80000gn/T//ccq26bS7.s 			page 5


  71              		.loc 1 159 11 view .LVU20
  72 0016 2040     		ands	r0, r4
  73              	.LVL3:
 160:Drivers/STM32C0xx_HAL_Driver/Src/stm32c0xx_hal_exti.c ****   maskline = (1UL << linepos);
  74              		.loc 1 160 3 is_stmt 1 view .LVU21
  75              		.loc 1 160 12 is_stmt 0 view .LVU22
  76 0018 8240     		lsls	r2, r2, r0
  77              	.LVL4:
 161:Drivers/STM32C0xx_HAL_Driver/Src/stm32c0xx_hal_exti.c **** 
 162:Drivers/STM32C0xx_HAL_Driver/Src/stm32c0xx_hal_exti.c ****   /* Configure triggers for configurable lines */
 163:Drivers/STM32C0xx_HAL_Driver/Src/stm32c0xx_hal_exti.c ****   if ((pExtiConfig->Line & EXTI_CONFIG) != 0U)
  78              		.loc 1 163 3 is_stmt 1 view .LVU23
  79              		.loc 1 163 6 is_stmt 0 view .LVU24
  80 001a A501     		lsls	r5, r4, #6
  81 001c 19D5     		bpl	.L3
 164:Drivers/STM32C0xx_HAL_Driver/Src/stm32c0xx_hal_exti.c ****   {
 165:Drivers/STM32C0xx_HAL_Driver/Src/stm32c0xx_hal_exti.c ****     assert_param(IS_EXTI_TRIGGER(pExtiConfig->Trigger));
  82              		.loc 1 165 5 is_stmt 1 view .LVU25
 166:Drivers/STM32C0xx_HAL_Driver/Src/stm32c0xx_hal_exti.c **** 
 167:Drivers/STM32C0xx_HAL_Driver/Src/stm32c0xx_hal_exti.c ****     /* Configure rising trigger */
 168:Drivers/STM32C0xx_HAL_Driver/Src/stm32c0xx_hal_exti.c ****     regaddr = (__IO uint32_t *)(&EXTI->RTSR1 + (EXTI_CONFIG_OFFSET * offset));
  83              		.loc 1 168 5 view .LVU26
  84              		.loc 1 168 15 is_stmt 0 view .LVU27
  85 001e 5D01     		lsls	r5, r3, #5
  86              		.loc 1 168 13 view .LVU28
  87 0020 254E     		ldr	r6, .L15
  88 0022 AF19     		adds	r7, r5, r6
  89              	.LVL5:
 169:Drivers/STM32C0xx_HAL_Driver/Src/stm32c0xx_hal_exti.c ****     regval = *regaddr;
  90              		.loc 1 169 5 is_stmt 1 view .LVU29
  91              		.loc 1 169 12 is_stmt 0 view .LVU30
  92 0024 3E68     		ldr	r6, [r7]
  93 0026 B446     		mov	ip, r6
  94              	.LVL6:
 170:Drivers/STM32C0xx_HAL_Driver/Src/stm32c0xx_hal_exti.c **** 
 171:Drivers/STM32C0xx_HAL_Driver/Src/stm32c0xx_hal_exti.c ****     /* Mask or set line */
 172:Drivers/STM32C0xx_HAL_Driver/Src/stm32c0xx_hal_exti.c ****     if ((pExtiConfig->Trigger & EXTI_TRIGGER_RISING) != 0U)
  95              		.loc 1 172 5 is_stmt 1 view .LVU31
  96              		.loc 1 172 8 is_stmt 0 view .LVU32
  97 0028 8E68     		ldr	r6, [r1, #8]
  98              	.LVL7:
  99              		.loc 1 172 8 view .LVU33
 100 002a F607     		lsls	r6, r6, #31
 101 002c 25D5     		bpl	.L4
 173:Drivers/STM32C0xx_HAL_Driver/Src/stm32c0xx_hal_exti.c ****     {
 174:Drivers/STM32C0xx_HAL_Driver/Src/stm32c0xx_hal_exti.c ****       regval |= maskline;
 102              		.loc 1 174 7 is_stmt 1 view .LVU34
 103              		.loc 1 174 14 is_stmt 0 view .LVU35
 104 002e 6646     		mov	r6, ip
 105 0030 1643     		orrs	r6, r2
 106              	.LVL8:
 107              	.L5:
 175:Drivers/STM32C0xx_HAL_Driver/Src/stm32c0xx_hal_exti.c ****     }
 176:Drivers/STM32C0xx_HAL_Driver/Src/stm32c0xx_hal_exti.c ****     else
 177:Drivers/STM32C0xx_HAL_Driver/Src/stm32c0xx_hal_exti.c ****     {
 178:Drivers/STM32C0xx_HAL_Driver/Src/stm32c0xx_hal_exti.c ****       regval &= ~maskline;
 179:Drivers/STM32C0xx_HAL_Driver/Src/stm32c0xx_hal_exti.c ****     }
ARM GAS  /var/folders/nl/kwfz41d55ync1k9vlz8wmkc80000gn/T//ccq26bS7.s 			page 6


 180:Drivers/STM32C0xx_HAL_Driver/Src/stm32c0xx_hal_exti.c **** 
 181:Drivers/STM32C0xx_HAL_Driver/Src/stm32c0xx_hal_exti.c ****     /* Store rising trigger mode */
 182:Drivers/STM32C0xx_HAL_Driver/Src/stm32c0xx_hal_exti.c ****     *regaddr = regval;
 108              		.loc 1 182 5 is_stmt 1 view .LVU36
 109              		.loc 1 182 14 is_stmt 0 view .LVU37
 110 0032 3E60     		str	r6, [r7]
 183:Drivers/STM32C0xx_HAL_Driver/Src/stm32c0xx_hal_exti.c **** 
 184:Drivers/STM32C0xx_HAL_Driver/Src/stm32c0xx_hal_exti.c ****     /* Configure falling trigger */
 185:Drivers/STM32C0xx_HAL_Driver/Src/stm32c0xx_hal_exti.c ****     regaddr = (__IO uint32_t *)(&EXTI->FTSR1 + (EXTI_CONFIG_OFFSET * offset));
 111              		.loc 1 185 5 is_stmt 1 view .LVU38
 112              		.loc 1 185 13 is_stmt 0 view .LVU39
 113 0034 214E     		ldr	r6, .L15+4
 114              	.LVL9:
 115              		.loc 1 185 13 view .LVU40
 116 0036 B446     		mov	ip, r6
 117 0038 6544     		add	r5, r5, ip
 118              	.LVL10:
 186:Drivers/STM32C0xx_HAL_Driver/Src/stm32c0xx_hal_exti.c ****     regval = *regaddr;
 119              		.loc 1 186 5 is_stmt 1 view .LVU41
 120              		.loc 1 186 12 is_stmt 0 view .LVU42
 121 003a 2E68     		ldr	r6, [r5]
 122              	.LVL11:
 187:Drivers/STM32C0xx_HAL_Driver/Src/stm32c0xx_hal_exti.c **** 
 188:Drivers/STM32C0xx_HAL_Driver/Src/stm32c0xx_hal_exti.c ****     /* Mask or set line */
 189:Drivers/STM32C0xx_HAL_Driver/Src/stm32c0xx_hal_exti.c ****     if ((pExtiConfig->Trigger & EXTI_TRIGGER_FALLING) != 0U)
 123              		.loc 1 189 5 is_stmt 1 view .LVU43
 124              		.loc 1 189 8 is_stmt 0 view .LVU44
 125 003c 8F68     		ldr	r7, [r1, #8]
 126 003e BF07     		lsls	r7, r7, #30
 127 0040 1ED5     		bpl	.L6
 190:Drivers/STM32C0xx_HAL_Driver/Src/stm32c0xx_hal_exti.c ****     {
 191:Drivers/STM32C0xx_HAL_Driver/Src/stm32c0xx_hal_exti.c ****       regval |= maskline;
 128              		.loc 1 191 7 is_stmt 1 view .LVU45
 129              		.loc 1 191 14 is_stmt 0 view .LVU46
 130 0042 1643     		orrs	r6, r2
 131              	.LVL12:
 132              	.L7:
 192:Drivers/STM32C0xx_HAL_Driver/Src/stm32c0xx_hal_exti.c ****     }
 193:Drivers/STM32C0xx_HAL_Driver/Src/stm32c0xx_hal_exti.c ****     else
 194:Drivers/STM32C0xx_HAL_Driver/Src/stm32c0xx_hal_exti.c ****     {
 195:Drivers/STM32C0xx_HAL_Driver/Src/stm32c0xx_hal_exti.c ****       regval &= ~maskline;
 196:Drivers/STM32C0xx_HAL_Driver/Src/stm32c0xx_hal_exti.c ****     }
 197:Drivers/STM32C0xx_HAL_Driver/Src/stm32c0xx_hal_exti.c **** 
 198:Drivers/STM32C0xx_HAL_Driver/Src/stm32c0xx_hal_exti.c ****     /* Store falling trigger mode */
 199:Drivers/STM32C0xx_HAL_Driver/Src/stm32c0xx_hal_exti.c ****     *regaddr = regval;
 133              		.loc 1 199 5 is_stmt 1 view .LVU47
 134              		.loc 1 199 14 is_stmt 0 view .LVU48
 135 0044 2E60     		str	r6, [r5]
 200:Drivers/STM32C0xx_HAL_Driver/Src/stm32c0xx_hal_exti.c **** 
 201:Drivers/STM32C0xx_HAL_Driver/Src/stm32c0xx_hal_exti.c ****     /* Configure gpio port selection in case of gpio exti line */
 202:Drivers/STM32C0xx_HAL_Driver/Src/stm32c0xx_hal_exti.c ****     if ((pExtiConfig->Line & EXTI_GPIO) == EXTI_GPIO)
 136              		.loc 1 202 5 is_stmt 1 view .LVU49
 137              		.loc 1 202 28 is_stmt 0 view .LVU50
 138 0046 C026     		movs	r6, #192
 139              	.LVL13:
 140              		.loc 1 202 28 view .LVU51
 141 0048 F604     		lsls	r6, r6, #19
ARM GAS  /var/folders/nl/kwfz41d55ync1k9vlz8wmkc80000gn/T//ccq26bS7.s 			page 7


 142 004a 0D68     		ldr	r5, [r1]
 143              	.LVL14:
 144              		.loc 1 202 28 view .LVU52
 145 004c 3540     		ands	r5, r6
 146              		.loc 1 202 8 view .LVU53
 147 004e B542     		cmp	r5, r6
 148 0050 18D0     		beq	.L14
 149              	.LVL15:
 150              	.L3:
 203:Drivers/STM32C0xx_HAL_Driver/Src/stm32c0xx_hal_exti.c ****     {
 204:Drivers/STM32C0xx_HAL_Driver/Src/stm32c0xx_hal_exti.c ****       assert_param(IS_EXTI_GPIO_PORT(pExtiConfig->GPIOSel));
 205:Drivers/STM32C0xx_HAL_Driver/Src/stm32c0xx_hal_exti.c ****       assert_param(IS_EXTI_GPIO_PIN(linepos));
 206:Drivers/STM32C0xx_HAL_Driver/Src/stm32c0xx_hal_exti.c **** 
 207:Drivers/STM32C0xx_HAL_Driver/Src/stm32c0xx_hal_exti.c ****       regval = EXTI->EXTICR[(linepos >> 2U) & 0x03UL];
 208:Drivers/STM32C0xx_HAL_Driver/Src/stm32c0xx_hal_exti.c ****       regval &= ~(EXTI_EXTICR1_EXTI0 << (EXTI_EXTICR1_EXTI1_Pos * (linepos & 0x03U)));
 209:Drivers/STM32C0xx_HAL_Driver/Src/stm32c0xx_hal_exti.c ****       regval |= (pExtiConfig->GPIOSel << (EXTI_EXTICR1_EXTI1_Pos * (linepos & 0x03U)));
 210:Drivers/STM32C0xx_HAL_Driver/Src/stm32c0xx_hal_exti.c ****       EXTI->EXTICR[(linepos >> 2U) & 0x03UL] = regval;
 211:Drivers/STM32C0xx_HAL_Driver/Src/stm32c0xx_hal_exti.c ****     }
 212:Drivers/STM32C0xx_HAL_Driver/Src/stm32c0xx_hal_exti.c ****   }
 213:Drivers/STM32C0xx_HAL_Driver/Src/stm32c0xx_hal_exti.c **** 
 214:Drivers/STM32C0xx_HAL_Driver/Src/stm32c0xx_hal_exti.c ****   /* Configure interrupt mode : read current mode */
 215:Drivers/STM32C0xx_HAL_Driver/Src/stm32c0xx_hal_exti.c ****   regaddr = (__IO uint32_t *)(&EXTI->IMR1 + (EXTI_MODE_OFFSET * offset));
 151              		.loc 1 215 3 is_stmt 1 view .LVU54
 152              		.loc 1 215 13 is_stmt 0 view .LVU55
 153 0052 1B01     		lsls	r3, r3, #4
 154              	.LVL16:
 155              		.loc 1 215 11 view .LVU56
 156 0054 1A48     		ldr	r0, .L15+8
 157 0056 1C18     		adds	r4, r3, r0
 158              	.LVL17:
 216:Drivers/STM32C0xx_HAL_Driver/Src/stm32c0xx_hal_exti.c ****   regval = *regaddr;
 159              		.loc 1 216 3 is_stmt 1 view .LVU57
 160              		.loc 1 216 10 is_stmt 0 view .LVU58
 161 0058 2068     		ldr	r0, [r4]
 162              	.LVL18:
 217:Drivers/STM32C0xx_HAL_Driver/Src/stm32c0xx_hal_exti.c **** 
 218:Drivers/STM32C0xx_HAL_Driver/Src/stm32c0xx_hal_exti.c ****   /* Mask or set line */
 219:Drivers/STM32C0xx_HAL_Driver/Src/stm32c0xx_hal_exti.c ****   if ((pExtiConfig->Mode & EXTI_MODE_INTERRUPT) != 0U)
 163              		.loc 1 219 3 is_stmt 1 view .LVU59
 164              		.loc 1 219 6 is_stmt 0 view .LVU60
 165 005a 4D68     		ldr	r5, [r1, #4]
 166 005c ED07     		lsls	r5, r5, #31
 167 005e 23D5     		bpl	.L8
 220:Drivers/STM32C0xx_HAL_Driver/Src/stm32c0xx_hal_exti.c ****   {
 221:Drivers/STM32C0xx_HAL_Driver/Src/stm32c0xx_hal_exti.c ****     regval |= maskline;
 168              		.loc 1 221 5 is_stmt 1 view .LVU61
 169              		.loc 1 221 12 is_stmt 0 view .LVU62
 170 0060 1043     		orrs	r0, r2
 171              	.LVL19:
 172              	.L9:
 222:Drivers/STM32C0xx_HAL_Driver/Src/stm32c0xx_hal_exti.c ****   }
 223:Drivers/STM32C0xx_HAL_Driver/Src/stm32c0xx_hal_exti.c ****   else
 224:Drivers/STM32C0xx_HAL_Driver/Src/stm32c0xx_hal_exti.c ****   {
 225:Drivers/STM32C0xx_HAL_Driver/Src/stm32c0xx_hal_exti.c ****     regval &= ~maskline;
 226:Drivers/STM32C0xx_HAL_Driver/Src/stm32c0xx_hal_exti.c ****   }
 227:Drivers/STM32C0xx_HAL_Driver/Src/stm32c0xx_hal_exti.c **** 
 228:Drivers/STM32C0xx_HAL_Driver/Src/stm32c0xx_hal_exti.c ****   /* Store interrupt mode */
ARM GAS  /var/folders/nl/kwfz41d55ync1k9vlz8wmkc80000gn/T//ccq26bS7.s 			page 8


 229:Drivers/STM32C0xx_HAL_Driver/Src/stm32c0xx_hal_exti.c ****   *regaddr = regval;
 173              		.loc 1 229 3 is_stmt 1 view .LVU63
 174              		.loc 1 229 12 is_stmt 0 view .LVU64
 175 0062 2060     		str	r0, [r4]
 230:Drivers/STM32C0xx_HAL_Driver/Src/stm32c0xx_hal_exti.c **** 
 231:Drivers/STM32C0xx_HAL_Driver/Src/stm32c0xx_hal_exti.c ****   /* Configure event mode : read current mode */
 232:Drivers/STM32C0xx_HAL_Driver/Src/stm32c0xx_hal_exti.c ****   regaddr = (__IO uint32_t *)(&EXTI->EMR1 + (EXTI_MODE_OFFSET * offset));
 176              		.loc 1 232 3 is_stmt 1 view .LVU65
 177              		.loc 1 232 11 is_stmt 0 view .LVU66
 178 0064 1748     		ldr	r0, .L15+12
 179              	.LVL20:
 180              		.loc 1 232 11 view .LVU67
 181 0066 8446     		mov	ip, r0
 182 0068 6344     		add	r3, r3, ip
 183              	.LVL21:
 233:Drivers/STM32C0xx_HAL_Driver/Src/stm32c0xx_hal_exti.c ****   regval = *regaddr;
 184              		.loc 1 233 3 is_stmt 1 view .LVU68
 185              		.loc 1 233 10 is_stmt 0 view .LVU69
 186 006a 1868     		ldr	r0, [r3]
 187              	.LVL22:
 234:Drivers/STM32C0xx_HAL_Driver/Src/stm32c0xx_hal_exti.c **** 
 235:Drivers/STM32C0xx_HAL_Driver/Src/stm32c0xx_hal_exti.c ****   /* Mask or set line */
 236:Drivers/STM32C0xx_HAL_Driver/Src/stm32c0xx_hal_exti.c ****   if ((pExtiConfig->Mode & EXTI_MODE_EVENT) != 0U)
 188              		.loc 1 236 3 is_stmt 1 view .LVU70
 189              		.loc 1 236 19 is_stmt 0 view .LVU71
 190 006c 4968     		ldr	r1, [r1, #4]
 191              	.LVL23:
 192              		.loc 1 236 6 view .LVU72
 193 006e 8907     		lsls	r1, r1, #30
 194 0070 1CD5     		bpl	.L10
 237:Drivers/STM32C0xx_HAL_Driver/Src/stm32c0xx_hal_exti.c ****   {
 238:Drivers/STM32C0xx_HAL_Driver/Src/stm32c0xx_hal_exti.c ****     regval |= maskline;
 195              		.loc 1 238 5 is_stmt 1 view .LVU73
 196              		.loc 1 238 12 is_stmt 0 view .LVU74
 197 0072 1043     		orrs	r0, r2
 198              	.LVL24:
 199              	.L11:
 239:Drivers/STM32C0xx_HAL_Driver/Src/stm32c0xx_hal_exti.c ****   }
 240:Drivers/STM32C0xx_HAL_Driver/Src/stm32c0xx_hal_exti.c ****   else
 241:Drivers/STM32C0xx_HAL_Driver/Src/stm32c0xx_hal_exti.c ****   {
 242:Drivers/STM32C0xx_HAL_Driver/Src/stm32c0xx_hal_exti.c ****     regval &= ~maskline;
 243:Drivers/STM32C0xx_HAL_Driver/Src/stm32c0xx_hal_exti.c ****   }
 244:Drivers/STM32C0xx_HAL_Driver/Src/stm32c0xx_hal_exti.c **** 
 245:Drivers/STM32C0xx_HAL_Driver/Src/stm32c0xx_hal_exti.c ****   /* Store event mode */
 246:Drivers/STM32C0xx_HAL_Driver/Src/stm32c0xx_hal_exti.c ****   *regaddr = regval;
 200              		.loc 1 246 3 is_stmt 1 view .LVU75
 201              		.loc 1 246 12 is_stmt 0 view .LVU76
 202 0074 1860     		str	r0, [r3]
 247:Drivers/STM32C0xx_HAL_Driver/Src/stm32c0xx_hal_exti.c **** 
 248:Drivers/STM32C0xx_HAL_Driver/Src/stm32c0xx_hal_exti.c ****   return HAL_OK;
 203              		.loc 1 248 3 is_stmt 1 view .LVU77
 204              		.loc 1 248 10 is_stmt 0 view .LVU78
 205 0076 0020     		movs	r0, #0
 206              	.LVL25:
 207              	.L2:
 249:Drivers/STM32C0xx_HAL_Driver/Src/stm32c0xx_hal_exti.c **** }
 208              		.loc 1 249 1 view .LVU79
ARM GAS  /var/folders/nl/kwfz41d55ync1k9vlz8wmkc80000gn/T//ccq26bS7.s 			page 9


 209              		@ sp needed
 210 0078 F0BD     		pop	{r4, r5, r6, r7, pc}
 211              	.LVL26:
 212              	.L4:
 178:Drivers/STM32C0xx_HAL_Driver/Src/stm32c0xx_hal_exti.c ****     }
 213              		.loc 1 178 7 is_stmt 1 view .LVU80
 178:Drivers/STM32C0xx_HAL_Driver/Src/stm32c0xx_hal_exti.c ****     }
 214              		.loc 1 178 14 is_stmt 0 view .LVU81
 215 007a 6646     		mov	r6, ip
 216 007c 9643     		bics	r6, r2
 217              	.LVL27:
 178:Drivers/STM32C0xx_HAL_Driver/Src/stm32c0xx_hal_exti.c ****     }
 218              		.loc 1 178 14 view .LVU82
 219 007e D8E7     		b	.L5
 220              	.LVL28:
 221              	.L6:
 195:Drivers/STM32C0xx_HAL_Driver/Src/stm32c0xx_hal_exti.c ****     }
 222              		.loc 1 195 7 is_stmt 1 view .LVU83
 195:Drivers/STM32C0xx_HAL_Driver/Src/stm32c0xx_hal_exti.c ****     }
 223              		.loc 1 195 14 is_stmt 0 view .LVU84
 224 0080 9643     		bics	r6, r2
 225              	.LVL29:
 195:Drivers/STM32C0xx_HAL_Driver/Src/stm32c0xx_hal_exti.c ****     }
 226              		.loc 1 195 14 view .LVU85
 227 0082 DFE7     		b	.L7
 228              	.LVL30:
 229              	.L14:
 204:Drivers/STM32C0xx_HAL_Driver/Src/stm32c0xx_hal_exti.c ****       assert_param(IS_EXTI_GPIO_PIN(linepos));
 230              		.loc 1 204 7 is_stmt 1 view .LVU86
 205:Drivers/STM32C0xx_HAL_Driver/Src/stm32c0xx_hal_exti.c **** 
 231              		.loc 1 205 7 view .LVU87
 207:Drivers/STM32C0xx_HAL_Driver/Src/stm32c0xx_hal_exti.c ****       regval &= ~(EXTI_EXTICR1_EXTI0 << (EXTI_EXTICR1_EXTI1_Pos * (linepos & 0x03U)));
 232              		.loc 1 207 7 view .LVU88
 207:Drivers/STM32C0xx_HAL_Driver/Src/stm32c0xx_hal_exti.c ****       regval &= ~(EXTI_EXTICR1_EXTI0 << (EXTI_EXTICR1_EXTI1_Pos * (linepos & 0x03U)));
 233              		.loc 1 207 38 is_stmt 0 view .LVU89
 234 0084 8008     		lsrs	r0, r0, #2
 235              	.LVL31:
 207:Drivers/STM32C0xx_HAL_Driver/Src/stm32c0xx_hal_exti.c ****       regval &= ~(EXTI_EXTICR1_EXTI0 << (EXTI_EXTICR1_EXTI1_Pos * (linepos & 0x03U)));
 236              		.loc 1 207 45 view .LVU90
 237 0086 0325     		movs	r5, #3
 238 0088 2840     		ands	r0, r5
 207:Drivers/STM32C0xx_HAL_Driver/Src/stm32c0xx_hal_exti.c ****       regval &= ~(EXTI_EXTICR1_EXTI0 << (EXTI_EXTICR1_EXTI1_Pos * (linepos & 0x03U)));
 239              		.loc 1 207 14 view .LVU91
 240 008a 0B4E     		ldr	r6, .L15
 241 008c 1830     		adds	r0, r0, #24
 242 008e 8000     		lsls	r0, r0, #2
 243 0090 8759     		ldr	r7, [r0, r6]
 244              	.LVL32:
 208:Drivers/STM32C0xx_HAL_Driver/Src/stm32c0xx_hal_exti.c ****       regval |= (pExtiConfig->GPIOSel << (EXTI_EXTICR1_EXTI1_Pos * (linepos & 0x03U)));
 245              		.loc 1 208 7 is_stmt 1 view .LVU92
 208:Drivers/STM32C0xx_HAL_Driver/Src/stm32c0xx_hal_exti.c ****       regval |= (pExtiConfig->GPIOSel << (EXTI_EXTICR1_EXTI1_Pos * (linepos & 0x03U)));
 246              		.loc 1 208 76 is_stmt 0 view .LVU93
 247 0092 2C40     		ands	r4, r5
 248              	.LVL33:
 208:Drivers/STM32C0xx_HAL_Driver/Src/stm32c0xx_hal_exti.c ****       regval |= (pExtiConfig->GPIOSel << (EXTI_EXTICR1_EXTI1_Pos * (linepos & 0x03U)));
 249              		.loc 1 208 65 view .LVU94
 250 0094 E400     		lsls	r4, r4, #3
ARM GAS  /var/folders/nl/kwfz41d55ync1k9vlz8wmkc80000gn/T//ccq26bS7.s 			page 10


 208:Drivers/STM32C0xx_HAL_Driver/Src/stm32c0xx_hal_exti.c ****       regval |= (pExtiConfig->GPIOSel << (EXTI_EXTICR1_EXTI1_Pos * (linepos & 0x03U)));
 251              		.loc 1 208 38 view .LVU95
 252 0096 0435     		adds	r5, r5, #4
 253 0098 A540     		lsls	r5, r5, r4
 208:Drivers/STM32C0xx_HAL_Driver/Src/stm32c0xx_hal_exti.c ****       regval |= (pExtiConfig->GPIOSel << (EXTI_EXTICR1_EXTI1_Pos * (linepos & 0x03U)));
 254              		.loc 1 208 14 view .LVU96
 255 009a AF43     		bics	r7, r5
 256              	.LVL34:
 209:Drivers/STM32C0xx_HAL_Driver/Src/stm32c0xx_hal_exti.c ****       EXTI->EXTICR[(linepos >> 2U) & 0x03UL] = regval;
 257              		.loc 1 209 7 is_stmt 1 view .LVU97
 209:Drivers/STM32C0xx_HAL_Driver/Src/stm32c0xx_hal_exti.c ****       EXTI->EXTICR[(linepos >> 2U) & 0x03UL] = regval;
 258              		.loc 1 209 39 is_stmt 0 view .LVU98
 259 009c CD68     		ldr	r5, [r1, #12]
 260 009e A540     		lsls	r5, r5, r4
 261 00a0 2C00     		movs	r4, r5
 209:Drivers/STM32C0xx_HAL_Driver/Src/stm32c0xx_hal_exti.c ****       EXTI->EXTICR[(linepos >> 2U) & 0x03UL] = regval;
 262              		.loc 1 209 14 view .LVU99
 263 00a2 3C43     		orrs	r4, r7
 264              	.LVL35:
 210:Drivers/STM32C0xx_HAL_Driver/Src/stm32c0xx_hal_exti.c ****     }
 265              		.loc 1 210 7 is_stmt 1 view .LVU100
 210:Drivers/STM32C0xx_HAL_Driver/Src/stm32c0xx_hal_exti.c ****     }
 266              		.loc 1 210 46 is_stmt 0 view .LVU101
 267 00a4 8451     		str	r4, [r0, r6]
 268 00a6 D4E7     		b	.L3
 269              	.LVL36:
 270              	.L8:
 225:Drivers/STM32C0xx_HAL_Driver/Src/stm32c0xx_hal_exti.c ****   }
 271              		.loc 1 225 5 is_stmt 1 view .LVU102
 225:Drivers/STM32C0xx_HAL_Driver/Src/stm32c0xx_hal_exti.c ****   }
 272              		.loc 1 225 12 is_stmt 0 view .LVU103
 273 00a8 9043     		bics	r0, r2
 274              	.LVL37:
 225:Drivers/STM32C0xx_HAL_Driver/Src/stm32c0xx_hal_exti.c ****   }
 275              		.loc 1 225 12 view .LVU104
 276 00aa DAE7     		b	.L9
 277              	.LVL38:
 278              	.L10:
 242:Drivers/STM32C0xx_HAL_Driver/Src/stm32c0xx_hal_exti.c ****   }
 279              		.loc 1 242 5 is_stmt 1 view .LVU105
 242:Drivers/STM32C0xx_HAL_Driver/Src/stm32c0xx_hal_exti.c ****   }
 280              		.loc 1 242 12 is_stmt 0 view .LVU106
 281 00ac 9043     		bics	r0, r2
 282              	.LVL39:
 242:Drivers/STM32C0xx_HAL_Driver/Src/stm32c0xx_hal_exti.c ****   }
 283              		.loc 1 242 12 view .LVU107
 284 00ae E1E7     		b	.L11
 285              	.LVL40:
 286              	.L12:
 147:Drivers/STM32C0xx_HAL_Driver/Src/stm32c0xx_hal_exti.c ****   }
 287              		.loc 1 147 12 view .LVU108
 288 00b0 0120     		movs	r0, #1
 289              	.LVL41:
 147:Drivers/STM32C0xx_HAL_Driver/Src/stm32c0xx_hal_exti.c ****   }
 290              		.loc 1 147 12 view .LVU109
 291 00b2 E1E7     		b	.L2
 292              	.LVL42:
ARM GAS  /var/folders/nl/kwfz41d55ync1k9vlz8wmkc80000gn/T//ccq26bS7.s 			page 11


 293              	.L13:
 147:Drivers/STM32C0xx_HAL_Driver/Src/stm32c0xx_hal_exti.c ****   }
 294              		.loc 1 147 12 view .LVU110
 295 00b4 0120     		movs	r0, #1
 296              	.LVL43:
 147:Drivers/STM32C0xx_HAL_Driver/Src/stm32c0xx_hal_exti.c ****   }
 297              		.loc 1 147 12 view .LVU111
 298 00b6 DFE7     		b	.L2
 299              	.L16:
 300              		.align	2
 301              	.L15:
 302 00b8 00180240 		.word	1073879040
 303 00bc 04180240 		.word	1073879044
 304 00c0 80180240 		.word	1073879168
 305 00c4 84180240 		.word	1073879172
 306              		.cfi_endproc
 307              	.LFE214:
 309              		.section	.text.HAL_EXTI_GetConfigLine,"ax",%progbits
 310              		.align	1
 311              		.global	HAL_EXTI_GetConfigLine
 312              		.syntax unified
 313              		.code	16
 314              		.thumb_func
 316              	HAL_EXTI_GetConfigLine:
 317              	.LVL44:
 318              	.LFB215:
 250:Drivers/STM32C0xx_HAL_Driver/Src/stm32c0xx_hal_exti.c **** 
 251:Drivers/STM32C0xx_HAL_Driver/Src/stm32c0xx_hal_exti.c **** 
 252:Drivers/STM32C0xx_HAL_Driver/Src/stm32c0xx_hal_exti.c **** /**
 253:Drivers/STM32C0xx_HAL_Driver/Src/stm32c0xx_hal_exti.c ****   * @brief  Get configuration of a dedicated Exti line.
 254:Drivers/STM32C0xx_HAL_Driver/Src/stm32c0xx_hal_exti.c ****   * @param  hexti Exti handle.
 255:Drivers/STM32C0xx_HAL_Driver/Src/stm32c0xx_hal_exti.c ****   * @param  pExtiConfig Pointer on structure to store Exti configuration.
 256:Drivers/STM32C0xx_HAL_Driver/Src/stm32c0xx_hal_exti.c ****   * @retval HAL Status.
 257:Drivers/STM32C0xx_HAL_Driver/Src/stm32c0xx_hal_exti.c ****   */
 258:Drivers/STM32C0xx_HAL_Driver/Src/stm32c0xx_hal_exti.c **** HAL_StatusTypeDef HAL_EXTI_GetConfigLine(EXTI_HandleTypeDef *hexti, EXTI_ConfigTypeDef *pExtiConfig
 259:Drivers/STM32C0xx_HAL_Driver/Src/stm32c0xx_hal_exti.c **** {
 319              		.loc 1 259 1 is_stmt 1 view -0
 320              		.cfi_startproc
 321              		@ args = 0, pretend = 0, frame = 0
 322              		@ frame_needed = 0, uses_anonymous_args = 0
 323              		.loc 1 259 1 is_stmt 0 view .LVU113
 324 0000 70B5     		push	{r4, r5, r6, lr}
 325              	.LCFI1:
 326              		.cfi_def_cfa_offset 16
 327              		.cfi_offset 4, -16
 328              		.cfi_offset 5, -12
 329              		.cfi_offset 6, -8
 330              		.cfi_offset 14, -4
 260:Drivers/STM32C0xx_HAL_Driver/Src/stm32c0xx_hal_exti.c ****   __IO uint32_t *regaddr;
 331              		.loc 1 260 3 is_stmt 1 view .LVU114
 261:Drivers/STM32C0xx_HAL_Driver/Src/stm32c0xx_hal_exti.c ****   uint32_t regval;
 332              		.loc 1 261 3 view .LVU115
 262:Drivers/STM32C0xx_HAL_Driver/Src/stm32c0xx_hal_exti.c ****   uint32_t linepos;
 333              		.loc 1 262 3 view .LVU116
 263:Drivers/STM32C0xx_HAL_Driver/Src/stm32c0xx_hal_exti.c ****   uint32_t maskline;
 334              		.loc 1 263 3 view .LVU117
 264:Drivers/STM32C0xx_HAL_Driver/Src/stm32c0xx_hal_exti.c ****   uint32_t offset;
ARM GAS  /var/folders/nl/kwfz41d55ync1k9vlz8wmkc80000gn/T//ccq26bS7.s 			page 12


 335              		.loc 1 264 3 view .LVU118
 265:Drivers/STM32C0xx_HAL_Driver/Src/stm32c0xx_hal_exti.c **** 
 266:Drivers/STM32C0xx_HAL_Driver/Src/stm32c0xx_hal_exti.c ****   /* Check null pointer */
 267:Drivers/STM32C0xx_HAL_Driver/Src/stm32c0xx_hal_exti.c ****   if ((hexti == NULL) || (pExtiConfig == NULL))
 336              		.loc 1 267 3 view .LVU119
 337              		.loc 1 267 6 is_stmt 0 view .LVU120
 338 0002 0028     		cmp	r0, #0
 339 0004 4DD0     		beq	.L24
 340              		.loc 1 267 23 discriminator 1 view .LVU121
 341 0006 0029     		cmp	r1, #0
 342 0008 4DD0     		beq	.L25
 268:Drivers/STM32C0xx_HAL_Driver/Src/stm32c0xx_hal_exti.c ****   {
 269:Drivers/STM32C0xx_HAL_Driver/Src/stm32c0xx_hal_exti.c ****     return HAL_ERROR;
 270:Drivers/STM32C0xx_HAL_Driver/Src/stm32c0xx_hal_exti.c ****   }
 271:Drivers/STM32C0xx_HAL_Driver/Src/stm32c0xx_hal_exti.c **** 
 272:Drivers/STM32C0xx_HAL_Driver/Src/stm32c0xx_hal_exti.c ****   /* Check the parameter */
 273:Drivers/STM32C0xx_HAL_Driver/Src/stm32c0xx_hal_exti.c ****   assert_param(IS_EXTI_LINE(hexti->Line));
 343              		.loc 1 273 3 is_stmt 1 view .LVU122
 274:Drivers/STM32C0xx_HAL_Driver/Src/stm32c0xx_hal_exti.c **** 
 275:Drivers/STM32C0xx_HAL_Driver/Src/stm32c0xx_hal_exti.c ****   /* Store handle line number to configiguration structure */
 276:Drivers/STM32C0xx_HAL_Driver/Src/stm32c0xx_hal_exti.c ****   pExtiConfig->Line = hexti->Line;
 344              		.loc 1 276 3 view .LVU123
 345              		.loc 1 276 28 is_stmt 0 view .LVU124
 346 000a 0468     		ldr	r4, [r0]
 347              		.loc 1 276 21 view .LVU125
 348 000c 0C60     		str	r4, [r1]
 277:Drivers/STM32C0xx_HAL_Driver/Src/stm32c0xx_hal_exti.c **** 
 278:Drivers/STM32C0xx_HAL_Driver/Src/stm32c0xx_hal_exti.c ****   /* compute line register offset and line mask */
 279:Drivers/STM32C0xx_HAL_Driver/Src/stm32c0xx_hal_exti.c ****   offset = ((pExtiConfig->Line & EXTI_REG_MASK) >> EXTI_REG_SHIFT);
 349              		.loc 1 279 3 is_stmt 1 view .LVU126
 350              		.loc 1 279 49 is_stmt 0 view .LVU127
 351 000e 220C     		lsrs	r2, r4, #16
 352              		.loc 1 279 10 view .LVU128
 353 0010 0123     		movs	r3, #1
 354 0012 1A40     		ands	r2, r3
 355              	.LVL45:
 280:Drivers/STM32C0xx_HAL_Driver/Src/stm32c0xx_hal_exti.c ****   linepos = (pExtiConfig->Line & EXTI_PIN_MASK);
 356              		.loc 1 280 3 is_stmt 1 view .LVU129
 357              		.loc 1 280 11 is_stmt 0 view .LVU130
 358 0014 1F25     		movs	r5, #31
 359 0016 2540     		ands	r5, r4
 360              	.LVL46:
 281:Drivers/STM32C0xx_HAL_Driver/Src/stm32c0xx_hal_exti.c ****   maskline = (1UL << linepos);
 361              		.loc 1 281 3 is_stmt 1 view .LVU131
 362              		.loc 1 281 12 is_stmt 0 view .LVU132
 363 0018 AB40     		lsls	r3, r3, r5
 364              	.LVL47:
 282:Drivers/STM32C0xx_HAL_Driver/Src/stm32c0xx_hal_exti.c **** 
 283:Drivers/STM32C0xx_HAL_Driver/Src/stm32c0xx_hal_exti.c ****   /* 1] Get core mode : interrupt */
 284:Drivers/STM32C0xx_HAL_Driver/Src/stm32c0xx_hal_exti.c ****   regaddr = (__IO uint32_t *)(&EXTI->IMR1 + (EXTI_MODE_OFFSET * offset));
 365              		.loc 1 284 3 is_stmt 1 view .LVU133
 366              		.loc 1 284 13 is_stmt 0 view .LVU134
 367 001a 1001     		lsls	r0, r2, #4
 368              	.LVL48:
 369              		.loc 1 284 11 view .LVU135
 370 001c 244E     		ldr	r6, .L29
 371 001e 8619     		adds	r6, r0, r6
ARM GAS  /var/folders/nl/kwfz41d55ync1k9vlz8wmkc80000gn/T//ccq26bS7.s 			page 13


 372              	.LVL49:
 285:Drivers/STM32C0xx_HAL_Driver/Src/stm32c0xx_hal_exti.c ****   regval = *regaddr;
 373              		.loc 1 285 3 is_stmt 1 view .LVU136
 374              		.loc 1 285 10 is_stmt 0 view .LVU137
 375 0020 3668     		ldr	r6, [r6]
 376              	.LVL50:
 286:Drivers/STM32C0xx_HAL_Driver/Src/stm32c0xx_hal_exti.c **** 
 287:Drivers/STM32C0xx_HAL_Driver/Src/stm32c0xx_hal_exti.c ****   /* Check if selected line is enable */
 288:Drivers/STM32C0xx_HAL_Driver/Src/stm32c0xx_hal_exti.c ****   if ((regval & maskline) != 0U)
 377              		.loc 1 288 3 is_stmt 1 view .LVU138
 378              		.loc 1 288 6 is_stmt 0 view .LVU139
 379 0022 1E42     		tst	r6, r3
 380 0024 2AD0     		beq	.L19
 289:Drivers/STM32C0xx_HAL_Driver/Src/stm32c0xx_hal_exti.c ****   {
 290:Drivers/STM32C0xx_HAL_Driver/Src/stm32c0xx_hal_exti.c ****     pExtiConfig->Mode = EXTI_MODE_INTERRUPT;
 381              		.loc 1 290 5 is_stmt 1 view .LVU140
 382              		.loc 1 290 23 is_stmt 0 view .LVU141
 383 0026 0126     		movs	r6, #1
 384              	.LVL51:
 385              		.loc 1 290 23 view .LVU142
 386 0028 4E60     		str	r6, [r1, #4]
 387              	.L20:
 291:Drivers/STM32C0xx_HAL_Driver/Src/stm32c0xx_hal_exti.c ****   }
 292:Drivers/STM32C0xx_HAL_Driver/Src/stm32c0xx_hal_exti.c ****   else
 293:Drivers/STM32C0xx_HAL_Driver/Src/stm32c0xx_hal_exti.c ****   {
 294:Drivers/STM32C0xx_HAL_Driver/Src/stm32c0xx_hal_exti.c ****     pExtiConfig->Mode = EXTI_MODE_NONE;
 295:Drivers/STM32C0xx_HAL_Driver/Src/stm32c0xx_hal_exti.c ****   }
 296:Drivers/STM32C0xx_HAL_Driver/Src/stm32c0xx_hal_exti.c **** 
 297:Drivers/STM32C0xx_HAL_Driver/Src/stm32c0xx_hal_exti.c ****   /* Get event mode */
 298:Drivers/STM32C0xx_HAL_Driver/Src/stm32c0xx_hal_exti.c ****   regaddr = (__IO uint32_t *)(&EXTI->EMR1 + (EXTI_MODE_OFFSET * offset));
 388              		.loc 1 298 3 is_stmt 1 view .LVU143
 389              		.loc 1 298 11 is_stmt 0 view .LVU144
 390 002a 224E     		ldr	r6, .L29+4
 391 002c B446     		mov	ip, r6
 392 002e 6044     		add	r0, r0, ip
 393              	.LVL52:
 299:Drivers/STM32C0xx_HAL_Driver/Src/stm32c0xx_hal_exti.c ****   regval = *regaddr;
 394              		.loc 1 299 3 is_stmt 1 view .LVU145
 395              		.loc 1 299 10 is_stmt 0 view .LVU146
 396 0030 0068     		ldr	r0, [r0]
 397              	.LVL53:
 300:Drivers/STM32C0xx_HAL_Driver/Src/stm32c0xx_hal_exti.c **** 
 301:Drivers/STM32C0xx_HAL_Driver/Src/stm32c0xx_hal_exti.c ****   /* Check if selected line is enable */
 302:Drivers/STM32C0xx_HAL_Driver/Src/stm32c0xx_hal_exti.c ****   if ((regval & maskline) != 0U)
 398              		.loc 1 302 3 is_stmt 1 view .LVU147
 399              		.loc 1 302 6 is_stmt 0 view .LVU148
 400 0032 1842     		tst	r0, r3
 401 0034 03D0     		beq	.L21
 303:Drivers/STM32C0xx_HAL_Driver/Src/stm32c0xx_hal_exti.c ****   {
 304:Drivers/STM32C0xx_HAL_Driver/Src/stm32c0xx_hal_exti.c ****     pExtiConfig->Mode |= EXTI_MODE_EVENT;
 402              		.loc 1 304 5 is_stmt 1 view .LVU149
 403              		.loc 1 304 23 is_stmt 0 view .LVU150
 404 0036 0220     		movs	r0, #2
 405              	.LVL54:
 406              		.loc 1 304 23 view .LVU151
 407 0038 4E68     		ldr	r6, [r1, #4]
 408              	.LVL55:
ARM GAS  /var/folders/nl/kwfz41d55ync1k9vlz8wmkc80000gn/T//ccq26bS7.s 			page 14


 409              		.loc 1 304 23 view .LVU152
 410 003a 3043     		orrs	r0, r6
 411 003c 4860     		str	r0, [r1, #4]
 412              	.L21:
 305:Drivers/STM32C0xx_HAL_Driver/Src/stm32c0xx_hal_exti.c ****   }
 306:Drivers/STM32C0xx_HAL_Driver/Src/stm32c0xx_hal_exti.c **** 
 307:Drivers/STM32C0xx_HAL_Driver/Src/stm32c0xx_hal_exti.c ****   /* 2] Get trigger for configurable lines : rising */
 308:Drivers/STM32C0xx_HAL_Driver/Src/stm32c0xx_hal_exti.c ****   if ((pExtiConfig->Line & EXTI_CONFIG) != 0U)
 413              		.loc 1 308 3 is_stmt 1 view .LVU153
 414              		.loc 1 308 6 is_stmt 0 view .LVU154
 415 003e A001     		lsls	r0, r4, #6
 416 0040 33D5     		bpl	.L26
 309:Drivers/STM32C0xx_HAL_Driver/Src/stm32c0xx_hal_exti.c ****   {
 310:Drivers/STM32C0xx_HAL_Driver/Src/stm32c0xx_hal_exti.c ****     regaddr = (__IO uint32_t *)(&EXTI->RTSR1 + (EXTI_CONFIG_OFFSET * offset));
 417              		.loc 1 310 5 is_stmt 1 view .LVU155
 418              		.loc 1 310 15 is_stmt 0 view .LVU156
 419 0042 5201     		lsls	r2, r2, #5
 420              	.LVL56:
 421              		.loc 1 310 13 view .LVU157
 422 0044 1C48     		ldr	r0, .L29+8
 423 0046 1018     		adds	r0, r2, r0
 424              	.LVL57:
 311:Drivers/STM32C0xx_HAL_Driver/Src/stm32c0xx_hal_exti.c ****     regval = *regaddr;
 425              		.loc 1 311 5 is_stmt 1 view .LVU158
 426              		.loc 1 311 12 is_stmt 0 view .LVU159
 427 0048 0668     		ldr	r6, [r0]
 428              	.LVL58:
 312:Drivers/STM32C0xx_HAL_Driver/Src/stm32c0xx_hal_exti.c **** 
 313:Drivers/STM32C0xx_HAL_Driver/Src/stm32c0xx_hal_exti.c ****     /* Get default Trigger and GPIOSel configuration */
 314:Drivers/STM32C0xx_HAL_Driver/Src/stm32c0xx_hal_exti.c ****     pExtiConfig->Trigger = EXTI_TRIGGER_NONE;
 429              		.loc 1 314 5 is_stmt 1 view .LVU160
 430              		.loc 1 314 26 is_stmt 0 view .LVU161
 431 004a 0020     		movs	r0, #0
 432              	.LVL59:
 433              		.loc 1 314 26 view .LVU162
 434 004c 8860     		str	r0, [r1, #8]
 315:Drivers/STM32C0xx_HAL_Driver/Src/stm32c0xx_hal_exti.c ****     pExtiConfig->GPIOSel = 0x00u;
 435              		.loc 1 315 5 is_stmt 1 view .LVU163
 436              		.loc 1 315 26 is_stmt 0 view .LVU164
 437 004e C860     		str	r0, [r1, #12]
 316:Drivers/STM32C0xx_HAL_Driver/Src/stm32c0xx_hal_exti.c **** 
 317:Drivers/STM32C0xx_HAL_Driver/Src/stm32c0xx_hal_exti.c ****     /* Check if configuration of selected line is enable */
 318:Drivers/STM32C0xx_HAL_Driver/Src/stm32c0xx_hal_exti.c ****     if ((regval & maskline) != 0U)
 438              		.loc 1 318 5 is_stmt 1 view .LVU165
 439              		.loc 1 318 8 is_stmt 0 view .LVU166
 440 0050 1E42     		tst	r6, r3
 441 0052 01D0     		beq	.L22
 319:Drivers/STM32C0xx_HAL_Driver/Src/stm32c0xx_hal_exti.c ****     {
 320:Drivers/STM32C0xx_HAL_Driver/Src/stm32c0xx_hal_exti.c ****       pExtiConfig->Trigger = EXTI_TRIGGER_RISING;
 442              		.loc 1 320 7 is_stmt 1 view .LVU167
 443              		.loc 1 320 28 is_stmt 0 view .LVU168
 444 0054 0130     		adds	r0, r0, #1
 445 0056 8860     		str	r0, [r1, #8]
 446              	.L22:
 321:Drivers/STM32C0xx_HAL_Driver/Src/stm32c0xx_hal_exti.c ****     }
 322:Drivers/STM32C0xx_HAL_Driver/Src/stm32c0xx_hal_exti.c **** 
 323:Drivers/STM32C0xx_HAL_Driver/Src/stm32c0xx_hal_exti.c ****     /* Get falling configuration */
ARM GAS  /var/folders/nl/kwfz41d55ync1k9vlz8wmkc80000gn/T//ccq26bS7.s 			page 15


 324:Drivers/STM32C0xx_HAL_Driver/Src/stm32c0xx_hal_exti.c ****     regaddr = (__IO uint32_t *)(&EXTI->FTSR1 + (EXTI_CONFIG_OFFSET * offset));
 447              		.loc 1 324 5 is_stmt 1 view .LVU169
 448              		.loc 1 324 13 is_stmt 0 view .LVU170
 449 0058 1848     		ldr	r0, .L29+12
 450 005a 8446     		mov	ip, r0
 451 005c 6244     		add	r2, r2, ip
 452              	.LVL60:
 325:Drivers/STM32C0xx_HAL_Driver/Src/stm32c0xx_hal_exti.c ****     regval = *regaddr;
 453              		.loc 1 325 5 is_stmt 1 view .LVU171
 454              		.loc 1 325 12 is_stmt 0 view .LVU172
 455 005e 1268     		ldr	r2, [r2]
 456              	.LVL61:
 326:Drivers/STM32C0xx_HAL_Driver/Src/stm32c0xx_hal_exti.c **** 
 327:Drivers/STM32C0xx_HAL_Driver/Src/stm32c0xx_hal_exti.c ****     /* Check if configuration of selected line is enable */
 328:Drivers/STM32C0xx_HAL_Driver/Src/stm32c0xx_hal_exti.c ****     if ((regval & maskline) != 0U)
 457              		.loc 1 328 5 is_stmt 1 view .LVU173
 458              		.loc 1 328 8 is_stmt 0 view .LVU174
 459 0060 1A42     		tst	r2, r3
 460 0062 03D0     		beq	.L23
 329:Drivers/STM32C0xx_HAL_Driver/Src/stm32c0xx_hal_exti.c ****     {
 330:Drivers/STM32C0xx_HAL_Driver/Src/stm32c0xx_hal_exti.c ****       pExtiConfig->Trigger |= EXTI_TRIGGER_FALLING;
 461              		.loc 1 330 7 is_stmt 1 view .LVU175
 462              		.loc 1 330 28 is_stmt 0 view .LVU176
 463 0064 0223     		movs	r3, #2
 464              	.LVL62:
 465              		.loc 1 330 28 view .LVU177
 466 0066 8A68     		ldr	r2, [r1, #8]
 467              	.LVL63:
 468              		.loc 1 330 28 view .LVU178
 469 0068 1343     		orrs	r3, r2
 470 006a 8B60     		str	r3, [r1, #8]
 471              	.L23:
 331:Drivers/STM32C0xx_HAL_Driver/Src/stm32c0xx_hal_exti.c ****     }
 332:Drivers/STM32C0xx_HAL_Driver/Src/stm32c0xx_hal_exti.c **** 
 333:Drivers/STM32C0xx_HAL_Driver/Src/stm32c0xx_hal_exti.c ****     /* Get Gpio port selection for gpio lines */
 334:Drivers/STM32C0xx_HAL_Driver/Src/stm32c0xx_hal_exti.c ****     if ((pExtiConfig->Line & EXTI_GPIO) == EXTI_GPIO)
 472              		.loc 1 334 5 is_stmt 1 view .LVU179
 473              		.loc 1 334 28 is_stmt 0 view .LVU180
 474 006c C023     		movs	r3, #192
 475 006e DB04     		lsls	r3, r3, #19
 476 0070 2200     		movs	r2, r4
 477 0072 1A40     		ands	r2, r3
 478              		.loc 1 334 8 view .LVU181
 479 0074 9A42     		cmp	r2, r3
 480 0076 04D0     		beq	.L28
 335:Drivers/STM32C0xx_HAL_Driver/Src/stm32c0xx_hal_exti.c ****     {
 336:Drivers/STM32C0xx_HAL_Driver/Src/stm32c0xx_hal_exti.c ****       assert_param(IS_EXTI_GPIO_PIN(linepos));
 337:Drivers/STM32C0xx_HAL_Driver/Src/stm32c0xx_hal_exti.c **** 
 338:Drivers/STM32C0xx_HAL_Driver/Src/stm32c0xx_hal_exti.c ****       regval = EXTI->EXTICR[(linepos >> 2U) & 0x03UL];
 339:Drivers/STM32C0xx_HAL_Driver/Src/stm32c0xx_hal_exti.c ****       pExtiConfig->GPIOSel = (regval >> (EXTI_EXTICR1_EXTI1_Pos * (linepos & 0x03u))) & EXTI_EXTICR
 340:Drivers/STM32C0xx_HAL_Driver/Src/stm32c0xx_hal_exti.c ****     }
 341:Drivers/STM32C0xx_HAL_Driver/Src/stm32c0xx_hal_exti.c ****   }
 342:Drivers/STM32C0xx_HAL_Driver/Src/stm32c0xx_hal_exti.c **** 
 343:Drivers/STM32C0xx_HAL_Driver/Src/stm32c0xx_hal_exti.c ****   return HAL_OK;
 481              		.loc 1 343 10 view .LVU182
 482 0078 0020     		movs	r0, #0
 483              	.LVL64:
ARM GAS  /var/folders/nl/kwfz41d55ync1k9vlz8wmkc80000gn/T//ccq26bS7.s 			page 16


 484              		.loc 1 343 10 view .LVU183
 485 007a 17E0     		b	.L18
 486              	.LVL65:
 487              	.L19:
 294:Drivers/STM32C0xx_HAL_Driver/Src/stm32c0xx_hal_exti.c ****   }
 488              		.loc 1 294 5 is_stmt 1 view .LVU184
 294:Drivers/STM32C0xx_HAL_Driver/Src/stm32c0xx_hal_exti.c ****   }
 489              		.loc 1 294 23 is_stmt 0 view .LVU185
 490 007c 0026     		movs	r6, #0
 491              	.LVL66:
 294:Drivers/STM32C0xx_HAL_Driver/Src/stm32c0xx_hal_exti.c ****   }
 492              		.loc 1 294 23 view .LVU186
 493 007e 4E60     		str	r6, [r1, #4]
 494 0080 D3E7     		b	.L20
 495              	.LVL67:
 496              	.L28:
 336:Drivers/STM32C0xx_HAL_Driver/Src/stm32c0xx_hal_exti.c **** 
 497              		.loc 1 336 7 is_stmt 1 view .LVU187
 338:Drivers/STM32C0xx_HAL_Driver/Src/stm32c0xx_hal_exti.c ****       pExtiConfig->GPIOSel = (regval >> (EXTI_EXTICR1_EXTI1_Pos * (linepos & 0x03u))) & EXTI_EXTICR
 498              		.loc 1 338 7 view .LVU188
 338:Drivers/STM32C0xx_HAL_Driver/Src/stm32c0xx_hal_exti.c ****       pExtiConfig->GPIOSel = (regval >> (EXTI_EXTICR1_EXTI1_Pos * (linepos & 0x03u))) & EXTI_EXTICR
 499              		.loc 1 338 38 is_stmt 0 view .LVU189
 500 0082 AB08     		lsrs	r3, r5, #2
 338:Drivers/STM32C0xx_HAL_Driver/Src/stm32c0xx_hal_exti.c ****       pExtiConfig->GPIOSel = (regval >> (EXTI_EXTICR1_EXTI1_Pos * (linepos & 0x03u))) & EXTI_EXTICR
 501              		.loc 1 338 45 view .LVU190
 502 0084 0322     		movs	r2, #3
 503 0086 1340     		ands	r3, r2
 338:Drivers/STM32C0xx_HAL_Driver/Src/stm32c0xx_hal_exti.c ****       pExtiConfig->GPIOSel = (regval >> (EXTI_EXTICR1_EXTI1_Pos * (linepos & 0x03u))) & EXTI_EXTICR
 504              		.loc 1 338 14 view .LVU191
 505 0088 1833     		adds	r3, r3, #24
 506 008a 9B00     		lsls	r3, r3, #2
 507 008c 0A48     		ldr	r0, .L29+8
 508              	.LVL68:
 338:Drivers/STM32C0xx_HAL_Driver/Src/stm32c0xx_hal_exti.c ****       pExtiConfig->GPIOSel = (regval >> (EXTI_EXTICR1_EXTI1_Pos * (linepos & 0x03u))) & EXTI_EXTICR
 509              		.loc 1 338 14 view .LVU192
 510 008e 1B58     		ldr	r3, [r3, r0]
 511              	.LVL69:
 339:Drivers/STM32C0xx_HAL_Driver/Src/stm32c0xx_hal_exti.c ****     }
 512              		.loc 1 339 7 is_stmt 1 view .LVU193
 339:Drivers/STM32C0xx_HAL_Driver/Src/stm32c0xx_hal_exti.c ****     }
 513              		.loc 1 339 76 is_stmt 0 view .LVU194
 514 0090 2240     		ands	r2, r4
 339:Drivers/STM32C0xx_HAL_Driver/Src/stm32c0xx_hal_exti.c ****     }
 515              		.loc 1 339 65 view .LVU195
 516 0092 D200     		lsls	r2, r2, #3
 339:Drivers/STM32C0xx_HAL_Driver/Src/stm32c0xx_hal_exti.c ****     }
 517              		.loc 1 339 38 view .LVU196
 518 0094 D340     		lsrs	r3, r3, r2
 519              	.LVL70:
 339:Drivers/STM32C0xx_HAL_Driver/Src/stm32c0xx_hal_exti.c ****     }
 520              		.loc 1 339 38 view .LVU197
 521 0096 1A00     		movs	r2, r3
 339:Drivers/STM32C0xx_HAL_Driver/Src/stm32c0xx_hal_exti.c ****     }
 522              		.loc 1 339 87 view .LVU198
 523 0098 0723     		movs	r3, #7
 524 009a 1340     		ands	r3, r2
 339:Drivers/STM32C0xx_HAL_Driver/Src/stm32c0xx_hal_exti.c ****     }
ARM GAS  /var/folders/nl/kwfz41d55ync1k9vlz8wmkc80000gn/T//ccq26bS7.s 			page 17


 525              		.loc 1 339 28 view .LVU199
 526 009c CB60     		str	r3, [r1, #12]
 527              		.loc 1 343 10 view .LVU200
 528 009e 0020     		movs	r0, #0
 529 00a0 04E0     		b	.L18
 530              	.LVL71:
 531              	.L24:
 269:Drivers/STM32C0xx_HAL_Driver/Src/stm32c0xx_hal_exti.c ****   }
 532              		.loc 1 269 12 view .LVU201
 533 00a2 0120     		movs	r0, #1
 534              	.LVL72:
 269:Drivers/STM32C0xx_HAL_Driver/Src/stm32c0xx_hal_exti.c ****   }
 535              		.loc 1 269 12 view .LVU202
 536 00a4 02E0     		b	.L18
 537              	.LVL73:
 538              	.L25:
 269:Drivers/STM32C0xx_HAL_Driver/Src/stm32c0xx_hal_exti.c ****   }
 539              		.loc 1 269 12 view .LVU203
 540 00a6 0120     		movs	r0, #1
 541              	.LVL74:
 269:Drivers/STM32C0xx_HAL_Driver/Src/stm32c0xx_hal_exti.c ****   }
 542              		.loc 1 269 12 view .LVU204
 543 00a8 00E0     		b	.L18
 544              	.LVL75:
 545              	.L26:
 546              		.loc 1 343 10 view .LVU205
 547 00aa 0020     		movs	r0, #0
 548              	.LVL76:
 549              	.L18:
 344:Drivers/STM32C0xx_HAL_Driver/Src/stm32c0xx_hal_exti.c **** }
 550              		.loc 1 344 1 view .LVU206
 551              		@ sp needed
 552 00ac 70BD     		pop	{r4, r5, r6, pc}
 553              	.L30:
 554 00ae C046     		.align	2
 555              	.L29:
 556 00b0 80180240 		.word	1073879168
 557 00b4 84180240 		.word	1073879172
 558 00b8 00180240 		.word	1073879040
 559 00bc 04180240 		.word	1073879044
 560              		.cfi_endproc
 561              	.LFE215:
 563              		.section	.text.HAL_EXTI_ClearConfigLine,"ax",%progbits
 564              		.align	1
 565              		.global	HAL_EXTI_ClearConfigLine
 566              		.syntax unified
 567              		.code	16
 568              		.thumb_func
 570              	HAL_EXTI_ClearConfigLine:
 571              	.LVL77:
 572              	.LFB216:
 345:Drivers/STM32C0xx_HAL_Driver/Src/stm32c0xx_hal_exti.c **** 
 346:Drivers/STM32C0xx_HAL_Driver/Src/stm32c0xx_hal_exti.c **** 
 347:Drivers/STM32C0xx_HAL_Driver/Src/stm32c0xx_hal_exti.c **** /**
 348:Drivers/STM32C0xx_HAL_Driver/Src/stm32c0xx_hal_exti.c ****   * @brief  Clear whole configuration of a dedicated Exti line.
 349:Drivers/STM32C0xx_HAL_Driver/Src/stm32c0xx_hal_exti.c ****   * @param  hexti Exti handle.
 350:Drivers/STM32C0xx_HAL_Driver/Src/stm32c0xx_hal_exti.c ****   * @retval HAL Status.
ARM GAS  /var/folders/nl/kwfz41d55ync1k9vlz8wmkc80000gn/T//ccq26bS7.s 			page 18


 351:Drivers/STM32C0xx_HAL_Driver/Src/stm32c0xx_hal_exti.c ****   */
 352:Drivers/STM32C0xx_HAL_Driver/Src/stm32c0xx_hal_exti.c **** HAL_StatusTypeDef HAL_EXTI_ClearConfigLine(const EXTI_HandleTypeDef *hexti)
 353:Drivers/STM32C0xx_HAL_Driver/Src/stm32c0xx_hal_exti.c **** {
 573              		.loc 1 353 1 is_stmt 1 view -0
 574              		.cfi_startproc
 575              		@ args = 0, pretend = 0, frame = 0
 576              		@ frame_needed = 0, uses_anonymous_args = 0
 577              		.loc 1 353 1 is_stmt 0 view .LVU208
 578 0000 F0B5     		push	{r4, r5, r6, r7, lr}
 579              	.LCFI2:
 580              		.cfi_def_cfa_offset 20
 581              		.cfi_offset 4, -20
 582              		.cfi_offset 5, -16
 583              		.cfi_offset 6, -12
 584              		.cfi_offset 7, -8
 585              		.cfi_offset 14, -4
 586 0002 C646     		mov	lr, r8
 587 0004 00B5     		push	{lr}
 588              	.LCFI3:
 589              		.cfi_def_cfa_offset 24
 590              		.cfi_offset 8, -24
 354:Drivers/STM32C0xx_HAL_Driver/Src/stm32c0xx_hal_exti.c ****   __IO uint32_t *regaddr;
 591              		.loc 1 354 3 is_stmt 1 view .LVU209
 355:Drivers/STM32C0xx_HAL_Driver/Src/stm32c0xx_hal_exti.c ****   uint32_t regval;
 592              		.loc 1 355 3 view .LVU210
 356:Drivers/STM32C0xx_HAL_Driver/Src/stm32c0xx_hal_exti.c ****   uint32_t linepos;
 593              		.loc 1 356 3 view .LVU211
 357:Drivers/STM32C0xx_HAL_Driver/Src/stm32c0xx_hal_exti.c ****   uint32_t maskline;
 594              		.loc 1 357 3 view .LVU212
 358:Drivers/STM32C0xx_HAL_Driver/Src/stm32c0xx_hal_exti.c ****   uint32_t offset;
 595              		.loc 1 358 3 view .LVU213
 359:Drivers/STM32C0xx_HAL_Driver/Src/stm32c0xx_hal_exti.c **** 
 360:Drivers/STM32C0xx_HAL_Driver/Src/stm32c0xx_hal_exti.c ****   /* Check null pointer */
 361:Drivers/STM32C0xx_HAL_Driver/Src/stm32c0xx_hal_exti.c ****   if (hexti == NULL)
 596              		.loc 1 361 3 view .LVU214
 597              		.loc 1 361 6 is_stmt 0 view .LVU215
 598 0006 0028     		cmp	r0, #0
 599 0008 3FD0     		beq	.L33
 362:Drivers/STM32C0xx_HAL_Driver/Src/stm32c0xx_hal_exti.c ****   {
 363:Drivers/STM32C0xx_HAL_Driver/Src/stm32c0xx_hal_exti.c ****     return HAL_ERROR;
 364:Drivers/STM32C0xx_HAL_Driver/Src/stm32c0xx_hal_exti.c ****   }
 365:Drivers/STM32C0xx_HAL_Driver/Src/stm32c0xx_hal_exti.c **** 
 366:Drivers/STM32C0xx_HAL_Driver/Src/stm32c0xx_hal_exti.c ****   /* Check the parameter */
 367:Drivers/STM32C0xx_HAL_Driver/Src/stm32c0xx_hal_exti.c ****   assert_param(IS_EXTI_LINE(hexti->Line));
 600              		.loc 1 367 3 is_stmt 1 view .LVU216
 368:Drivers/STM32C0xx_HAL_Driver/Src/stm32c0xx_hal_exti.c **** 
 369:Drivers/STM32C0xx_HAL_Driver/Src/stm32c0xx_hal_exti.c ****   /* compute line register offset and line mask */
 370:Drivers/STM32C0xx_HAL_Driver/Src/stm32c0xx_hal_exti.c ****   offset = ((hexti->Line & EXTI_REG_MASK) >> EXTI_REG_SHIFT);
 601              		.loc 1 370 3 view .LVU217
 602              		.loc 1 370 19 is_stmt 0 view .LVU218
 603 000a 0668     		ldr	r6, [r0]
 604              		.loc 1 370 43 view .LVU219
 605 000c 330C     		lsrs	r3, r6, #16
 606              		.loc 1 370 10 view .LVU220
 607 000e 0122     		movs	r2, #1
 608 0010 1340     		ands	r3, r2
 609              	.LVL78:
ARM GAS  /var/folders/nl/kwfz41d55ync1k9vlz8wmkc80000gn/T//ccq26bS7.s 			page 19


 371:Drivers/STM32C0xx_HAL_Driver/Src/stm32c0xx_hal_exti.c ****   linepos = (hexti->Line & EXTI_PIN_MASK);
 610              		.loc 1 371 3 is_stmt 1 view .LVU221
 611              		.loc 1 371 11 is_stmt 0 view .LVU222
 612 0012 1F24     		movs	r4, #31
 613 0014 3440     		ands	r4, r6
 614              	.LVL79:
 372:Drivers/STM32C0xx_HAL_Driver/Src/stm32c0xx_hal_exti.c ****   maskline = (1UL << linepos);
 615              		.loc 1 372 3 is_stmt 1 view .LVU223
 616              		.loc 1 372 12 is_stmt 0 view .LVU224
 617 0016 A240     		lsls	r2, r2, r4
 618              	.LVL80:
 373:Drivers/STM32C0xx_HAL_Driver/Src/stm32c0xx_hal_exti.c **** 
 374:Drivers/STM32C0xx_HAL_Driver/Src/stm32c0xx_hal_exti.c ****   /* 1] Clear interrupt mode */
 375:Drivers/STM32C0xx_HAL_Driver/Src/stm32c0xx_hal_exti.c ****   regaddr = (__IO uint32_t *)(&EXTI->IMR1 + (EXTI_MODE_OFFSET * offset));
 619              		.loc 1 375 3 is_stmt 1 view .LVU225
 620              		.loc 1 375 13 is_stmt 0 view .LVU226
 621 0018 1901     		lsls	r1, r3, #4
 622              		.loc 1 375 11 view .LVU227
 623 001a 1F4D     		ldr	r5, .L37
 624 001c AC46     		mov	ip, r5
 625 001e 8C44     		add	ip, ip, r1
 626              	.LVL81:
 376:Drivers/STM32C0xx_HAL_Driver/Src/stm32c0xx_hal_exti.c ****   regval = (*regaddr & ~maskline);
 627              		.loc 1 376 3 is_stmt 1 view .LVU228
 628              		.loc 1 376 13 is_stmt 0 view .LVU229
 629 0020 6546     		mov	r5, ip
 630 0022 2D68     		ldr	r5, [r5]
 631              		.loc 1 376 24 view .LVU230
 632 0024 D743     		mvns	r7, r2
 633 0026 B846     		mov	r8, r7
 634              		.loc 1 376 10 view .LVU231
 635 0028 9543     		bics	r5, r2
 636              	.LVL82:
 377:Drivers/STM32C0xx_HAL_Driver/Src/stm32c0xx_hal_exti.c ****   *regaddr = regval;
 637              		.loc 1 377 3 is_stmt 1 view .LVU232
 638              		.loc 1 377 12 is_stmt 0 view .LVU233
 639 002a 6746     		mov	r7, ip
 640 002c 3D60     		str	r5, [r7]
 378:Drivers/STM32C0xx_HAL_Driver/Src/stm32c0xx_hal_exti.c **** 
 379:Drivers/STM32C0xx_HAL_Driver/Src/stm32c0xx_hal_exti.c ****   /* 2] Clear event mode */
 380:Drivers/STM32C0xx_HAL_Driver/Src/stm32c0xx_hal_exti.c ****   regaddr = (__IO uint32_t *)(&EXTI->EMR1 + (EXTI_MODE_OFFSET * offset));
 641              		.loc 1 380 3 is_stmt 1 view .LVU234
 642              		.loc 1 380 11 is_stmt 0 view .LVU235
 643 002e 1B4D     		ldr	r5, .L37+4
 644              	.LVL83:
 645              		.loc 1 380 11 view .LVU236
 646 0030 AC46     		mov	ip, r5
 647              	.LVL84:
 648              		.loc 1 380 11 view .LVU237
 649 0032 6144     		add	r1, r1, ip
 650              	.LVL85:
 381:Drivers/STM32C0xx_HAL_Driver/Src/stm32c0xx_hal_exti.c ****   regval = (*regaddr & ~maskline);
 651              		.loc 1 381 3 is_stmt 1 view .LVU238
 652              		.loc 1 381 13 is_stmt 0 view .LVU239
 653 0034 0D68     		ldr	r5, [r1]
 654              		.loc 1 381 10 view .LVU240
 655 0036 9543     		bics	r5, r2
ARM GAS  /var/folders/nl/kwfz41d55ync1k9vlz8wmkc80000gn/T//ccq26bS7.s 			page 20


 656              	.LVL86:
 382:Drivers/STM32C0xx_HAL_Driver/Src/stm32c0xx_hal_exti.c ****   *regaddr = regval;
 657              		.loc 1 382 3 is_stmt 1 view .LVU241
 658              		.loc 1 382 12 is_stmt 0 view .LVU242
 659 0038 0D60     		str	r5, [r1]
 383:Drivers/STM32C0xx_HAL_Driver/Src/stm32c0xx_hal_exti.c **** 
 384:Drivers/STM32C0xx_HAL_Driver/Src/stm32c0xx_hal_exti.c ****   /* 3] Clear triggers in case of configurable lines */
 385:Drivers/STM32C0xx_HAL_Driver/Src/stm32c0xx_hal_exti.c ****   if ((hexti->Line & EXTI_CONFIG) != 0U)
 660              		.loc 1 385 3 is_stmt 1 view .LVU243
 661              		.loc 1 385 6 is_stmt 0 view .LVU244
 662 003a 0268     		ldr	r2, [r0]
 663              	.LVL87:
 664              		.loc 1 385 6 view .LVU245
 665 003c 9201     		lsls	r2, r2, #6
 666 003e 26D5     		bpl	.L34
 386:Drivers/STM32C0xx_HAL_Driver/Src/stm32c0xx_hal_exti.c ****   {
 387:Drivers/STM32C0xx_HAL_Driver/Src/stm32c0xx_hal_exti.c ****     regaddr = (__IO uint32_t *)(&EXTI->RTSR1 + (EXTI_CONFIG_OFFSET * offset));
 667              		.loc 1 387 5 is_stmt 1 view .LVU246
 668              		.loc 1 387 15 is_stmt 0 view .LVU247
 669 0040 5B01     		lsls	r3, r3, #5
 670              	.LVL88:
 671              		.loc 1 387 13 view .LVU248
 672 0042 174A     		ldr	r2, .L37+8
 673 0044 9918     		adds	r1, r3, r2
 674              	.LVL89:
 388:Drivers/STM32C0xx_HAL_Driver/Src/stm32c0xx_hal_exti.c ****     regval = (*regaddr & ~maskline);
 675              		.loc 1 388 5 is_stmt 1 view .LVU249
 676              		.loc 1 388 15 is_stmt 0 view .LVU250
 677 0046 0A68     		ldr	r2, [r1]
 678              		.loc 1 388 12 view .LVU251
 679 0048 4546     		mov	r5, r8
 680              	.LVL90:
 681              		.loc 1 388 12 view .LVU252
 682 004a 2A40     		ands	r2, r5
 683              	.LVL91:
 389:Drivers/STM32C0xx_HAL_Driver/Src/stm32c0xx_hal_exti.c ****     *regaddr = regval;
 684              		.loc 1 389 5 is_stmt 1 view .LVU253
 685              		.loc 1 389 14 is_stmt 0 view .LVU254
 686 004c 0A60     		str	r2, [r1]
 390:Drivers/STM32C0xx_HAL_Driver/Src/stm32c0xx_hal_exti.c **** 
 391:Drivers/STM32C0xx_HAL_Driver/Src/stm32c0xx_hal_exti.c ****     regaddr = (__IO uint32_t *)(&EXTI->FTSR1 + (EXTI_CONFIG_OFFSET * offset));
 687              		.loc 1 391 5 is_stmt 1 view .LVU255
 688              		.loc 1 391 13 is_stmt 0 view .LVU256
 689 004e 154A     		ldr	r2, .L37+12
 690              	.LVL92:
 691              		.loc 1 391 13 view .LVU257
 692 0050 9446     		mov	ip, r2
 693 0052 6344     		add	r3, r3, ip
 694              	.LVL93:
 392:Drivers/STM32C0xx_HAL_Driver/Src/stm32c0xx_hal_exti.c ****     regval = (*regaddr & ~maskline);
 695              		.loc 1 392 5 is_stmt 1 view .LVU258
 696              		.loc 1 392 15 is_stmt 0 view .LVU259
 697 0054 1A68     		ldr	r2, [r3]
 698              		.loc 1 392 12 view .LVU260
 699 0056 4746     		mov	r7, r8
 700 0058 1740     		ands	r7, r2
 701              	.LVL94:
ARM GAS  /var/folders/nl/kwfz41d55ync1k9vlz8wmkc80000gn/T//ccq26bS7.s 			page 21


 393:Drivers/STM32C0xx_HAL_Driver/Src/stm32c0xx_hal_exti.c ****     *regaddr = regval;
 702              		.loc 1 393 5 is_stmt 1 view .LVU261
 703              		.loc 1 393 14 is_stmt 0 view .LVU262
 704 005a 1F60     		str	r7, [r3]
 394:Drivers/STM32C0xx_HAL_Driver/Src/stm32c0xx_hal_exti.c **** 
 395:Drivers/STM32C0xx_HAL_Driver/Src/stm32c0xx_hal_exti.c ****     /* Get Gpio port selection for gpio lines */
 396:Drivers/STM32C0xx_HAL_Driver/Src/stm32c0xx_hal_exti.c ****     if ((hexti->Line & EXTI_GPIO) == EXTI_GPIO)
 705              		.loc 1 396 5 is_stmt 1 view .LVU263
 706              		.loc 1 396 15 is_stmt 0 view .LVU264
 707 005c 0368     		ldr	r3, [r0]
 708              	.LVL95:
 709              		.loc 1 396 22 view .LVU265
 710 005e C022     		movs	r2, #192
 711 0060 D204     		lsls	r2, r2, #19
 712 0062 1340     		ands	r3, r2
 713              		.loc 1 396 8 view .LVU266
 714 0064 9342     		cmp	r3, r2
 715 0066 01D0     		beq	.L36
 397:Drivers/STM32C0xx_HAL_Driver/Src/stm32c0xx_hal_exti.c ****     {
 398:Drivers/STM32C0xx_HAL_Driver/Src/stm32c0xx_hal_exti.c ****       assert_param(IS_EXTI_GPIO_PIN(linepos));
 399:Drivers/STM32C0xx_HAL_Driver/Src/stm32c0xx_hal_exti.c **** 
 400:Drivers/STM32C0xx_HAL_Driver/Src/stm32c0xx_hal_exti.c ****       regval = EXTI->EXTICR[(linepos >> 2U) & 0x03UL];
 401:Drivers/STM32C0xx_HAL_Driver/Src/stm32c0xx_hal_exti.c ****       regval &= ~(EXTI_EXTICR1_EXTI0 << (EXTI_EXTICR1_EXTI1_Pos * (linepos & 0x03U)));
 402:Drivers/STM32C0xx_HAL_Driver/Src/stm32c0xx_hal_exti.c ****       EXTI->EXTICR[(linepos >> 2U) & 0x03UL] = regval;
 403:Drivers/STM32C0xx_HAL_Driver/Src/stm32c0xx_hal_exti.c ****     }
 404:Drivers/STM32C0xx_HAL_Driver/Src/stm32c0xx_hal_exti.c ****   }
 405:Drivers/STM32C0xx_HAL_Driver/Src/stm32c0xx_hal_exti.c **** 
 406:Drivers/STM32C0xx_HAL_Driver/Src/stm32c0xx_hal_exti.c ****   return HAL_OK;
 716              		.loc 1 406 10 view .LVU267
 717 0068 0020     		movs	r0, #0
 718              	.LVL96:
 719              		.loc 1 406 10 view .LVU268
 720 006a 11E0     		b	.L32
 721              	.LVL97:
 722              	.L36:
 398:Drivers/STM32C0xx_HAL_Driver/Src/stm32c0xx_hal_exti.c **** 
 723              		.loc 1 398 7 is_stmt 1 view .LVU269
 400:Drivers/STM32C0xx_HAL_Driver/Src/stm32c0xx_hal_exti.c ****       regval &= ~(EXTI_EXTICR1_EXTI0 << (EXTI_EXTICR1_EXTI1_Pos * (linepos & 0x03U)));
 724              		.loc 1 400 7 view .LVU270
 400:Drivers/STM32C0xx_HAL_Driver/Src/stm32c0xx_hal_exti.c ****       regval &= ~(EXTI_EXTICR1_EXTI0 << (EXTI_EXTICR1_EXTI1_Pos * (linepos & 0x03U)));
 725              		.loc 1 400 38 is_stmt 0 view .LVU271
 726 006c A408     		lsrs	r4, r4, #2
 727              	.LVL98:
 400:Drivers/STM32C0xx_HAL_Driver/Src/stm32c0xx_hal_exti.c ****       regval &= ~(EXTI_EXTICR1_EXTI0 << (EXTI_EXTICR1_EXTI1_Pos * (linepos & 0x03U)));
 728              		.loc 1 400 45 view .LVU272
 729 006e 0323     		movs	r3, #3
 730 0070 1C40     		ands	r4, r3
 400:Drivers/STM32C0xx_HAL_Driver/Src/stm32c0xx_hal_exti.c ****       regval &= ~(EXTI_EXTICR1_EXTI0 << (EXTI_EXTICR1_EXTI1_Pos * (linepos & 0x03U)));
 731              		.loc 1 400 14 view .LVU273
 732 0072 0B48     		ldr	r0, .L37+8
 733              	.LVL99:
 400:Drivers/STM32C0xx_HAL_Driver/Src/stm32c0xx_hal_exti.c ****       regval &= ~(EXTI_EXTICR1_EXTI0 << (EXTI_EXTICR1_EXTI1_Pos * (linepos & 0x03U)));
 734              		.loc 1 400 14 view .LVU274
 735 0074 1834     		adds	r4, r4, #24
 736 0076 A400     		lsls	r4, r4, #2
 737 0078 2258     		ldr	r2, [r4, r0]
 738              	.LVL100:
ARM GAS  /var/folders/nl/kwfz41d55ync1k9vlz8wmkc80000gn/T//ccq26bS7.s 			page 22


 401:Drivers/STM32C0xx_HAL_Driver/Src/stm32c0xx_hal_exti.c ****       EXTI->EXTICR[(linepos >> 2U) & 0x03UL] = regval;
 739              		.loc 1 401 7 is_stmt 1 view .LVU275
 401:Drivers/STM32C0xx_HAL_Driver/Src/stm32c0xx_hal_exti.c ****       EXTI->EXTICR[(linepos >> 2U) & 0x03UL] = regval;
 740              		.loc 1 401 76 is_stmt 0 view .LVU276
 741 007a 3340     		ands	r3, r6
 401:Drivers/STM32C0xx_HAL_Driver/Src/stm32c0xx_hal_exti.c ****       EXTI->EXTICR[(linepos >> 2U) & 0x03UL] = regval;
 742              		.loc 1 401 65 view .LVU277
 743 007c DB00     		lsls	r3, r3, #3
 401:Drivers/STM32C0xx_HAL_Driver/Src/stm32c0xx_hal_exti.c ****       EXTI->EXTICR[(linepos >> 2U) & 0x03UL] = regval;
 744              		.loc 1 401 38 view .LVU278
 745 007e 0721     		movs	r1, #7
 746              	.LVL101:
 401:Drivers/STM32C0xx_HAL_Driver/Src/stm32c0xx_hal_exti.c ****       EXTI->EXTICR[(linepos >> 2U) & 0x03UL] = regval;
 747              		.loc 1 401 38 view .LVU279
 748 0080 9940     		lsls	r1, r1, r3
 401:Drivers/STM32C0xx_HAL_Driver/Src/stm32c0xx_hal_exti.c ****       EXTI->EXTICR[(linepos >> 2U) & 0x03UL] = regval;
 749              		.loc 1 401 14 view .LVU280
 750 0082 8A43     		bics	r2, r1
 751              	.LVL102:
 402:Drivers/STM32C0xx_HAL_Driver/Src/stm32c0xx_hal_exti.c ****     }
 752              		.loc 1 402 7 is_stmt 1 view .LVU281
 402:Drivers/STM32C0xx_HAL_Driver/Src/stm32c0xx_hal_exti.c ****     }
 753              		.loc 1 402 46 is_stmt 0 view .LVU282
 754 0084 2250     		str	r2, [r4, r0]
 755              		.loc 1 406 10 view .LVU283
 756 0086 0020     		movs	r0, #0
 757 0088 02E0     		b	.L32
 758              	.LVL103:
 759              	.L33:
 363:Drivers/STM32C0xx_HAL_Driver/Src/stm32c0xx_hal_exti.c ****   }
 760              		.loc 1 363 12 view .LVU284
 761 008a 0120     		movs	r0, #1
 762              	.LVL104:
 363:Drivers/STM32C0xx_HAL_Driver/Src/stm32c0xx_hal_exti.c ****   }
 763              		.loc 1 363 12 view .LVU285
 764 008c 00E0     		b	.L32
 765              	.LVL105:
 766              	.L34:
 767              		.loc 1 406 10 view .LVU286
 768 008e 0020     		movs	r0, #0
 769              	.LVL106:
 770              	.L32:
 407:Drivers/STM32C0xx_HAL_Driver/Src/stm32c0xx_hal_exti.c **** }
 771              		.loc 1 407 1 view .LVU287
 772              		@ sp needed
 773 0090 80BC     		pop	{r7}
 774 0092 B846     		mov	r8, r7
 775 0094 F0BD     		pop	{r4, r5, r6, r7, pc}
 776              	.L38:
 777 0096 C046     		.align	2
 778              	.L37:
 779 0098 80180240 		.word	1073879168
 780 009c 84180240 		.word	1073879172
 781 00a0 00180240 		.word	1073879040
 782 00a4 04180240 		.word	1073879044
 783              		.cfi_endproc
 784              	.LFE216:
ARM GAS  /var/folders/nl/kwfz41d55ync1k9vlz8wmkc80000gn/T//ccq26bS7.s 			page 23


 786              		.section	.text.HAL_EXTI_RegisterCallback,"ax",%progbits
 787              		.align	1
 788              		.global	HAL_EXTI_RegisterCallback
 789              		.syntax unified
 790              		.code	16
 791              		.thumb_func
 793              	HAL_EXTI_RegisterCallback:
 794              	.LVL107:
 795              	.LFB217:
 408:Drivers/STM32C0xx_HAL_Driver/Src/stm32c0xx_hal_exti.c **** 
 409:Drivers/STM32C0xx_HAL_Driver/Src/stm32c0xx_hal_exti.c **** 
 410:Drivers/STM32C0xx_HAL_Driver/Src/stm32c0xx_hal_exti.c **** /**
 411:Drivers/STM32C0xx_HAL_Driver/Src/stm32c0xx_hal_exti.c ****   * @brief  Register callback for a dedicaated Exti line.
 412:Drivers/STM32C0xx_HAL_Driver/Src/stm32c0xx_hal_exti.c ****   * @param  hexti Exti handle.
 413:Drivers/STM32C0xx_HAL_Driver/Src/stm32c0xx_hal_exti.c ****   * @param  CallbackID User callback identifier.
 414:Drivers/STM32C0xx_HAL_Driver/Src/stm32c0xx_hal_exti.c ****   *         This parameter can be one of @arg @ref EXTI_CallbackIDTypeDef values.
 415:Drivers/STM32C0xx_HAL_Driver/Src/stm32c0xx_hal_exti.c ****   * @param  pPendingCbfn function pointer to be stored as callback.
 416:Drivers/STM32C0xx_HAL_Driver/Src/stm32c0xx_hal_exti.c ****   * @retval HAL Status.
 417:Drivers/STM32C0xx_HAL_Driver/Src/stm32c0xx_hal_exti.c ****   */
 418:Drivers/STM32C0xx_HAL_Driver/Src/stm32c0xx_hal_exti.c **** HAL_StatusTypeDef HAL_EXTI_RegisterCallback(EXTI_HandleTypeDef *hexti, EXTI_CallbackIDTypeDef Callb
 419:Drivers/STM32C0xx_HAL_Driver/Src/stm32c0xx_hal_exti.c ****                                             void (*pPendingCbfn)(void))
 420:Drivers/STM32C0xx_HAL_Driver/Src/stm32c0xx_hal_exti.c **** {
 796              		.loc 1 420 1 is_stmt 1 view -0
 797              		.cfi_startproc
 798              		@ args = 0, pretend = 0, frame = 0
 799              		@ frame_needed = 0, uses_anonymous_args = 0
 800              		@ link register save eliminated.
 421:Drivers/STM32C0xx_HAL_Driver/Src/stm32c0xx_hal_exti.c ****   HAL_StatusTypeDef status = HAL_OK;
 801              		.loc 1 421 3 view .LVU289
 422:Drivers/STM32C0xx_HAL_Driver/Src/stm32c0xx_hal_exti.c **** 
 423:Drivers/STM32C0xx_HAL_Driver/Src/stm32c0xx_hal_exti.c ****   switch (CallbackID)
 802              		.loc 1 423 3 view .LVU290
 803 0000 0129     		cmp	r1, #1
 804 0002 09D0     		beq	.L40
 805 0004 0229     		cmp	r1, #2
 806 0006 0AD0     		beq	.L41
 807 0008 0029     		cmp	r1, #0
 808 000a 01D0     		beq	.L44
 809 000c 0120     		movs	r0, #1
 810              	.LVL108:
 811              	.L42:
 424:Drivers/STM32C0xx_HAL_Driver/Src/stm32c0xx_hal_exti.c ****   {
 425:Drivers/STM32C0xx_HAL_Driver/Src/stm32c0xx_hal_exti.c ****     case  HAL_EXTI_COMMON_CB_ID:
 426:Drivers/STM32C0xx_HAL_Driver/Src/stm32c0xx_hal_exti.c ****       hexti->RisingCallback = pPendingCbfn;
 427:Drivers/STM32C0xx_HAL_Driver/Src/stm32c0xx_hal_exti.c ****       hexti->FallingCallback = pPendingCbfn;
 428:Drivers/STM32C0xx_HAL_Driver/Src/stm32c0xx_hal_exti.c ****       break;
 429:Drivers/STM32C0xx_HAL_Driver/Src/stm32c0xx_hal_exti.c **** 
 430:Drivers/STM32C0xx_HAL_Driver/Src/stm32c0xx_hal_exti.c ****     case  HAL_EXTI_RISING_CB_ID:
 431:Drivers/STM32C0xx_HAL_Driver/Src/stm32c0xx_hal_exti.c ****       hexti->RisingCallback = pPendingCbfn;
 432:Drivers/STM32C0xx_HAL_Driver/Src/stm32c0xx_hal_exti.c ****       break;
 433:Drivers/STM32C0xx_HAL_Driver/Src/stm32c0xx_hal_exti.c **** 
 434:Drivers/STM32C0xx_HAL_Driver/Src/stm32c0xx_hal_exti.c ****     case  HAL_EXTI_FALLING_CB_ID:
 435:Drivers/STM32C0xx_HAL_Driver/Src/stm32c0xx_hal_exti.c ****       hexti->FallingCallback = pPendingCbfn;
 436:Drivers/STM32C0xx_HAL_Driver/Src/stm32c0xx_hal_exti.c ****       break;
 437:Drivers/STM32C0xx_HAL_Driver/Src/stm32c0xx_hal_exti.c **** 
 438:Drivers/STM32C0xx_HAL_Driver/Src/stm32c0xx_hal_exti.c ****     default:
 439:Drivers/STM32C0xx_HAL_Driver/Src/stm32c0xx_hal_exti.c ****       status = HAL_ERROR;
ARM GAS  /var/folders/nl/kwfz41d55ync1k9vlz8wmkc80000gn/T//ccq26bS7.s 			page 24


 440:Drivers/STM32C0xx_HAL_Driver/Src/stm32c0xx_hal_exti.c ****       break;
 441:Drivers/STM32C0xx_HAL_Driver/Src/stm32c0xx_hal_exti.c ****   }
 442:Drivers/STM32C0xx_HAL_Driver/Src/stm32c0xx_hal_exti.c **** 
 443:Drivers/STM32C0xx_HAL_Driver/Src/stm32c0xx_hal_exti.c ****   return status;
 812              		.loc 1 443 3 view .LVU291
 444:Drivers/STM32C0xx_HAL_Driver/Src/stm32c0xx_hal_exti.c **** }
 813              		.loc 1 444 1 is_stmt 0 view .LVU292
 814              		@ sp needed
 815 000e 7047     		bx	lr
 816              	.LVL109:
 817              	.L44:
 426:Drivers/STM32C0xx_HAL_Driver/Src/stm32c0xx_hal_exti.c ****       hexti->FallingCallback = pPendingCbfn;
 818              		.loc 1 426 7 is_stmt 1 view .LVU293
 426:Drivers/STM32C0xx_HAL_Driver/Src/stm32c0xx_hal_exti.c ****       hexti->FallingCallback = pPendingCbfn;
 819              		.loc 1 426 29 is_stmt 0 view .LVU294
 820 0010 4260     		str	r2, [r0, #4]
 427:Drivers/STM32C0xx_HAL_Driver/Src/stm32c0xx_hal_exti.c ****       break;
 821              		.loc 1 427 7 is_stmt 1 view .LVU295
 427:Drivers/STM32C0xx_HAL_Driver/Src/stm32c0xx_hal_exti.c ****       break;
 822              		.loc 1 427 30 is_stmt 0 view .LVU296
 823 0012 8260     		str	r2, [r0, #8]
 428:Drivers/STM32C0xx_HAL_Driver/Src/stm32c0xx_hal_exti.c **** 
 824              		.loc 1 428 7 is_stmt 1 view .LVU297
 421:Drivers/STM32C0xx_HAL_Driver/Src/stm32c0xx_hal_exti.c **** 
 825              		.loc 1 421 21 is_stmt 0 view .LVU298
 826 0014 0800     		movs	r0, r1
 827              	.LVL110:
 428:Drivers/STM32C0xx_HAL_Driver/Src/stm32c0xx_hal_exti.c **** 
 828              		.loc 1 428 7 view .LVU299
 829 0016 FAE7     		b	.L42
 830              	.LVL111:
 831              	.L40:
 431:Drivers/STM32C0xx_HAL_Driver/Src/stm32c0xx_hal_exti.c ****       break;
 832              		.loc 1 431 7 is_stmt 1 view .LVU300
 431:Drivers/STM32C0xx_HAL_Driver/Src/stm32c0xx_hal_exti.c ****       break;
 833              		.loc 1 431 29 is_stmt 0 view .LVU301
 834 0018 4260     		str	r2, [r0, #4]
 432:Drivers/STM32C0xx_HAL_Driver/Src/stm32c0xx_hal_exti.c **** 
 835              		.loc 1 432 7 is_stmt 1 view .LVU302
 421:Drivers/STM32C0xx_HAL_Driver/Src/stm32c0xx_hal_exti.c **** 
 836              		.loc 1 421 21 is_stmt 0 view .LVU303
 837 001a 0020     		movs	r0, #0
 838              	.LVL112:
 432:Drivers/STM32C0xx_HAL_Driver/Src/stm32c0xx_hal_exti.c **** 
 839              		.loc 1 432 7 view .LVU304
 840 001c F7E7     		b	.L42
 841              	.LVL113:
 842              	.L41:
 435:Drivers/STM32C0xx_HAL_Driver/Src/stm32c0xx_hal_exti.c ****       break;
 843              		.loc 1 435 7 is_stmt 1 view .LVU305
 435:Drivers/STM32C0xx_HAL_Driver/Src/stm32c0xx_hal_exti.c ****       break;
 844              		.loc 1 435 30 is_stmt 0 view .LVU306
 845 001e 8260     		str	r2, [r0, #8]
 436:Drivers/STM32C0xx_HAL_Driver/Src/stm32c0xx_hal_exti.c **** 
 846              		.loc 1 436 7 is_stmt 1 view .LVU307
 421:Drivers/STM32C0xx_HAL_Driver/Src/stm32c0xx_hal_exti.c **** 
 847              		.loc 1 421 21 is_stmt 0 view .LVU308
ARM GAS  /var/folders/nl/kwfz41d55ync1k9vlz8wmkc80000gn/T//ccq26bS7.s 			page 25


 848 0020 0020     		movs	r0, #0
 849              	.LVL114:
 436:Drivers/STM32C0xx_HAL_Driver/Src/stm32c0xx_hal_exti.c **** 
 850              		.loc 1 436 7 view .LVU309
 851 0022 F4E7     		b	.L42
 852              		.cfi_endproc
 853              	.LFE217:
 855              		.section	.text.HAL_EXTI_GetHandle,"ax",%progbits
 856              		.align	1
 857              		.global	HAL_EXTI_GetHandle
 858              		.syntax unified
 859              		.code	16
 860              		.thumb_func
 862              	HAL_EXTI_GetHandle:
 863              	.LVL115:
 864              	.LFB218:
 445:Drivers/STM32C0xx_HAL_Driver/Src/stm32c0xx_hal_exti.c **** 
 446:Drivers/STM32C0xx_HAL_Driver/Src/stm32c0xx_hal_exti.c **** 
 447:Drivers/STM32C0xx_HAL_Driver/Src/stm32c0xx_hal_exti.c **** /**
 448:Drivers/STM32C0xx_HAL_Driver/Src/stm32c0xx_hal_exti.c ****   * @brief  Store line number as handle private field.
 449:Drivers/STM32C0xx_HAL_Driver/Src/stm32c0xx_hal_exti.c ****   * @param  hexti Exti handle.
 450:Drivers/STM32C0xx_HAL_Driver/Src/stm32c0xx_hal_exti.c ****   * @param  ExtiLine Exti line number.
 451:Drivers/STM32C0xx_HAL_Driver/Src/stm32c0xx_hal_exti.c ****   *         This parameter can be from 0 to @ref EXTI_LINE_NB.
 452:Drivers/STM32C0xx_HAL_Driver/Src/stm32c0xx_hal_exti.c ****   * @retval HAL Status.
 453:Drivers/STM32C0xx_HAL_Driver/Src/stm32c0xx_hal_exti.c ****   */
 454:Drivers/STM32C0xx_HAL_Driver/Src/stm32c0xx_hal_exti.c **** HAL_StatusTypeDef HAL_EXTI_GetHandle(EXTI_HandleTypeDef *hexti, uint32_t ExtiLine)
 455:Drivers/STM32C0xx_HAL_Driver/Src/stm32c0xx_hal_exti.c **** {
 865              		.loc 1 455 1 is_stmt 1 view -0
 866              		.cfi_startproc
 867              		@ args = 0, pretend = 0, frame = 0
 868              		@ frame_needed = 0, uses_anonymous_args = 0
 869              		@ link register save eliminated.
 456:Drivers/STM32C0xx_HAL_Driver/Src/stm32c0xx_hal_exti.c ****   /* Check the parameters */
 457:Drivers/STM32C0xx_HAL_Driver/Src/stm32c0xx_hal_exti.c ****   assert_param(IS_EXTI_LINE(ExtiLine));
 870              		.loc 1 457 3 view .LVU311
 458:Drivers/STM32C0xx_HAL_Driver/Src/stm32c0xx_hal_exti.c **** 
 459:Drivers/STM32C0xx_HAL_Driver/Src/stm32c0xx_hal_exti.c ****   /* Check null pointer */
 460:Drivers/STM32C0xx_HAL_Driver/Src/stm32c0xx_hal_exti.c ****   if (hexti == NULL)
 871              		.loc 1 460 3 view .LVU312
 872              		.loc 1 460 6 is_stmt 0 view .LVU313
 873 0000 0028     		cmp	r0, #0
 874 0002 02D0     		beq	.L47
 461:Drivers/STM32C0xx_HAL_Driver/Src/stm32c0xx_hal_exti.c ****   {
 462:Drivers/STM32C0xx_HAL_Driver/Src/stm32c0xx_hal_exti.c ****     return HAL_ERROR;
 463:Drivers/STM32C0xx_HAL_Driver/Src/stm32c0xx_hal_exti.c ****   }
 464:Drivers/STM32C0xx_HAL_Driver/Src/stm32c0xx_hal_exti.c ****   else
 465:Drivers/STM32C0xx_HAL_Driver/Src/stm32c0xx_hal_exti.c ****   {
 466:Drivers/STM32C0xx_HAL_Driver/Src/stm32c0xx_hal_exti.c ****     /* Store line number as handle private field */
 467:Drivers/STM32C0xx_HAL_Driver/Src/stm32c0xx_hal_exti.c ****     hexti->Line = ExtiLine;
 875              		.loc 1 467 5 is_stmt 1 view .LVU314
 876              		.loc 1 467 17 is_stmt 0 view .LVU315
 877 0004 0160     		str	r1, [r0]
 468:Drivers/STM32C0xx_HAL_Driver/Src/stm32c0xx_hal_exti.c **** 
 469:Drivers/STM32C0xx_HAL_Driver/Src/stm32c0xx_hal_exti.c ****     return HAL_OK;
 878              		.loc 1 469 5 is_stmt 1 view .LVU316
 879              		.loc 1 469 12 is_stmt 0 view .LVU317
 880 0006 0020     		movs	r0, #0
ARM GAS  /var/folders/nl/kwfz41d55ync1k9vlz8wmkc80000gn/T//ccq26bS7.s 			page 26


 881              	.LVL116:
 882              	.L46:
 470:Drivers/STM32C0xx_HAL_Driver/Src/stm32c0xx_hal_exti.c ****   }
 471:Drivers/STM32C0xx_HAL_Driver/Src/stm32c0xx_hal_exti.c **** }
 883              		.loc 1 471 1 view .LVU318
 884              		@ sp needed
 885 0008 7047     		bx	lr
 886              	.LVL117:
 887              	.L47:
 462:Drivers/STM32C0xx_HAL_Driver/Src/stm32c0xx_hal_exti.c ****   }
 888              		.loc 1 462 12 view .LVU319
 889 000a 0120     		movs	r0, #1
 890              	.LVL118:
 462:Drivers/STM32C0xx_HAL_Driver/Src/stm32c0xx_hal_exti.c ****   }
 891              		.loc 1 462 12 view .LVU320
 892 000c FCE7     		b	.L46
 893              		.cfi_endproc
 894              	.LFE218:
 896              		.section	.text.HAL_EXTI_IRQHandler,"ax",%progbits
 897              		.align	1
 898              		.global	HAL_EXTI_IRQHandler
 899              		.syntax unified
 900              		.code	16
 901              		.thumb_func
 903              	HAL_EXTI_IRQHandler:
 904              	.LVL119:
 905              	.LFB219:
 472:Drivers/STM32C0xx_HAL_Driver/Src/stm32c0xx_hal_exti.c **** 
 473:Drivers/STM32C0xx_HAL_Driver/Src/stm32c0xx_hal_exti.c **** 
 474:Drivers/STM32C0xx_HAL_Driver/Src/stm32c0xx_hal_exti.c **** /**
 475:Drivers/STM32C0xx_HAL_Driver/Src/stm32c0xx_hal_exti.c ****   * @}
 476:Drivers/STM32C0xx_HAL_Driver/Src/stm32c0xx_hal_exti.c ****   */
 477:Drivers/STM32C0xx_HAL_Driver/Src/stm32c0xx_hal_exti.c **** 
 478:Drivers/STM32C0xx_HAL_Driver/Src/stm32c0xx_hal_exti.c **** /** @addtogroup EXTI_Exported_Functions_Group2
 479:Drivers/STM32C0xx_HAL_Driver/Src/stm32c0xx_hal_exti.c ****   *  @brief EXTI IO functions.
 480:Drivers/STM32C0xx_HAL_Driver/Src/stm32c0xx_hal_exti.c ****   *
 481:Drivers/STM32C0xx_HAL_Driver/Src/stm32c0xx_hal_exti.c **** @verbatim
 482:Drivers/STM32C0xx_HAL_Driver/Src/stm32c0xx_hal_exti.c ****  ===============================================================================
 483:Drivers/STM32C0xx_HAL_Driver/Src/stm32c0xx_hal_exti.c ****                        ##### IO operation functions #####
 484:Drivers/STM32C0xx_HAL_Driver/Src/stm32c0xx_hal_exti.c ****  ===============================================================================
 485:Drivers/STM32C0xx_HAL_Driver/Src/stm32c0xx_hal_exti.c **** 
 486:Drivers/STM32C0xx_HAL_Driver/Src/stm32c0xx_hal_exti.c **** @endverbatim
 487:Drivers/STM32C0xx_HAL_Driver/Src/stm32c0xx_hal_exti.c ****   * @{
 488:Drivers/STM32C0xx_HAL_Driver/Src/stm32c0xx_hal_exti.c ****   */
 489:Drivers/STM32C0xx_HAL_Driver/Src/stm32c0xx_hal_exti.c **** 
 490:Drivers/STM32C0xx_HAL_Driver/Src/stm32c0xx_hal_exti.c **** /**
 491:Drivers/STM32C0xx_HAL_Driver/Src/stm32c0xx_hal_exti.c ****   * @brief  Handle EXTI interrupt request.
 492:Drivers/STM32C0xx_HAL_Driver/Src/stm32c0xx_hal_exti.c ****   * @param  hexti Exti handle.
 493:Drivers/STM32C0xx_HAL_Driver/Src/stm32c0xx_hal_exti.c ****   * @retval none.
 494:Drivers/STM32C0xx_HAL_Driver/Src/stm32c0xx_hal_exti.c ****   */
 495:Drivers/STM32C0xx_HAL_Driver/Src/stm32c0xx_hal_exti.c **** void HAL_EXTI_IRQHandler(const EXTI_HandleTypeDef *hexti)
 496:Drivers/STM32C0xx_HAL_Driver/Src/stm32c0xx_hal_exti.c **** {
 906              		.loc 1 496 1 is_stmt 1 view -0
 907              		.cfi_startproc
 908              		@ args = 0, pretend = 0, frame = 0
 909              		@ frame_needed = 0, uses_anonymous_args = 0
 910              		.loc 1 496 1 is_stmt 0 view .LVU322
ARM GAS  /var/folders/nl/kwfz41d55ync1k9vlz8wmkc80000gn/T//ccq26bS7.s 			page 27


 911 0000 70B5     		push	{r4, r5, r6, lr}
 912              	.LCFI4:
 913              		.cfi_def_cfa_offset 16
 914              		.cfi_offset 4, -16
 915              		.cfi_offset 5, -12
 916              		.cfi_offset 6, -8
 917              		.cfi_offset 14, -4
 918 0002 0600     		movs	r6, r0
 497:Drivers/STM32C0xx_HAL_Driver/Src/stm32c0xx_hal_exti.c ****   __IO uint32_t *regaddr;
 919              		.loc 1 497 3 is_stmt 1 view .LVU323
 498:Drivers/STM32C0xx_HAL_Driver/Src/stm32c0xx_hal_exti.c ****   uint32_t regval;
 920              		.loc 1 498 3 view .LVU324
 499:Drivers/STM32C0xx_HAL_Driver/Src/stm32c0xx_hal_exti.c ****   uint32_t maskline;
 921              		.loc 1 499 3 view .LVU325
 500:Drivers/STM32C0xx_HAL_Driver/Src/stm32c0xx_hal_exti.c ****   uint32_t offset;
 922              		.loc 1 500 3 view .LVU326
 501:Drivers/STM32C0xx_HAL_Driver/Src/stm32c0xx_hal_exti.c **** 
 502:Drivers/STM32C0xx_HAL_Driver/Src/stm32c0xx_hal_exti.c ****   /* Compute line register offset and line mask */
 503:Drivers/STM32C0xx_HAL_Driver/Src/stm32c0xx_hal_exti.c ****   offset = ((hexti->Line & EXTI_REG_MASK) >> EXTI_REG_SHIFT);
 923              		.loc 1 503 3 view .LVU327
 924              		.loc 1 503 19 is_stmt 0 view .LVU328
 925 0004 0268     		ldr	r2, [r0]
 926              		.loc 1 503 43 view .LVU329
 927 0006 140C     		lsrs	r4, r2, #16
 928              		.loc 1 503 10 view .LVU330
 929 0008 0125     		movs	r5, #1
 930 000a 2C40     		ands	r4, r5
 931              	.LVL120:
 504:Drivers/STM32C0xx_HAL_Driver/Src/stm32c0xx_hal_exti.c ****   maskline = (1UL << (hexti->Line & EXTI_PIN_MASK));
 932              		.loc 1 504 3 is_stmt 1 view .LVU331
 933              		.loc 1 504 35 is_stmt 0 view .LVU332
 934 000c 1F23     		movs	r3, #31
 935 000e 1340     		ands	r3, r2
 936              		.loc 1 504 12 view .LVU333
 937 0010 9D40     		lsls	r5, r5, r3
 938              	.LVL121:
 505:Drivers/STM32C0xx_HAL_Driver/Src/stm32c0xx_hal_exti.c **** 
 506:Drivers/STM32C0xx_HAL_Driver/Src/stm32c0xx_hal_exti.c ****   /* Get rising edge pending bit  */
 507:Drivers/STM32C0xx_HAL_Driver/Src/stm32c0xx_hal_exti.c ****   regaddr = (__IO uint32_t *)(&EXTI->RPR1 + (EXTI_CONFIG_OFFSET * offset));
 939              		.loc 1 507 3 is_stmt 1 view .LVU334
 940              		.loc 1 507 13 is_stmt 0 view .LVU335
 941 0012 6401     		lsls	r4, r4, #5
 942              	.LVL122:
 943              		.loc 1 507 11 view .LVU336
 944 0014 0A4B     		ldr	r3, .L51
 945 0016 E318     		adds	r3, r4, r3
 946              	.LVL123:
 508:Drivers/STM32C0xx_HAL_Driver/Src/stm32c0xx_hal_exti.c ****   regval = (*regaddr & maskline);
 947              		.loc 1 508 3 is_stmt 1 view .LVU337
 948              		.loc 1 508 13 is_stmt 0 view .LVU338
 949 0018 1A68     		ldr	r2, [r3]
 950              	.LVL124:
 509:Drivers/STM32C0xx_HAL_Driver/Src/stm32c0xx_hal_exti.c **** 
 510:Drivers/STM32C0xx_HAL_Driver/Src/stm32c0xx_hal_exti.c ****   if (regval != 0U)
 951              		.loc 1 510 3 is_stmt 1 view .LVU339
 952              		.loc 1 510 6 is_stmt 0 view .LVU340
 953 001a 1542     		tst	r5, r2
ARM GAS  /var/folders/nl/kwfz41d55ync1k9vlz8wmkc80000gn/T//ccq26bS7.s 			page 28


 954 001c 04D0     		beq	.L49
 511:Drivers/STM32C0xx_HAL_Driver/Src/stm32c0xx_hal_exti.c ****   {
 512:Drivers/STM32C0xx_HAL_Driver/Src/stm32c0xx_hal_exti.c ****     /* Clear pending bit */
 513:Drivers/STM32C0xx_HAL_Driver/Src/stm32c0xx_hal_exti.c ****     *regaddr = maskline;
 955              		.loc 1 513 5 is_stmt 1 view .LVU341
 956              		.loc 1 513 14 is_stmt 0 view .LVU342
 957 001e 1D60     		str	r5, [r3]
 958              	.LVL125:
 514:Drivers/STM32C0xx_HAL_Driver/Src/stm32c0xx_hal_exti.c **** 
 515:Drivers/STM32C0xx_HAL_Driver/Src/stm32c0xx_hal_exti.c ****     /* Call rising callback */
 516:Drivers/STM32C0xx_HAL_Driver/Src/stm32c0xx_hal_exti.c ****     if (hexti->RisingCallback != NULL)
 959              		.loc 1 516 5 is_stmt 1 view .LVU343
 960              		.loc 1 516 14 is_stmt 0 view .LVU344
 961 0020 4368     		ldr	r3, [r0, #4]
 962              	.LVL126:
 963              		.loc 1 516 8 view .LVU345
 964 0022 002B     		cmp	r3, #0
 965 0024 00D0     		beq	.L49
 517:Drivers/STM32C0xx_HAL_Driver/Src/stm32c0xx_hal_exti.c ****     {
 518:Drivers/STM32C0xx_HAL_Driver/Src/stm32c0xx_hal_exti.c ****       hexti->RisingCallback();
 966              		.loc 1 518 7 is_stmt 1 view .LVU346
 967 0026 9847     		blx	r3
 968              	.LVL127:
 969              	.L49:
 519:Drivers/STM32C0xx_HAL_Driver/Src/stm32c0xx_hal_exti.c ****     }
 520:Drivers/STM32C0xx_HAL_Driver/Src/stm32c0xx_hal_exti.c ****   }
 521:Drivers/STM32C0xx_HAL_Driver/Src/stm32c0xx_hal_exti.c **** 
 522:Drivers/STM32C0xx_HAL_Driver/Src/stm32c0xx_hal_exti.c ****   /* Get falling edge pending bit  */
 523:Drivers/STM32C0xx_HAL_Driver/Src/stm32c0xx_hal_exti.c ****   regaddr = (__IO uint32_t *)(&EXTI->FPR1 + (EXTI_CONFIG_OFFSET * offset));
 970              		.loc 1 523 3 view .LVU347
 971              		.loc 1 523 11 is_stmt 0 view .LVU348
 972 0028 064B     		ldr	r3, .L51+4
 973 002a 9C46     		mov	ip, r3
 974 002c 6444     		add	r4, r4, ip
 975              	.LVL128:
 524:Drivers/STM32C0xx_HAL_Driver/Src/stm32c0xx_hal_exti.c ****   regval = (*regaddr & maskline);
 976              		.loc 1 524 3 is_stmt 1 view .LVU349
 977              		.loc 1 524 13 is_stmt 0 view .LVU350
 978 002e 2368     		ldr	r3, [r4]
 979              	.LVL129:
 525:Drivers/STM32C0xx_HAL_Driver/Src/stm32c0xx_hal_exti.c **** 
 526:Drivers/STM32C0xx_HAL_Driver/Src/stm32c0xx_hal_exti.c ****   if (regval != 0U)
 980              		.loc 1 526 3 is_stmt 1 view .LVU351
 981              		.loc 1 526 6 is_stmt 0 view .LVU352
 982 0030 1D42     		tst	r5, r3
 983 0032 04D0     		beq	.L48
 527:Drivers/STM32C0xx_HAL_Driver/Src/stm32c0xx_hal_exti.c ****   {
 528:Drivers/STM32C0xx_HAL_Driver/Src/stm32c0xx_hal_exti.c ****     /* Clear pending bit */
 529:Drivers/STM32C0xx_HAL_Driver/Src/stm32c0xx_hal_exti.c ****     *regaddr = maskline;
 984              		.loc 1 529 5 is_stmt 1 view .LVU353
 985              		.loc 1 529 14 is_stmt 0 view .LVU354
 986 0034 2560     		str	r5, [r4]
 530:Drivers/STM32C0xx_HAL_Driver/Src/stm32c0xx_hal_exti.c **** 
 531:Drivers/STM32C0xx_HAL_Driver/Src/stm32c0xx_hal_exti.c ****     /* Call rising callback */
 532:Drivers/STM32C0xx_HAL_Driver/Src/stm32c0xx_hal_exti.c ****     if (hexti->FallingCallback != NULL)
 987              		.loc 1 532 5 is_stmt 1 view .LVU355
 988              		.loc 1 532 14 is_stmt 0 view .LVU356
ARM GAS  /var/folders/nl/kwfz41d55ync1k9vlz8wmkc80000gn/T//ccq26bS7.s 			page 29


 989 0036 B368     		ldr	r3, [r6, #8]
 990              	.LVL130:
 991              		.loc 1 532 8 view .LVU357
 992 0038 002B     		cmp	r3, #0
 993 003a 00D0     		beq	.L48
 533:Drivers/STM32C0xx_HAL_Driver/Src/stm32c0xx_hal_exti.c ****     {
 534:Drivers/STM32C0xx_HAL_Driver/Src/stm32c0xx_hal_exti.c ****       hexti->FallingCallback();
 994              		.loc 1 534 7 is_stmt 1 view .LVU358
 995 003c 9847     		blx	r3
 996              	.LVL131:
 997              	.L48:
 535:Drivers/STM32C0xx_HAL_Driver/Src/stm32c0xx_hal_exti.c ****     }
 536:Drivers/STM32C0xx_HAL_Driver/Src/stm32c0xx_hal_exti.c ****   }
 537:Drivers/STM32C0xx_HAL_Driver/Src/stm32c0xx_hal_exti.c **** }
 998              		.loc 1 537 1 is_stmt 0 view .LVU359
 999              		@ sp needed
 1000              	.LVL132:
 1001              	.LVL133:
 1002              	.LVL134:
 1003              		.loc 1 537 1 view .LVU360
 1004 003e 70BD     		pop	{r4, r5, r6, pc}
 1005              	.L52:
 1006              		.align	2
 1007              	.L51:
 1008 0040 0C180240 		.word	1073879052
 1009 0044 10180240 		.word	1073879056
 1010              		.cfi_endproc
 1011              	.LFE219:
 1013              		.section	.text.HAL_EXTI_GetPending,"ax",%progbits
 1014              		.align	1
 1015              		.global	HAL_EXTI_GetPending
 1016              		.syntax unified
 1017              		.code	16
 1018              		.thumb_func
 1020              	HAL_EXTI_GetPending:
 1021              	.LVL135:
 1022              	.LFB220:
 538:Drivers/STM32C0xx_HAL_Driver/Src/stm32c0xx_hal_exti.c **** 
 539:Drivers/STM32C0xx_HAL_Driver/Src/stm32c0xx_hal_exti.c **** 
 540:Drivers/STM32C0xx_HAL_Driver/Src/stm32c0xx_hal_exti.c **** /**
 541:Drivers/STM32C0xx_HAL_Driver/Src/stm32c0xx_hal_exti.c ****   * @brief  Get interrupt pending bit of a dedicated line.
 542:Drivers/STM32C0xx_HAL_Driver/Src/stm32c0xx_hal_exti.c ****   * @param  hexti Exti handle.
 543:Drivers/STM32C0xx_HAL_Driver/Src/stm32c0xx_hal_exti.c ****   * @param  Edge Specify which pending edge as to be checked.
 544:Drivers/STM32C0xx_HAL_Driver/Src/stm32c0xx_hal_exti.c ****   *         This parameter can be one of the following values:
 545:Drivers/STM32C0xx_HAL_Driver/Src/stm32c0xx_hal_exti.c ****   *           @arg @ref EXTI_TRIGGER_RISING
 546:Drivers/STM32C0xx_HAL_Driver/Src/stm32c0xx_hal_exti.c ****   *           @arg @ref EXTI_TRIGGER_FALLING
 547:Drivers/STM32C0xx_HAL_Driver/Src/stm32c0xx_hal_exti.c ****   * @retval 1 if interrupt is pending else 0.
 548:Drivers/STM32C0xx_HAL_Driver/Src/stm32c0xx_hal_exti.c ****   */
 549:Drivers/STM32C0xx_HAL_Driver/Src/stm32c0xx_hal_exti.c **** uint32_t HAL_EXTI_GetPending(const EXTI_HandleTypeDef *hexti, uint32_t Edge)
 550:Drivers/STM32C0xx_HAL_Driver/Src/stm32c0xx_hal_exti.c **** {
 1023              		.loc 1 550 1 is_stmt 1 view -0
 1024              		.cfi_startproc
 1025              		@ args = 0, pretend = 0, frame = 0
 1026              		@ frame_needed = 0, uses_anonymous_args = 0
 1027              		.loc 1 550 1 is_stmt 0 view .LVU362
 1028 0000 10B5     		push	{r4, lr}
 1029              	.LCFI5:
ARM GAS  /var/folders/nl/kwfz41d55ync1k9vlz8wmkc80000gn/T//ccq26bS7.s 			page 30


 1030              		.cfi_def_cfa_offset 8
 1031              		.cfi_offset 4, -8
 1032              		.cfi_offset 14, -4
 551:Drivers/STM32C0xx_HAL_Driver/Src/stm32c0xx_hal_exti.c ****   __IO uint32_t *regaddr;
 1033              		.loc 1 551 3 is_stmt 1 view .LVU363
 552:Drivers/STM32C0xx_HAL_Driver/Src/stm32c0xx_hal_exti.c ****   uint32_t regval;
 1034              		.loc 1 552 3 view .LVU364
 553:Drivers/STM32C0xx_HAL_Driver/Src/stm32c0xx_hal_exti.c ****   uint32_t linepos;
 1035              		.loc 1 553 3 view .LVU365
 554:Drivers/STM32C0xx_HAL_Driver/Src/stm32c0xx_hal_exti.c ****   uint32_t maskline;
 1036              		.loc 1 554 3 view .LVU366
 555:Drivers/STM32C0xx_HAL_Driver/Src/stm32c0xx_hal_exti.c ****   uint32_t offset;
 1037              		.loc 1 555 3 view .LVU367
 556:Drivers/STM32C0xx_HAL_Driver/Src/stm32c0xx_hal_exti.c **** 
 557:Drivers/STM32C0xx_HAL_Driver/Src/stm32c0xx_hal_exti.c ****   /* Check the parameters */
 558:Drivers/STM32C0xx_HAL_Driver/Src/stm32c0xx_hal_exti.c ****   assert_param(IS_EXTI_LINE(hexti->Line));
 1038              		.loc 1 558 3 view .LVU368
 559:Drivers/STM32C0xx_HAL_Driver/Src/stm32c0xx_hal_exti.c ****   assert_param(IS_EXTI_CONFIG_LINE(hexti->Line));
 1039              		.loc 1 559 3 view .LVU369
 560:Drivers/STM32C0xx_HAL_Driver/Src/stm32c0xx_hal_exti.c ****   assert_param(IS_EXTI_PENDING_EDGE(Edge));
 1040              		.loc 1 560 3 view .LVU370
 561:Drivers/STM32C0xx_HAL_Driver/Src/stm32c0xx_hal_exti.c **** 
 562:Drivers/STM32C0xx_HAL_Driver/Src/stm32c0xx_hal_exti.c ****   /* compute line register offset and line mask */
 563:Drivers/STM32C0xx_HAL_Driver/Src/stm32c0xx_hal_exti.c ****   offset = ((hexti->Line & EXTI_REG_MASK) >> EXTI_REG_SHIFT);
 1041              		.loc 1 563 3 view .LVU371
 1042              		.loc 1 563 19 is_stmt 0 view .LVU372
 1043 0002 0468     		ldr	r4, [r0]
 1044              		.loc 1 563 43 view .LVU373
 1045 0004 230C     		lsrs	r3, r4, #16
 1046              		.loc 1 563 10 view .LVU374
 1047 0006 0120     		movs	r0, #1
 1048              	.LVL136:
 1049              		.loc 1 563 10 view .LVU375
 1050 0008 0340     		ands	r3, r0
 1051              	.LVL137:
 564:Drivers/STM32C0xx_HAL_Driver/Src/stm32c0xx_hal_exti.c ****   linepos = (hexti->Line & EXTI_PIN_MASK);
 1052              		.loc 1 564 3 is_stmt 1 view .LVU376
 1053              		.loc 1 564 11 is_stmt 0 view .LVU377
 1054 000a 1F22     		movs	r2, #31
 1055 000c 2240     		ands	r2, r4
 1056              	.LVL138:
 565:Drivers/STM32C0xx_HAL_Driver/Src/stm32c0xx_hal_exti.c ****   maskline = (1UL << linepos);
 1057              		.loc 1 565 3 is_stmt 1 view .LVU378
 1058              		.loc 1 565 12 is_stmt 0 view .LVU379
 1059 000e 9040     		lsls	r0, r0, r2
 1060              	.LVL139:
 566:Drivers/STM32C0xx_HAL_Driver/Src/stm32c0xx_hal_exti.c **** 
 567:Drivers/STM32C0xx_HAL_Driver/Src/stm32c0xx_hal_exti.c ****   if (Edge != EXTI_TRIGGER_RISING)
 1061              		.loc 1 567 3 is_stmt 1 view .LVU380
 1062              		.loc 1 567 6 is_stmt 0 view .LVU381
 1063 0010 0129     		cmp	r1, #1
 1064 0012 07D0     		beq	.L54
 568:Drivers/STM32C0xx_HAL_Driver/Src/stm32c0xx_hal_exti.c ****   {
 569:Drivers/STM32C0xx_HAL_Driver/Src/stm32c0xx_hal_exti.c ****     /* Get falling edge pending bit */
 570:Drivers/STM32C0xx_HAL_Driver/Src/stm32c0xx_hal_exti.c ****     regaddr = (__IO uint32_t *)(&EXTI->FPR1 + (EXTI_CONFIG_OFFSET * offset));
 1065              		.loc 1 570 5 is_stmt 1 view .LVU382
 1066              		.loc 1 570 15 is_stmt 0 view .LVU383
ARM GAS  /var/folders/nl/kwfz41d55ync1k9vlz8wmkc80000gn/T//ccq26bS7.s 			page 31


 1067 0014 5B01     		lsls	r3, r3, #5
 1068              	.LVL140:
 1069              		.loc 1 570 13 view .LVU384
 1070 0016 0649     		ldr	r1, .L56
 1071              	.LVL141:
 1072              		.loc 1 570 13 view .LVU385
 1073 0018 8C46     		mov	ip, r1
 1074 001a 6344     		add	r3, r3, ip
 1075              	.LVL142:
 1076              	.L55:
 571:Drivers/STM32C0xx_HAL_Driver/Src/stm32c0xx_hal_exti.c ****   }
 572:Drivers/STM32C0xx_HAL_Driver/Src/stm32c0xx_hal_exti.c ****   else
 573:Drivers/STM32C0xx_HAL_Driver/Src/stm32c0xx_hal_exti.c ****   {
 574:Drivers/STM32C0xx_HAL_Driver/Src/stm32c0xx_hal_exti.c ****     /* Get rising edge pending bit */
 575:Drivers/STM32C0xx_HAL_Driver/Src/stm32c0xx_hal_exti.c ****     regaddr = (__IO uint32_t *)(&EXTI->RPR1 + (EXTI_CONFIG_OFFSET * offset));
 576:Drivers/STM32C0xx_HAL_Driver/Src/stm32c0xx_hal_exti.c ****   }
 577:Drivers/STM32C0xx_HAL_Driver/Src/stm32c0xx_hal_exti.c **** 
 578:Drivers/STM32C0xx_HAL_Driver/Src/stm32c0xx_hal_exti.c ****   /* return 1 if bit is set else 0 */
 579:Drivers/STM32C0xx_HAL_Driver/Src/stm32c0xx_hal_exti.c ****   regval = ((*regaddr & maskline) >> linepos);
 1077              		.loc 1 579 3 is_stmt 1 view .LVU386
 1078              		.loc 1 579 14 is_stmt 0 view .LVU387
 1079 001c 1B68     		ldr	r3, [r3]
 1080              	.LVL143:
 1081              		.loc 1 579 23 view .LVU388
 1082 001e 1840     		ands	r0, r3
 1083              	.LVL144:
 1084              		.loc 1 579 10 view .LVU389
 1085 0020 D040     		lsrs	r0, r0, r2
 1086              	.LVL145:
 580:Drivers/STM32C0xx_HAL_Driver/Src/stm32c0xx_hal_exti.c ****   return regval;
 1087              		.loc 1 580 3 is_stmt 1 view .LVU390
 581:Drivers/STM32C0xx_HAL_Driver/Src/stm32c0xx_hal_exti.c **** }
 1088              		.loc 1 581 1 is_stmt 0 view .LVU391
 1089              		@ sp needed
 1090              	.LVL146:
 1091              		.loc 1 581 1 view .LVU392
 1092 0022 10BD     		pop	{r4, pc}
 1093              	.LVL147:
 1094              	.L54:
 575:Drivers/STM32C0xx_HAL_Driver/Src/stm32c0xx_hal_exti.c ****   }
 1095              		.loc 1 575 5 is_stmt 1 view .LVU393
 575:Drivers/STM32C0xx_HAL_Driver/Src/stm32c0xx_hal_exti.c ****   }
 1096              		.loc 1 575 15 is_stmt 0 view .LVU394
 1097 0024 5B01     		lsls	r3, r3, #5
 1098              	.LVL148:
 575:Drivers/STM32C0xx_HAL_Driver/Src/stm32c0xx_hal_exti.c ****   }
 1099              		.loc 1 575 13 view .LVU395
 1100 0026 0349     		ldr	r1, .L56+4
 1101              	.LVL149:
 575:Drivers/STM32C0xx_HAL_Driver/Src/stm32c0xx_hal_exti.c ****   }
 1102              		.loc 1 575 13 view .LVU396
 1103 0028 8C46     		mov	ip, r1
 1104 002a 6344     		add	r3, r3, ip
 1105              	.LVL150:
 575:Drivers/STM32C0xx_HAL_Driver/Src/stm32c0xx_hal_exti.c ****   }
 1106              		.loc 1 575 13 view .LVU397
 1107 002c F6E7     		b	.L55
ARM GAS  /var/folders/nl/kwfz41d55ync1k9vlz8wmkc80000gn/T//ccq26bS7.s 			page 32


 1108              	.L57:
 1109 002e C046     		.align	2
 1110              	.L56:
 1111 0030 10180240 		.word	1073879056
 1112 0034 0C180240 		.word	1073879052
 1113              		.cfi_endproc
 1114              	.LFE220:
 1116              		.section	.text.HAL_EXTI_ClearPending,"ax",%progbits
 1117              		.align	1
 1118              		.global	HAL_EXTI_ClearPending
 1119              		.syntax unified
 1120              		.code	16
 1121              		.thumb_func
 1123              	HAL_EXTI_ClearPending:
 1124              	.LVL151:
 1125              	.LFB221:
 582:Drivers/STM32C0xx_HAL_Driver/Src/stm32c0xx_hal_exti.c **** 
 583:Drivers/STM32C0xx_HAL_Driver/Src/stm32c0xx_hal_exti.c **** 
 584:Drivers/STM32C0xx_HAL_Driver/Src/stm32c0xx_hal_exti.c **** /**
 585:Drivers/STM32C0xx_HAL_Driver/Src/stm32c0xx_hal_exti.c ****   * @brief  Clear interrupt pending bit of a dedicated line.
 586:Drivers/STM32C0xx_HAL_Driver/Src/stm32c0xx_hal_exti.c ****   * @param  hexti Exti handle.
 587:Drivers/STM32C0xx_HAL_Driver/Src/stm32c0xx_hal_exti.c ****   * @param  Edge Specify which pending edge as to be clear.
 588:Drivers/STM32C0xx_HAL_Driver/Src/stm32c0xx_hal_exti.c ****   *         This parameter can be one of the following values:
 589:Drivers/STM32C0xx_HAL_Driver/Src/stm32c0xx_hal_exti.c ****   *           @arg @ref EXTI_TRIGGER_RISING
 590:Drivers/STM32C0xx_HAL_Driver/Src/stm32c0xx_hal_exti.c ****   *           @arg @ref EXTI_TRIGGER_FALLING
 591:Drivers/STM32C0xx_HAL_Driver/Src/stm32c0xx_hal_exti.c ****   * @retval None.
 592:Drivers/STM32C0xx_HAL_Driver/Src/stm32c0xx_hal_exti.c ****   */
 593:Drivers/STM32C0xx_HAL_Driver/Src/stm32c0xx_hal_exti.c **** void HAL_EXTI_ClearPending(const EXTI_HandleTypeDef *hexti, uint32_t Edge)
 594:Drivers/STM32C0xx_HAL_Driver/Src/stm32c0xx_hal_exti.c **** {
 1126              		.loc 1 594 1 is_stmt 1 view -0
 1127              		.cfi_startproc
 1128              		@ args = 0, pretend = 0, frame = 0
 1129              		@ frame_needed = 0, uses_anonymous_args = 0
 1130              		.loc 1 594 1 is_stmt 0 view .LVU399
 1131 0000 10B5     		push	{r4, lr}
 1132              	.LCFI6:
 1133              		.cfi_def_cfa_offset 8
 1134              		.cfi_offset 4, -8
 1135              		.cfi_offset 14, -4
 595:Drivers/STM32C0xx_HAL_Driver/Src/stm32c0xx_hal_exti.c ****   __IO uint32_t *regaddr;
 1136              		.loc 1 595 3 is_stmt 1 view .LVU400
 596:Drivers/STM32C0xx_HAL_Driver/Src/stm32c0xx_hal_exti.c ****   uint32_t maskline;
 1137              		.loc 1 596 3 view .LVU401
 597:Drivers/STM32C0xx_HAL_Driver/Src/stm32c0xx_hal_exti.c ****   uint32_t offset;
 1138              		.loc 1 597 3 view .LVU402
 598:Drivers/STM32C0xx_HAL_Driver/Src/stm32c0xx_hal_exti.c **** 
 599:Drivers/STM32C0xx_HAL_Driver/Src/stm32c0xx_hal_exti.c ****   /* Check the parameters */
 600:Drivers/STM32C0xx_HAL_Driver/Src/stm32c0xx_hal_exti.c ****   assert_param(IS_EXTI_LINE(hexti->Line));
 1139              		.loc 1 600 3 view .LVU403
 601:Drivers/STM32C0xx_HAL_Driver/Src/stm32c0xx_hal_exti.c ****   assert_param(IS_EXTI_CONFIG_LINE(hexti->Line));
 1140              		.loc 1 601 3 view .LVU404
 602:Drivers/STM32C0xx_HAL_Driver/Src/stm32c0xx_hal_exti.c ****   assert_param(IS_EXTI_PENDING_EDGE(Edge));
 1141              		.loc 1 602 3 view .LVU405
 603:Drivers/STM32C0xx_HAL_Driver/Src/stm32c0xx_hal_exti.c **** 
 604:Drivers/STM32C0xx_HAL_Driver/Src/stm32c0xx_hal_exti.c ****   /* compute line register offset and line mask */
 605:Drivers/STM32C0xx_HAL_Driver/Src/stm32c0xx_hal_exti.c ****   offset = ((hexti->Line & EXTI_REG_MASK) >> EXTI_REG_SHIFT);
 1142              		.loc 1 605 3 view .LVU406
ARM GAS  /var/folders/nl/kwfz41d55ync1k9vlz8wmkc80000gn/T//ccq26bS7.s 			page 33


 1143              		.loc 1 605 19 is_stmt 0 view .LVU407
 1144 0002 0468     		ldr	r4, [r0]
 1145              		.loc 1 605 43 view .LVU408
 1146 0004 230C     		lsrs	r3, r4, #16
 1147              		.loc 1 605 10 view .LVU409
 1148 0006 0122     		movs	r2, #1
 1149 0008 1340     		ands	r3, r2
 1150              	.LVL152:
 606:Drivers/STM32C0xx_HAL_Driver/Src/stm32c0xx_hal_exti.c ****   maskline = (1UL << (hexti->Line & EXTI_PIN_MASK));
 1151              		.loc 1 606 3 is_stmt 1 view .LVU410
 1152              		.loc 1 606 35 is_stmt 0 view .LVU411
 1153 000a 1F20     		movs	r0, #31
 1154              	.LVL153:
 1155              		.loc 1 606 35 view .LVU412
 1156 000c 2040     		ands	r0, r4
 1157              		.loc 1 606 12 view .LVU413
 1158 000e 8240     		lsls	r2, r2, r0
 1159              	.LVL154:
 607:Drivers/STM32C0xx_HAL_Driver/Src/stm32c0xx_hal_exti.c **** 
 608:Drivers/STM32C0xx_HAL_Driver/Src/stm32c0xx_hal_exti.c ****   if (Edge != EXTI_TRIGGER_RISING)
 1160              		.loc 1 608 3 is_stmt 1 view .LVU414
 1161              		.loc 1 608 6 is_stmt 0 view .LVU415
 1162 0010 0129     		cmp	r1, #1
 1163 0012 05D0     		beq	.L59
 609:Drivers/STM32C0xx_HAL_Driver/Src/stm32c0xx_hal_exti.c ****   {
 610:Drivers/STM32C0xx_HAL_Driver/Src/stm32c0xx_hal_exti.c ****     /* Get falling edge pending register address */
 611:Drivers/STM32C0xx_HAL_Driver/Src/stm32c0xx_hal_exti.c ****     regaddr = (__IO uint32_t *)(&EXTI->FPR1 + (EXTI_CONFIG_OFFSET * offset));
 1164              		.loc 1 611 5 is_stmt 1 view .LVU416
 1165              		.loc 1 611 15 is_stmt 0 view .LVU417
 1166 0014 5B01     		lsls	r3, r3, #5
 1167              	.LVL155:
 1168              		.loc 1 611 13 view .LVU418
 1169 0016 0549     		ldr	r1, .L61
 1170              	.LVL156:
 1171              		.loc 1 611 13 view .LVU419
 1172 0018 8C46     		mov	ip, r1
 1173 001a 6344     		add	r3, r3, ip
 1174              	.LVL157:
 1175              	.L60:
 612:Drivers/STM32C0xx_HAL_Driver/Src/stm32c0xx_hal_exti.c ****   }
 613:Drivers/STM32C0xx_HAL_Driver/Src/stm32c0xx_hal_exti.c ****   else
 614:Drivers/STM32C0xx_HAL_Driver/Src/stm32c0xx_hal_exti.c ****   {
 615:Drivers/STM32C0xx_HAL_Driver/Src/stm32c0xx_hal_exti.c ****     /* Get falling edge pending register address */
 616:Drivers/STM32C0xx_HAL_Driver/Src/stm32c0xx_hal_exti.c ****     regaddr = (__IO uint32_t *)(&EXTI->RPR1 + (EXTI_CONFIG_OFFSET * offset));
 617:Drivers/STM32C0xx_HAL_Driver/Src/stm32c0xx_hal_exti.c ****   }
 618:Drivers/STM32C0xx_HAL_Driver/Src/stm32c0xx_hal_exti.c **** 
 619:Drivers/STM32C0xx_HAL_Driver/Src/stm32c0xx_hal_exti.c ****   /* Clear Pending bit */
 620:Drivers/STM32C0xx_HAL_Driver/Src/stm32c0xx_hal_exti.c ****   *regaddr =  maskline;
 1176              		.loc 1 620 3 is_stmt 1 view .LVU420
 1177              		.loc 1 620 12 is_stmt 0 view .LVU421
 1178 001c 1A60     		str	r2, [r3]
 621:Drivers/STM32C0xx_HAL_Driver/Src/stm32c0xx_hal_exti.c **** }
 1179              		.loc 1 621 1 view .LVU422
 1180              		@ sp needed
 1181              	.LVL158:
 1182              		.loc 1 621 1 view .LVU423
 1183 001e 10BD     		pop	{r4, pc}
ARM GAS  /var/folders/nl/kwfz41d55ync1k9vlz8wmkc80000gn/T//ccq26bS7.s 			page 34


 1184              	.LVL159:
 1185              	.L59:
 616:Drivers/STM32C0xx_HAL_Driver/Src/stm32c0xx_hal_exti.c ****   }
 1186              		.loc 1 616 5 is_stmt 1 view .LVU424
 616:Drivers/STM32C0xx_HAL_Driver/Src/stm32c0xx_hal_exti.c ****   }
 1187              		.loc 1 616 15 is_stmt 0 view .LVU425
 1188 0020 5B01     		lsls	r3, r3, #5
 1189              	.LVL160:
 616:Drivers/STM32C0xx_HAL_Driver/Src/stm32c0xx_hal_exti.c ****   }
 1190              		.loc 1 616 13 view .LVU426
 1191 0022 0349     		ldr	r1, .L61+4
 1192              	.LVL161:
 616:Drivers/STM32C0xx_HAL_Driver/Src/stm32c0xx_hal_exti.c ****   }
 1193              		.loc 1 616 13 view .LVU427
 1194 0024 8C46     		mov	ip, r1
 1195 0026 6344     		add	r3, r3, ip
 1196              	.LVL162:
 616:Drivers/STM32C0xx_HAL_Driver/Src/stm32c0xx_hal_exti.c ****   }
 1197              		.loc 1 616 13 view .LVU428
 1198 0028 F8E7     		b	.L60
 1199              	.L62:
 1200 002a C046     		.align	2
 1201              	.L61:
 1202 002c 10180240 		.word	1073879056
 1203 0030 0C180240 		.word	1073879052
 1204              		.cfi_endproc
 1205              	.LFE221:
 1207              		.section	.text.HAL_EXTI_GenerateSWI,"ax",%progbits
 1208              		.align	1
 1209              		.global	HAL_EXTI_GenerateSWI
 1210              		.syntax unified
 1211              		.code	16
 1212              		.thumb_func
 1214              	HAL_EXTI_GenerateSWI:
 1215              	.LVL163:
 1216              	.LFB222:
 622:Drivers/STM32C0xx_HAL_Driver/Src/stm32c0xx_hal_exti.c **** 
 623:Drivers/STM32C0xx_HAL_Driver/Src/stm32c0xx_hal_exti.c **** 
 624:Drivers/STM32C0xx_HAL_Driver/Src/stm32c0xx_hal_exti.c **** /**
 625:Drivers/STM32C0xx_HAL_Driver/Src/stm32c0xx_hal_exti.c ****   * @brief  Generate a software interrupt for a dedicated line.
 626:Drivers/STM32C0xx_HAL_Driver/Src/stm32c0xx_hal_exti.c ****   * @param  hexti Exti handle.
 627:Drivers/STM32C0xx_HAL_Driver/Src/stm32c0xx_hal_exti.c ****   * @retval None.
 628:Drivers/STM32C0xx_HAL_Driver/Src/stm32c0xx_hal_exti.c ****   */
 629:Drivers/STM32C0xx_HAL_Driver/Src/stm32c0xx_hal_exti.c **** void HAL_EXTI_GenerateSWI(const EXTI_HandleTypeDef *hexti)
 630:Drivers/STM32C0xx_HAL_Driver/Src/stm32c0xx_hal_exti.c **** {
 1217              		.loc 1 630 1 is_stmt 1 view -0
 1218              		.cfi_startproc
 1219              		@ args = 0, pretend = 0, frame = 0
 1220              		@ frame_needed = 0, uses_anonymous_args = 0
 1221              		@ link register save eliminated.
 631:Drivers/STM32C0xx_HAL_Driver/Src/stm32c0xx_hal_exti.c ****   __IO uint32_t *regaddr;
 1222              		.loc 1 631 3 view .LVU430
 632:Drivers/STM32C0xx_HAL_Driver/Src/stm32c0xx_hal_exti.c ****   uint32_t maskline;
 1223              		.loc 1 632 3 view .LVU431
 633:Drivers/STM32C0xx_HAL_Driver/Src/stm32c0xx_hal_exti.c ****   uint32_t offset;
 1224              		.loc 1 633 3 view .LVU432
 634:Drivers/STM32C0xx_HAL_Driver/Src/stm32c0xx_hal_exti.c **** 
ARM GAS  /var/folders/nl/kwfz41d55ync1k9vlz8wmkc80000gn/T//ccq26bS7.s 			page 35


 635:Drivers/STM32C0xx_HAL_Driver/Src/stm32c0xx_hal_exti.c ****   /* Check the parameters */
 636:Drivers/STM32C0xx_HAL_Driver/Src/stm32c0xx_hal_exti.c ****   assert_param(IS_EXTI_LINE(hexti->Line));
 1225              		.loc 1 636 3 view .LVU433
 637:Drivers/STM32C0xx_HAL_Driver/Src/stm32c0xx_hal_exti.c ****   assert_param(IS_EXTI_CONFIG_LINE(hexti->Line));
 1226              		.loc 1 637 3 view .LVU434
 638:Drivers/STM32C0xx_HAL_Driver/Src/stm32c0xx_hal_exti.c **** 
 639:Drivers/STM32C0xx_HAL_Driver/Src/stm32c0xx_hal_exti.c ****   /* compute line register offset and line mask */
 640:Drivers/STM32C0xx_HAL_Driver/Src/stm32c0xx_hal_exti.c ****   offset = ((hexti->Line & EXTI_REG_MASK) >> EXTI_REG_SHIFT);
 1227              		.loc 1 640 3 view .LVU435
 1228              		.loc 1 640 19 is_stmt 0 view .LVU436
 1229 0000 0068     		ldr	r0, [r0]
 1230              	.LVL164:
 1231              		.loc 1 640 43 view .LVU437
 1232 0002 030C     		lsrs	r3, r0, #16
 1233              		.loc 1 640 10 view .LVU438
 1234 0004 0122     		movs	r2, #1
 1235 0006 1340     		ands	r3, r2
 1236              	.LVL165:
 641:Drivers/STM32C0xx_HAL_Driver/Src/stm32c0xx_hal_exti.c ****   maskline = (1UL << (hexti->Line & EXTI_PIN_MASK));
 1237              		.loc 1 641 3 is_stmt 1 view .LVU439
 1238              		.loc 1 641 35 is_stmt 0 view .LVU440
 1239 0008 1F21     		movs	r1, #31
 1240 000a 0140     		ands	r1, r0
 1241              		.loc 1 641 12 view .LVU441
 1242 000c 8A40     		lsls	r2, r2, r1
 1243              	.LVL166:
 642:Drivers/STM32C0xx_HAL_Driver/Src/stm32c0xx_hal_exti.c **** 
 643:Drivers/STM32C0xx_HAL_Driver/Src/stm32c0xx_hal_exti.c ****   regaddr = (__IO uint32_t *)(&EXTI->SWIER1 + (EXTI_CONFIG_OFFSET * offset));
 1244              		.loc 1 643 3 is_stmt 1 view .LVU442
 1245              		.loc 1 643 13 is_stmt 0 view .LVU443
 1246 000e 5B01     		lsls	r3, r3, #5
 1247              	.LVL167:
 1248              		.loc 1 643 11 view .LVU444
 1249 0010 0249     		ldr	r1, .L64
 1250 0012 8C46     		mov	ip, r1
 1251 0014 6344     		add	r3, r3, ip
 1252              	.LVL168:
 644:Drivers/STM32C0xx_HAL_Driver/Src/stm32c0xx_hal_exti.c ****   *regaddr = maskline;
 1253              		.loc 1 644 3 is_stmt 1 view .LVU445
 1254              		.loc 1 644 12 is_stmt 0 view .LVU446
 1255 0016 1A60     		str	r2, [r3]
 645:Drivers/STM32C0xx_HAL_Driver/Src/stm32c0xx_hal_exti.c **** }
 1256              		.loc 1 645 1 view .LVU447
 1257              		@ sp needed
 1258 0018 7047     		bx	lr
 1259              	.L65:
 1260 001a C046     		.align	2
 1261              	.L64:
 1262 001c 08180240 		.word	1073879048
 1263              		.cfi_endproc
 1264              	.LFE222:
 1266              		.text
 1267              	.Letext0:
 1268              		.file 2 "/usr/local/arm-none-eabi/include/machine/_default_types.h"
 1269              		.file 3 "/usr/local/arm-none-eabi/include/sys/_stdint.h"
 1270              		.file 4 "Drivers/CMSIS/Device/ST/STM32C0xx/Include/stm32c031xx.h"
 1271              		.file 5 "Drivers/STM32C0xx_HAL_Driver/Inc/stm32c0xx_hal_def.h"
ARM GAS  /var/folders/nl/kwfz41d55ync1k9vlz8wmkc80000gn/T//ccq26bS7.s 			page 36


 1272              		.file 6 "Drivers/STM32C0xx_HAL_Driver/Inc/stm32c0xx_hal_exti.h"
ARM GAS  /var/folders/nl/kwfz41d55ync1k9vlz8wmkc80000gn/T//ccq26bS7.s 			page 37

