ARM GAS  /var/folders/nl/kwfz41d55ync1k9vlz8wmkc80000gn/T//cc9IAU1x.s 			page 1


   1              		.cpu cortex-m0plus
   2              		.arch armv6s-m
   3              		.fpu softvfp
   4              		.eabi_attribute 20, 1
   5              		.eabi_attribute 21, 1
   6              		.eabi_attribute 23, 3
   7              		.eabi_attribute 24, 1
   8              		.eabi_attribute 25, 1
   9              		.eabi_attribute 26, 1
  10              		.eabi_attribute 30, 1
  11              		.eabi_attribute 34, 0
  12              		.eabi_attribute 18, 4
  13              		.file	"stm32c0xx_hal_dma.c"
  14              		.text
  15              	.Ltext0:
  16              		.cfi_sections	.debug_frame
  17              		.section	.text.DMA_SetConfig,"ax",%progbits
  18              		.align	1
  19              		.syntax unified
  20              		.code	16
  21              		.thumb_func
  23              	DMA_SetConfig:
  24              	.LVL0:
  25              	.LFB226:
  26              		.file 1 "Drivers/STM32C0xx_HAL_Driver/Src/stm32c0xx_hal_dma.c"
   1:Drivers/STM32C0xx_HAL_Driver/Src/stm32c0xx_hal_dma.c **** /**
   2:Drivers/STM32C0xx_HAL_Driver/Src/stm32c0xx_hal_dma.c ****   ******************************************************************************
   3:Drivers/STM32C0xx_HAL_Driver/Src/stm32c0xx_hal_dma.c ****   * @file    stm32c0xx_hal_dma.c
   4:Drivers/STM32C0xx_HAL_Driver/Src/stm32c0xx_hal_dma.c ****   * @author  MCD Application Team
   5:Drivers/STM32C0xx_HAL_Driver/Src/stm32c0xx_hal_dma.c ****   * @brief   DMA HAL module driver.
   6:Drivers/STM32C0xx_HAL_Driver/Src/stm32c0xx_hal_dma.c ****   *         This file provides firmware functions to manage the following
   7:Drivers/STM32C0xx_HAL_Driver/Src/stm32c0xx_hal_dma.c ****   *         functionalities of the Direct Memory Access (DMA) peripheral:
   8:Drivers/STM32C0xx_HAL_Driver/Src/stm32c0xx_hal_dma.c ****   *           + Initialization and de-initialization functions
   9:Drivers/STM32C0xx_HAL_Driver/Src/stm32c0xx_hal_dma.c ****   *           + IO operation functions
  10:Drivers/STM32C0xx_HAL_Driver/Src/stm32c0xx_hal_dma.c ****   *           + Peripheral State and errors functions
  11:Drivers/STM32C0xx_HAL_Driver/Src/stm32c0xx_hal_dma.c ****   ******************************************************************************
  12:Drivers/STM32C0xx_HAL_Driver/Src/stm32c0xx_hal_dma.c ****   * @attention
  13:Drivers/STM32C0xx_HAL_Driver/Src/stm32c0xx_hal_dma.c ****   *
  14:Drivers/STM32C0xx_HAL_Driver/Src/stm32c0xx_hal_dma.c ****   * Copyright (c) 2022 STMicroelectronics.
  15:Drivers/STM32C0xx_HAL_Driver/Src/stm32c0xx_hal_dma.c ****   * All rights reserved.
  16:Drivers/STM32C0xx_HAL_Driver/Src/stm32c0xx_hal_dma.c ****   *
  17:Drivers/STM32C0xx_HAL_Driver/Src/stm32c0xx_hal_dma.c ****   * This software is licensed under terms that can be found in the LICENSE file
  18:Drivers/STM32C0xx_HAL_Driver/Src/stm32c0xx_hal_dma.c ****   * in the root directory of this software component.
  19:Drivers/STM32C0xx_HAL_Driver/Src/stm32c0xx_hal_dma.c ****   * If no LICENSE file comes with this software, it is provided AS-IS.
  20:Drivers/STM32C0xx_HAL_Driver/Src/stm32c0xx_hal_dma.c ****   *
  21:Drivers/STM32C0xx_HAL_Driver/Src/stm32c0xx_hal_dma.c ****   ******************************************************************************
  22:Drivers/STM32C0xx_HAL_Driver/Src/stm32c0xx_hal_dma.c ****   @verbatim
  23:Drivers/STM32C0xx_HAL_Driver/Src/stm32c0xx_hal_dma.c ****   ==============================================================================
  24:Drivers/STM32C0xx_HAL_Driver/Src/stm32c0xx_hal_dma.c ****                         ##### How to use this driver #####
  25:Drivers/STM32C0xx_HAL_Driver/Src/stm32c0xx_hal_dma.c ****   ==============================================================================
  26:Drivers/STM32C0xx_HAL_Driver/Src/stm32c0xx_hal_dma.c ****   [..]
  27:Drivers/STM32C0xx_HAL_Driver/Src/stm32c0xx_hal_dma.c ****    (#) Enable and configure the peripheral to be connected to the DMA Channel
  28:Drivers/STM32C0xx_HAL_Driver/Src/stm32c0xx_hal_dma.c ****        (except for internal SRAM / FLASH memories: no initialization is
  29:Drivers/STM32C0xx_HAL_Driver/Src/stm32c0xx_hal_dma.c ****        necessary). Please refer to the Reference manual for connection between peripherals
  30:Drivers/STM32C0xx_HAL_Driver/Src/stm32c0xx_hal_dma.c ****        and DMA requests.
  31:Drivers/STM32C0xx_HAL_Driver/Src/stm32c0xx_hal_dma.c **** 
  32:Drivers/STM32C0xx_HAL_Driver/Src/stm32c0xx_hal_dma.c ****    (#) For a given Channel, program the required configuration through the following parameters:
ARM GAS  /var/folders/nl/kwfz41d55ync1k9vlz8wmkc80000gn/T//cc9IAU1x.s 			page 2


  33:Drivers/STM32C0xx_HAL_Driver/Src/stm32c0xx_hal_dma.c ****        Channel request, Transfer Direction, Source and Destination data formats,
  34:Drivers/STM32C0xx_HAL_Driver/Src/stm32c0xx_hal_dma.c ****        Circular or Normal mode, Channel Priority level, Source and Destination Increment mode
  35:Drivers/STM32C0xx_HAL_Driver/Src/stm32c0xx_hal_dma.c ****        using HAL_DMA_Init() function.
  36:Drivers/STM32C0xx_HAL_Driver/Src/stm32c0xx_hal_dma.c **** 
  37:Drivers/STM32C0xx_HAL_Driver/Src/stm32c0xx_hal_dma.c ****        Prior to HAL_DMA_Init the CLK shall be enabled for both DMA & DMAMUX
  38:Drivers/STM32C0xx_HAL_Driver/Src/stm32c0xx_hal_dma.c ****        thanks to:
  39:Drivers/STM32C0xx_HAL_Driver/Src/stm32c0xx_hal_dma.c ****        DMA1   :       __HAL_RCC_DMA1_CLK_ENABLE();
  40:Drivers/STM32C0xx_HAL_Driver/Src/stm32c0xx_hal_dma.c **** 
  41:Drivers/STM32C0xx_HAL_Driver/Src/stm32c0xx_hal_dma.c ****    (#) Use HAL_DMA_GetState() function to return the DMA state and HAL_DMA_GetError() in case of er
  42:Drivers/STM32C0xx_HAL_Driver/Src/stm32c0xx_hal_dma.c ****        detection.
  43:Drivers/STM32C0xx_HAL_Driver/Src/stm32c0xx_hal_dma.c **** 
  44:Drivers/STM32C0xx_HAL_Driver/Src/stm32c0xx_hal_dma.c ****    (#) Use HAL_DMA_Abort() function to abort the current transfer
  45:Drivers/STM32C0xx_HAL_Driver/Src/stm32c0xx_hal_dma.c **** 
  46:Drivers/STM32C0xx_HAL_Driver/Src/stm32c0xx_hal_dma.c ****      -@-   In Memory-to-Memory transfer mode, Circular mode is not allowed.
  47:Drivers/STM32C0xx_HAL_Driver/Src/stm32c0xx_hal_dma.c ****      *** Polling mode IO operation ***
  48:Drivers/STM32C0xx_HAL_Driver/Src/stm32c0xx_hal_dma.c ****      =================================
  49:Drivers/STM32C0xx_HAL_Driver/Src/stm32c0xx_hal_dma.c ****     [..]
  50:Drivers/STM32C0xx_HAL_Driver/Src/stm32c0xx_hal_dma.c ****           (+) Use HAL_DMA_Start() to start DMA transfer after the configuration of Source
  51:Drivers/STM32C0xx_HAL_Driver/Src/stm32c0xx_hal_dma.c ****               address and destination address and the Length of data to be transferred
  52:Drivers/STM32C0xx_HAL_Driver/Src/stm32c0xx_hal_dma.c ****           (+) Use HAL_DMA_PollForTransfer() to poll for the end of current transfer, in this
  53:Drivers/STM32C0xx_HAL_Driver/Src/stm32c0xx_hal_dma.c ****               case a fixed Timeout can be configured by User depending from his application.
  54:Drivers/STM32C0xx_HAL_Driver/Src/stm32c0xx_hal_dma.c **** 
  55:Drivers/STM32C0xx_HAL_Driver/Src/stm32c0xx_hal_dma.c ****      *** Interrupt mode IO operation ***
  56:Drivers/STM32C0xx_HAL_Driver/Src/stm32c0xx_hal_dma.c ****      ===================================
  57:Drivers/STM32C0xx_HAL_Driver/Src/stm32c0xx_hal_dma.c ****     [..]
  58:Drivers/STM32C0xx_HAL_Driver/Src/stm32c0xx_hal_dma.c ****           (+) Configure the DMA interrupt priority using HAL_NVIC_SetPriority()
  59:Drivers/STM32C0xx_HAL_Driver/Src/stm32c0xx_hal_dma.c ****           (+) Enable the DMA IRQ handler using HAL_NVIC_EnableIRQ()
  60:Drivers/STM32C0xx_HAL_Driver/Src/stm32c0xx_hal_dma.c ****           (+) Use HAL_DMA_Start_IT() to start DMA transfer after the configuration of
  61:Drivers/STM32C0xx_HAL_Driver/Src/stm32c0xx_hal_dma.c ****               Source address and destination address and the Length of data to be transferred.
  62:Drivers/STM32C0xx_HAL_Driver/Src/stm32c0xx_hal_dma.c ****               In this case the DMA interrupt is configured
  63:Drivers/STM32C0xx_HAL_Driver/Src/stm32c0xx_hal_dma.c ****           (+) Use HAL_DMA_IRQHandler() called under DMA_IRQHandler() Interrupt subroutine
  64:Drivers/STM32C0xx_HAL_Driver/Src/stm32c0xx_hal_dma.c ****           (+) At the end of data transfer HAL_DMA_IRQHandler() function is executed and user can
  65:Drivers/STM32C0xx_HAL_Driver/Src/stm32c0xx_hal_dma.c ****               add his own function by customization of function pointer XferCpltCallback and
  66:Drivers/STM32C0xx_HAL_Driver/Src/stm32c0xx_hal_dma.c ****               XferErrorCallback (i.e. a member of DMA handle structure).
  67:Drivers/STM32C0xx_HAL_Driver/Src/stm32c0xx_hal_dma.c **** 
  68:Drivers/STM32C0xx_HAL_Driver/Src/stm32c0xx_hal_dma.c ****      *** DMA HAL driver macros list ***
  69:Drivers/STM32C0xx_HAL_Driver/Src/stm32c0xx_hal_dma.c ****      =============================================
  70:Drivers/STM32C0xx_HAL_Driver/Src/stm32c0xx_hal_dma.c ****       [..]
  71:Drivers/STM32C0xx_HAL_Driver/Src/stm32c0xx_hal_dma.c ****        Below the list of most used macros in DMA HAL driver.
  72:Drivers/STM32C0xx_HAL_Driver/Src/stm32c0xx_hal_dma.c **** 
  73:Drivers/STM32C0xx_HAL_Driver/Src/stm32c0xx_hal_dma.c ****        (+) __HAL_DMA_ENABLE: Enable the specified DMA Channel.
  74:Drivers/STM32C0xx_HAL_Driver/Src/stm32c0xx_hal_dma.c ****        (+) __HAL_DMA_DISABLE: Disable the specified DMA Channel.
  75:Drivers/STM32C0xx_HAL_Driver/Src/stm32c0xx_hal_dma.c ****        (+) __HAL_DMA_GET_FLAG: Get the DMA Channel pending flags.
  76:Drivers/STM32C0xx_HAL_Driver/Src/stm32c0xx_hal_dma.c ****        (+) __HAL_DMA_CLEAR_FLAG: Clear the DMA Channel pending flags.
  77:Drivers/STM32C0xx_HAL_Driver/Src/stm32c0xx_hal_dma.c ****        (+) __HAL_DMA_ENABLE_IT: Enable the specified DMA Channel interrupts.
  78:Drivers/STM32C0xx_HAL_Driver/Src/stm32c0xx_hal_dma.c ****        (+) __HAL_DMA_DISABLE_IT: Disable the specified DMA Channel interrupts.
  79:Drivers/STM32C0xx_HAL_Driver/Src/stm32c0xx_hal_dma.c ****        (+) __HAL_DMA_GET_IT_SOURCE: Check whether the specified DMA Channel interrupt has occurred 
  80:Drivers/STM32C0xx_HAL_Driver/Src/stm32c0xx_hal_dma.c **** 
  81:Drivers/STM32C0xx_HAL_Driver/Src/stm32c0xx_hal_dma.c ****      [..]
  82:Drivers/STM32C0xx_HAL_Driver/Src/stm32c0xx_hal_dma.c ****       (@) You can refer to the DMA HAL driver header file for more useful macros
  83:Drivers/STM32C0xx_HAL_Driver/Src/stm32c0xx_hal_dma.c **** 
  84:Drivers/STM32C0xx_HAL_Driver/Src/stm32c0xx_hal_dma.c ****   @endverbatim
  85:Drivers/STM32C0xx_HAL_Driver/Src/stm32c0xx_hal_dma.c ****   ******************************************************************************
  86:Drivers/STM32C0xx_HAL_Driver/Src/stm32c0xx_hal_dma.c ****   */
  87:Drivers/STM32C0xx_HAL_Driver/Src/stm32c0xx_hal_dma.c **** 
  88:Drivers/STM32C0xx_HAL_Driver/Src/stm32c0xx_hal_dma.c **** /* Includes ------------------------------------------------------------------*/
  89:Drivers/STM32C0xx_HAL_Driver/Src/stm32c0xx_hal_dma.c **** #include "stm32c0xx_hal.h"
ARM GAS  /var/folders/nl/kwfz41d55ync1k9vlz8wmkc80000gn/T//cc9IAU1x.s 			page 3


  90:Drivers/STM32C0xx_HAL_Driver/Src/stm32c0xx_hal_dma.c **** 
  91:Drivers/STM32C0xx_HAL_Driver/Src/stm32c0xx_hal_dma.c **** /** @addtogroup STM32C0xx_HAL_Driver
  92:Drivers/STM32C0xx_HAL_Driver/Src/stm32c0xx_hal_dma.c ****   * @{
  93:Drivers/STM32C0xx_HAL_Driver/Src/stm32c0xx_hal_dma.c ****   */
  94:Drivers/STM32C0xx_HAL_Driver/Src/stm32c0xx_hal_dma.c **** 
  95:Drivers/STM32C0xx_HAL_Driver/Src/stm32c0xx_hal_dma.c **** /** @defgroup DMA DMA
  96:Drivers/STM32C0xx_HAL_Driver/Src/stm32c0xx_hal_dma.c ****   * @brief DMA HAL module driver
  97:Drivers/STM32C0xx_HAL_Driver/Src/stm32c0xx_hal_dma.c ****   * @{
  98:Drivers/STM32C0xx_HAL_Driver/Src/stm32c0xx_hal_dma.c ****   */
  99:Drivers/STM32C0xx_HAL_Driver/Src/stm32c0xx_hal_dma.c **** 
 100:Drivers/STM32C0xx_HAL_Driver/Src/stm32c0xx_hal_dma.c **** #ifdef HAL_DMA_MODULE_ENABLED
 101:Drivers/STM32C0xx_HAL_Driver/Src/stm32c0xx_hal_dma.c **** 
 102:Drivers/STM32C0xx_HAL_Driver/Src/stm32c0xx_hal_dma.c **** /* Private typedef -----------------------------------------------------------*/
 103:Drivers/STM32C0xx_HAL_Driver/Src/stm32c0xx_hal_dma.c **** /* Private define ------------------------------------------------------------*/
 104:Drivers/STM32C0xx_HAL_Driver/Src/stm32c0xx_hal_dma.c **** /* Private macro -------------------------------------------------------------*/
 105:Drivers/STM32C0xx_HAL_Driver/Src/stm32c0xx_hal_dma.c **** /* Private variables ---------------------------------------------------------*/
 106:Drivers/STM32C0xx_HAL_Driver/Src/stm32c0xx_hal_dma.c **** /* Private function prototypes -----------------------------------------------*/
 107:Drivers/STM32C0xx_HAL_Driver/Src/stm32c0xx_hal_dma.c **** 
 108:Drivers/STM32C0xx_HAL_Driver/Src/stm32c0xx_hal_dma.c **** /** @defgroup DMA_Private_Functions DMA Private Functions
 109:Drivers/STM32C0xx_HAL_Driver/Src/stm32c0xx_hal_dma.c ****   * @{
 110:Drivers/STM32C0xx_HAL_Driver/Src/stm32c0xx_hal_dma.c ****   */
 111:Drivers/STM32C0xx_HAL_Driver/Src/stm32c0xx_hal_dma.c **** static void DMA_SetConfig(DMA_HandleTypeDef *hdma, uint32_t SrcAddress, uint32_t DstAddress, uint32
 112:Drivers/STM32C0xx_HAL_Driver/Src/stm32c0xx_hal_dma.c **** static void DMA_CalcDMAMUXChannelBaseAndMask(DMA_HandleTypeDef *hdma);
 113:Drivers/STM32C0xx_HAL_Driver/Src/stm32c0xx_hal_dma.c **** static void DMA_CalcDMAMUXRequestGenBaseAndMask(DMA_HandleTypeDef *hdma);
 114:Drivers/STM32C0xx_HAL_Driver/Src/stm32c0xx_hal_dma.c **** 
 115:Drivers/STM32C0xx_HAL_Driver/Src/stm32c0xx_hal_dma.c **** /**
 116:Drivers/STM32C0xx_HAL_Driver/Src/stm32c0xx_hal_dma.c ****   * @}
 117:Drivers/STM32C0xx_HAL_Driver/Src/stm32c0xx_hal_dma.c ****   */
 118:Drivers/STM32C0xx_HAL_Driver/Src/stm32c0xx_hal_dma.c **** 
 119:Drivers/STM32C0xx_HAL_Driver/Src/stm32c0xx_hal_dma.c **** /* Exported functions ---------------------------------------------------------*/
 120:Drivers/STM32C0xx_HAL_Driver/Src/stm32c0xx_hal_dma.c **** 
 121:Drivers/STM32C0xx_HAL_Driver/Src/stm32c0xx_hal_dma.c **** /** @defgroup DMA_Exported_Functions DMA Exported Functions
 122:Drivers/STM32C0xx_HAL_Driver/Src/stm32c0xx_hal_dma.c ****   * @{
 123:Drivers/STM32C0xx_HAL_Driver/Src/stm32c0xx_hal_dma.c ****   */
 124:Drivers/STM32C0xx_HAL_Driver/Src/stm32c0xx_hal_dma.c **** 
 125:Drivers/STM32C0xx_HAL_Driver/Src/stm32c0xx_hal_dma.c **** /** @defgroup DMA_Exported_Functions_Group1 Initialization and de-initialization functions
 126:Drivers/STM32C0xx_HAL_Driver/Src/stm32c0xx_hal_dma.c ****   *  @brief   Initialization and de-initialization functions
 127:Drivers/STM32C0xx_HAL_Driver/Src/stm32c0xx_hal_dma.c ****   *
 128:Drivers/STM32C0xx_HAL_Driver/Src/stm32c0xx_hal_dma.c **** @verbatim
 129:Drivers/STM32C0xx_HAL_Driver/Src/stm32c0xx_hal_dma.c ****  ===============================================================================
 130:Drivers/STM32C0xx_HAL_Driver/Src/stm32c0xx_hal_dma.c ****              ##### Initialization and de-initialization functions  #####
 131:Drivers/STM32C0xx_HAL_Driver/Src/stm32c0xx_hal_dma.c ****  ===============================================================================
 132:Drivers/STM32C0xx_HAL_Driver/Src/stm32c0xx_hal_dma.c ****     [..]
 133:Drivers/STM32C0xx_HAL_Driver/Src/stm32c0xx_hal_dma.c ****     This section provides functions allowing to initialize the DMA Channel source
 134:Drivers/STM32C0xx_HAL_Driver/Src/stm32c0xx_hal_dma.c ****     and destination addresses, incrementation and data sizes, transfer direction,
 135:Drivers/STM32C0xx_HAL_Driver/Src/stm32c0xx_hal_dma.c ****     circular/normal mode selection, memory-to-memory mode selection and Channel priority value.
 136:Drivers/STM32C0xx_HAL_Driver/Src/stm32c0xx_hal_dma.c ****     [..]
 137:Drivers/STM32C0xx_HAL_Driver/Src/stm32c0xx_hal_dma.c ****     The HAL_DMA_Init() function follows the DMA configuration procedures as described in
 138:Drivers/STM32C0xx_HAL_Driver/Src/stm32c0xx_hal_dma.c ****     reference manual.
 139:Drivers/STM32C0xx_HAL_Driver/Src/stm32c0xx_hal_dma.c **** 
 140:Drivers/STM32C0xx_HAL_Driver/Src/stm32c0xx_hal_dma.c **** @endverbatim
 141:Drivers/STM32C0xx_HAL_Driver/Src/stm32c0xx_hal_dma.c ****   * @{
 142:Drivers/STM32C0xx_HAL_Driver/Src/stm32c0xx_hal_dma.c ****   */
 143:Drivers/STM32C0xx_HAL_Driver/Src/stm32c0xx_hal_dma.c **** 
 144:Drivers/STM32C0xx_HAL_Driver/Src/stm32c0xx_hal_dma.c **** /**
 145:Drivers/STM32C0xx_HAL_Driver/Src/stm32c0xx_hal_dma.c ****   * @brief  Initialize the DMA according to the specified
 146:Drivers/STM32C0xx_HAL_Driver/Src/stm32c0xx_hal_dma.c ****   *         parameters in the DMA_InitTypeDef and initialize the associated handle.
ARM GAS  /var/folders/nl/kwfz41d55ync1k9vlz8wmkc80000gn/T//cc9IAU1x.s 			page 4


 147:Drivers/STM32C0xx_HAL_Driver/Src/stm32c0xx_hal_dma.c ****   * @param  hdma  Pointer to a DMA_HandleTypeDef structure that contains
 148:Drivers/STM32C0xx_HAL_Driver/Src/stm32c0xx_hal_dma.c ****   *               the configuration information for the specified DMA Channel.
 149:Drivers/STM32C0xx_HAL_Driver/Src/stm32c0xx_hal_dma.c ****   * @retval HAL status
 150:Drivers/STM32C0xx_HAL_Driver/Src/stm32c0xx_hal_dma.c ****   */
 151:Drivers/STM32C0xx_HAL_Driver/Src/stm32c0xx_hal_dma.c **** HAL_StatusTypeDef HAL_DMA_Init(DMA_HandleTypeDef *hdma)
 152:Drivers/STM32C0xx_HAL_Driver/Src/stm32c0xx_hal_dma.c **** {
 153:Drivers/STM32C0xx_HAL_Driver/Src/stm32c0xx_hal_dma.c ****   /* Check the DMA handle allocation */
 154:Drivers/STM32C0xx_HAL_Driver/Src/stm32c0xx_hal_dma.c ****   if (hdma == NULL)
 155:Drivers/STM32C0xx_HAL_Driver/Src/stm32c0xx_hal_dma.c ****   {
 156:Drivers/STM32C0xx_HAL_Driver/Src/stm32c0xx_hal_dma.c ****     return HAL_ERROR;
 157:Drivers/STM32C0xx_HAL_Driver/Src/stm32c0xx_hal_dma.c ****   }
 158:Drivers/STM32C0xx_HAL_Driver/Src/stm32c0xx_hal_dma.c **** 
 159:Drivers/STM32C0xx_HAL_Driver/Src/stm32c0xx_hal_dma.c ****   /* Check the parameters */
 160:Drivers/STM32C0xx_HAL_Driver/Src/stm32c0xx_hal_dma.c ****   assert_param(IS_DMA_ALL_INSTANCE(hdma->Instance));
 161:Drivers/STM32C0xx_HAL_Driver/Src/stm32c0xx_hal_dma.c ****   assert_param(IS_DMA_DIRECTION(hdma->Init.Direction));
 162:Drivers/STM32C0xx_HAL_Driver/Src/stm32c0xx_hal_dma.c ****   assert_param(IS_DMA_PERIPHERAL_INC_STATE(hdma->Init.PeriphInc));
 163:Drivers/STM32C0xx_HAL_Driver/Src/stm32c0xx_hal_dma.c ****   assert_param(IS_DMA_MEMORY_INC_STATE(hdma->Init.MemInc));
 164:Drivers/STM32C0xx_HAL_Driver/Src/stm32c0xx_hal_dma.c ****   assert_param(IS_DMA_PERIPHERAL_DATA_SIZE(hdma->Init.PeriphDataAlignment));
 165:Drivers/STM32C0xx_HAL_Driver/Src/stm32c0xx_hal_dma.c ****   assert_param(IS_DMA_MEMORY_DATA_SIZE(hdma->Init.MemDataAlignment));
 166:Drivers/STM32C0xx_HAL_Driver/Src/stm32c0xx_hal_dma.c ****   assert_param(IS_DMA_MODE(hdma->Init.Mode));
 167:Drivers/STM32C0xx_HAL_Driver/Src/stm32c0xx_hal_dma.c ****   assert_param(IS_DMA_PRIORITY(hdma->Init.Priority));
 168:Drivers/STM32C0xx_HAL_Driver/Src/stm32c0xx_hal_dma.c **** 
 169:Drivers/STM32C0xx_HAL_Driver/Src/stm32c0xx_hal_dma.c ****   /* calculation of the channel index */
 170:Drivers/STM32C0xx_HAL_Driver/Src/stm32c0xx_hal_dma.c ****   hdma->ChannelIndex = (((uint32_t)hdma->Instance - (uint32_t)DMA1_Channel1) / ((uint32_t)DMA1_Chan
 171:Drivers/STM32C0xx_HAL_Driver/Src/stm32c0xx_hal_dma.c ****                                                                                 (uint32_t)DMA1_Chan
 172:Drivers/STM32C0xx_HAL_Driver/Src/stm32c0xx_hal_dma.c **** 
 173:Drivers/STM32C0xx_HAL_Driver/Src/stm32c0xx_hal_dma.c ****   /* Change DMA peripheral state */
 174:Drivers/STM32C0xx_HAL_Driver/Src/stm32c0xx_hal_dma.c ****   hdma->State = HAL_DMA_STATE_BUSY;
 175:Drivers/STM32C0xx_HAL_Driver/Src/stm32c0xx_hal_dma.c **** 
 176:Drivers/STM32C0xx_HAL_Driver/Src/stm32c0xx_hal_dma.c ****   /* Clear PL, MSIZE, PSIZE, MINC, PINC, CIRC, DIR and MEM2MEM bits */
 177:Drivers/STM32C0xx_HAL_Driver/Src/stm32c0xx_hal_dma.c ****   CLEAR_BIT(hdma->Instance->CCR, (DMA_CCR_PL    | DMA_CCR_MSIZE  | DMA_CCR_PSIZE  | \
 178:Drivers/STM32C0xx_HAL_Driver/Src/stm32c0xx_hal_dma.c ****                                   DMA_CCR_MINC  | DMA_CCR_PINC   | DMA_CCR_CIRC   | \
 179:Drivers/STM32C0xx_HAL_Driver/Src/stm32c0xx_hal_dma.c ****                                   DMA_CCR_DIR   | DMA_CCR_MEM2MEM));
 180:Drivers/STM32C0xx_HAL_Driver/Src/stm32c0xx_hal_dma.c **** 
 181:Drivers/STM32C0xx_HAL_Driver/Src/stm32c0xx_hal_dma.c ****   /* Set the DMA Channel configuration */
 182:Drivers/STM32C0xx_HAL_Driver/Src/stm32c0xx_hal_dma.c ****   SET_BIT(hdma->Instance->CCR, (hdma->Init.Direction           |                               \
 183:Drivers/STM32C0xx_HAL_Driver/Src/stm32c0xx_hal_dma.c ****                                 hdma->Init.PeriphInc           | hdma->Init.MemInc           | \
 184:Drivers/STM32C0xx_HAL_Driver/Src/stm32c0xx_hal_dma.c ****                                 hdma->Init.PeriphDataAlignment | hdma->Init.MemDataAlignment | \
 185:Drivers/STM32C0xx_HAL_Driver/Src/stm32c0xx_hal_dma.c ****                                 hdma->Init.Mode                | hdma->Init.Priority));
 186:Drivers/STM32C0xx_HAL_Driver/Src/stm32c0xx_hal_dma.c **** 
 187:Drivers/STM32C0xx_HAL_Driver/Src/stm32c0xx_hal_dma.c ****   /* Initialize parameters for DMAMUX channel :
 188:Drivers/STM32C0xx_HAL_Driver/Src/stm32c0xx_hal_dma.c ****      DMAmuxChannel, DMAmuxChannelStatus and DMAmuxChannelStatusMask
 189:Drivers/STM32C0xx_HAL_Driver/Src/stm32c0xx_hal_dma.c ****   */
 190:Drivers/STM32C0xx_HAL_Driver/Src/stm32c0xx_hal_dma.c ****   DMA_CalcDMAMUXChannelBaseAndMask(hdma);
 191:Drivers/STM32C0xx_HAL_Driver/Src/stm32c0xx_hal_dma.c **** 
 192:Drivers/STM32C0xx_HAL_Driver/Src/stm32c0xx_hal_dma.c ****   if (hdma->Init.Direction == DMA_MEMORY_TO_MEMORY)
 193:Drivers/STM32C0xx_HAL_Driver/Src/stm32c0xx_hal_dma.c ****   {
 194:Drivers/STM32C0xx_HAL_Driver/Src/stm32c0xx_hal_dma.c ****     /* if memory to memory force the request to 0*/
 195:Drivers/STM32C0xx_HAL_Driver/Src/stm32c0xx_hal_dma.c ****     hdma->Init.Request = DMA_REQUEST_MEM2MEM;
 196:Drivers/STM32C0xx_HAL_Driver/Src/stm32c0xx_hal_dma.c ****   }
 197:Drivers/STM32C0xx_HAL_Driver/Src/stm32c0xx_hal_dma.c **** 
 198:Drivers/STM32C0xx_HAL_Driver/Src/stm32c0xx_hal_dma.c ****   /* Set peripheral request  to DMAMUX channel */
 199:Drivers/STM32C0xx_HAL_Driver/Src/stm32c0xx_hal_dma.c ****   hdma->DMAmuxChannel->CCR = (hdma->Init.Request & DMAMUX_CxCR_DMAREQ_ID);
 200:Drivers/STM32C0xx_HAL_Driver/Src/stm32c0xx_hal_dma.c **** 
 201:Drivers/STM32C0xx_HAL_Driver/Src/stm32c0xx_hal_dma.c ****   /* Clear the DMAMUX synchro overrun flag */
 202:Drivers/STM32C0xx_HAL_Driver/Src/stm32c0xx_hal_dma.c ****   hdma->DMAmuxChannelStatus->CFR = hdma->DMAmuxChannelStatusMask;
 203:Drivers/STM32C0xx_HAL_Driver/Src/stm32c0xx_hal_dma.c **** 
ARM GAS  /var/folders/nl/kwfz41d55ync1k9vlz8wmkc80000gn/T//cc9IAU1x.s 			page 5


 204:Drivers/STM32C0xx_HAL_Driver/Src/stm32c0xx_hal_dma.c ****   if (((hdma->Init.Request >  0UL) && (hdma->Init.Request <= DMA_REQUEST_GENERATOR3)))
 205:Drivers/STM32C0xx_HAL_Driver/Src/stm32c0xx_hal_dma.c ****   {
 206:Drivers/STM32C0xx_HAL_Driver/Src/stm32c0xx_hal_dma.c ****     /* Initialize parameters for DMAMUX request generator :
 207:Drivers/STM32C0xx_HAL_Driver/Src/stm32c0xx_hal_dma.c ****        DMAmuxRequestGen, DMAmuxRequestGenStatus and DMAmuxRequestGenStatusMask
 208:Drivers/STM32C0xx_HAL_Driver/Src/stm32c0xx_hal_dma.c ****     */
 209:Drivers/STM32C0xx_HAL_Driver/Src/stm32c0xx_hal_dma.c ****     DMA_CalcDMAMUXRequestGenBaseAndMask(hdma);
 210:Drivers/STM32C0xx_HAL_Driver/Src/stm32c0xx_hal_dma.c **** 
 211:Drivers/STM32C0xx_HAL_Driver/Src/stm32c0xx_hal_dma.c ****     /* Reset the DMAMUX request generator register*/
 212:Drivers/STM32C0xx_HAL_Driver/Src/stm32c0xx_hal_dma.c ****     hdma->DMAmuxRequestGen->RGCR = 0U;
 213:Drivers/STM32C0xx_HAL_Driver/Src/stm32c0xx_hal_dma.c **** 
 214:Drivers/STM32C0xx_HAL_Driver/Src/stm32c0xx_hal_dma.c ****     /* Clear the DMAMUX request generator overrun flag */
 215:Drivers/STM32C0xx_HAL_Driver/Src/stm32c0xx_hal_dma.c ****     hdma->DMAmuxRequestGenStatus->RGCFR = hdma->DMAmuxRequestGenStatusMask;
 216:Drivers/STM32C0xx_HAL_Driver/Src/stm32c0xx_hal_dma.c ****   }
 217:Drivers/STM32C0xx_HAL_Driver/Src/stm32c0xx_hal_dma.c ****   else
 218:Drivers/STM32C0xx_HAL_Driver/Src/stm32c0xx_hal_dma.c ****   {
 219:Drivers/STM32C0xx_HAL_Driver/Src/stm32c0xx_hal_dma.c ****     hdma->DMAmuxRequestGen = 0U;
 220:Drivers/STM32C0xx_HAL_Driver/Src/stm32c0xx_hal_dma.c ****     hdma->DMAmuxRequestGenStatus = 0U;
 221:Drivers/STM32C0xx_HAL_Driver/Src/stm32c0xx_hal_dma.c ****     hdma->DMAmuxRequestGenStatusMask = 0U;
 222:Drivers/STM32C0xx_HAL_Driver/Src/stm32c0xx_hal_dma.c ****   }
 223:Drivers/STM32C0xx_HAL_Driver/Src/stm32c0xx_hal_dma.c **** 
 224:Drivers/STM32C0xx_HAL_Driver/Src/stm32c0xx_hal_dma.c ****   /* Initialize the error code */
 225:Drivers/STM32C0xx_HAL_Driver/Src/stm32c0xx_hal_dma.c ****   hdma->ErrorCode = HAL_DMA_ERROR_NONE;
 226:Drivers/STM32C0xx_HAL_Driver/Src/stm32c0xx_hal_dma.c **** 
 227:Drivers/STM32C0xx_HAL_Driver/Src/stm32c0xx_hal_dma.c ****   /* Initialize the DMA state*/
 228:Drivers/STM32C0xx_HAL_Driver/Src/stm32c0xx_hal_dma.c ****   hdma->State  = HAL_DMA_STATE_READY;
 229:Drivers/STM32C0xx_HAL_Driver/Src/stm32c0xx_hal_dma.c **** 
 230:Drivers/STM32C0xx_HAL_Driver/Src/stm32c0xx_hal_dma.c ****   /* Release Lock */
 231:Drivers/STM32C0xx_HAL_Driver/Src/stm32c0xx_hal_dma.c ****   __HAL_UNLOCK(hdma);
 232:Drivers/STM32C0xx_HAL_Driver/Src/stm32c0xx_hal_dma.c **** 
 233:Drivers/STM32C0xx_HAL_Driver/Src/stm32c0xx_hal_dma.c ****   return HAL_OK;
 234:Drivers/STM32C0xx_HAL_Driver/Src/stm32c0xx_hal_dma.c **** }
 235:Drivers/STM32C0xx_HAL_Driver/Src/stm32c0xx_hal_dma.c **** 
 236:Drivers/STM32C0xx_HAL_Driver/Src/stm32c0xx_hal_dma.c **** /**
 237:Drivers/STM32C0xx_HAL_Driver/Src/stm32c0xx_hal_dma.c ****   * @brief  DeInitialize the DMA peripheral.
 238:Drivers/STM32C0xx_HAL_Driver/Src/stm32c0xx_hal_dma.c ****   * @param  hdma  pointer to a DMA_HandleTypeDef structure that contains
 239:Drivers/STM32C0xx_HAL_Driver/Src/stm32c0xx_hal_dma.c ****   *               the configuration information for the specified DMA Channel.
 240:Drivers/STM32C0xx_HAL_Driver/Src/stm32c0xx_hal_dma.c ****   * @retval HAL status
 241:Drivers/STM32C0xx_HAL_Driver/Src/stm32c0xx_hal_dma.c ****   */
 242:Drivers/STM32C0xx_HAL_Driver/Src/stm32c0xx_hal_dma.c **** HAL_StatusTypeDef HAL_DMA_DeInit(DMA_HandleTypeDef *hdma)
 243:Drivers/STM32C0xx_HAL_Driver/Src/stm32c0xx_hal_dma.c **** {
 244:Drivers/STM32C0xx_HAL_Driver/Src/stm32c0xx_hal_dma.c ****   /* Check the DMA handle allocation */
 245:Drivers/STM32C0xx_HAL_Driver/Src/stm32c0xx_hal_dma.c ****   if (NULL == hdma)
 246:Drivers/STM32C0xx_HAL_Driver/Src/stm32c0xx_hal_dma.c ****   {
 247:Drivers/STM32C0xx_HAL_Driver/Src/stm32c0xx_hal_dma.c ****     return HAL_ERROR;
 248:Drivers/STM32C0xx_HAL_Driver/Src/stm32c0xx_hal_dma.c ****   }
 249:Drivers/STM32C0xx_HAL_Driver/Src/stm32c0xx_hal_dma.c **** 
 250:Drivers/STM32C0xx_HAL_Driver/Src/stm32c0xx_hal_dma.c ****   /* Check the parameters */
 251:Drivers/STM32C0xx_HAL_Driver/Src/stm32c0xx_hal_dma.c ****   assert_param(IS_DMA_ALL_INSTANCE(hdma->Instance));
 252:Drivers/STM32C0xx_HAL_Driver/Src/stm32c0xx_hal_dma.c **** 
 253:Drivers/STM32C0xx_HAL_Driver/Src/stm32c0xx_hal_dma.c ****   /* Disable the selected DMA Channelx */
 254:Drivers/STM32C0xx_HAL_Driver/Src/stm32c0xx_hal_dma.c ****   __HAL_DMA_DISABLE(hdma);
 255:Drivers/STM32C0xx_HAL_Driver/Src/stm32c0xx_hal_dma.c **** 
 256:Drivers/STM32C0xx_HAL_Driver/Src/stm32c0xx_hal_dma.c ****   /* calculation of the channel index */
 257:Drivers/STM32C0xx_HAL_Driver/Src/stm32c0xx_hal_dma.c ****   hdma->ChannelIndex = (((uint32_t)hdma->Instance - (uint32_t)DMA1_Channel1) / ((uint32_t)DMA1_Chan
 258:Drivers/STM32C0xx_HAL_Driver/Src/stm32c0xx_hal_dma.c ****                                                                                 (uint32_t)DMA1_Chan
 259:Drivers/STM32C0xx_HAL_Driver/Src/stm32c0xx_hal_dma.c **** 
 260:Drivers/STM32C0xx_HAL_Driver/Src/stm32c0xx_hal_dma.c ****   /* Reset DMA Channel control register */
ARM GAS  /var/folders/nl/kwfz41d55ync1k9vlz8wmkc80000gn/T//cc9IAU1x.s 			page 6


 261:Drivers/STM32C0xx_HAL_Driver/Src/stm32c0xx_hal_dma.c ****   hdma->Instance->CCR  = 0U;
 262:Drivers/STM32C0xx_HAL_Driver/Src/stm32c0xx_hal_dma.c **** 
 263:Drivers/STM32C0xx_HAL_Driver/Src/stm32c0xx_hal_dma.c ****   /* Clear all flags */
 264:Drivers/STM32C0xx_HAL_Driver/Src/stm32c0xx_hal_dma.c ****   __HAL_DMA_CLEAR_FLAG(hdma, (DMA_FLAG_GI1 << (hdma->ChannelIndex & 0x1cU)));
 265:Drivers/STM32C0xx_HAL_Driver/Src/stm32c0xx_hal_dma.c **** 
 266:Drivers/STM32C0xx_HAL_Driver/Src/stm32c0xx_hal_dma.c ****   /* Initialize parameters for DMAMUX channel :
 267:Drivers/STM32C0xx_HAL_Driver/Src/stm32c0xx_hal_dma.c ****      DMAmuxChannel, DMAmuxChannelStatus and DMAmuxChannelStatusMask */
 268:Drivers/STM32C0xx_HAL_Driver/Src/stm32c0xx_hal_dma.c **** 
 269:Drivers/STM32C0xx_HAL_Driver/Src/stm32c0xx_hal_dma.c ****   DMA_CalcDMAMUXChannelBaseAndMask(hdma);
 270:Drivers/STM32C0xx_HAL_Driver/Src/stm32c0xx_hal_dma.c **** 
 271:Drivers/STM32C0xx_HAL_Driver/Src/stm32c0xx_hal_dma.c ****   /* Reset the DMAMUX channel that corresponds to the DMA channel */
 272:Drivers/STM32C0xx_HAL_Driver/Src/stm32c0xx_hal_dma.c ****   hdma->DMAmuxChannel->CCR = 0U;
 273:Drivers/STM32C0xx_HAL_Driver/Src/stm32c0xx_hal_dma.c **** 
 274:Drivers/STM32C0xx_HAL_Driver/Src/stm32c0xx_hal_dma.c ****   /* Clear the DMAMUX synchro overrun flag */
 275:Drivers/STM32C0xx_HAL_Driver/Src/stm32c0xx_hal_dma.c ****   hdma->DMAmuxChannelStatus->CFR = hdma->DMAmuxChannelStatusMask;
 276:Drivers/STM32C0xx_HAL_Driver/Src/stm32c0xx_hal_dma.c **** 
 277:Drivers/STM32C0xx_HAL_Driver/Src/stm32c0xx_hal_dma.c ****   /* Reset Request generator parameters if any */
 278:Drivers/STM32C0xx_HAL_Driver/Src/stm32c0xx_hal_dma.c ****   if (((hdma->Init.Request >  0UL) && (hdma->Init.Request <= DMA_REQUEST_GENERATOR3)))
 279:Drivers/STM32C0xx_HAL_Driver/Src/stm32c0xx_hal_dma.c ****   {
 280:Drivers/STM32C0xx_HAL_Driver/Src/stm32c0xx_hal_dma.c ****     /* Initialize parameters for DMAMUX request generator :
 281:Drivers/STM32C0xx_HAL_Driver/Src/stm32c0xx_hal_dma.c ****        DMAmuxRequestGen, DMAmuxRequestGenStatus and DMAmuxRequestGenStatusMask
 282:Drivers/STM32C0xx_HAL_Driver/Src/stm32c0xx_hal_dma.c ****     */
 283:Drivers/STM32C0xx_HAL_Driver/Src/stm32c0xx_hal_dma.c ****     DMA_CalcDMAMUXRequestGenBaseAndMask(hdma);
 284:Drivers/STM32C0xx_HAL_Driver/Src/stm32c0xx_hal_dma.c **** 
 285:Drivers/STM32C0xx_HAL_Driver/Src/stm32c0xx_hal_dma.c ****     /* Reset the DMAMUX request generator register*/
 286:Drivers/STM32C0xx_HAL_Driver/Src/stm32c0xx_hal_dma.c ****     hdma->DMAmuxRequestGen->RGCR = 0U;
 287:Drivers/STM32C0xx_HAL_Driver/Src/stm32c0xx_hal_dma.c **** 
 288:Drivers/STM32C0xx_HAL_Driver/Src/stm32c0xx_hal_dma.c ****     /* Clear the DMAMUX request generator overrun flag */
 289:Drivers/STM32C0xx_HAL_Driver/Src/stm32c0xx_hal_dma.c ****     hdma->DMAmuxRequestGenStatus->RGCFR = hdma->DMAmuxRequestGenStatusMask;
 290:Drivers/STM32C0xx_HAL_Driver/Src/stm32c0xx_hal_dma.c ****   }
 291:Drivers/STM32C0xx_HAL_Driver/Src/stm32c0xx_hal_dma.c **** 
 292:Drivers/STM32C0xx_HAL_Driver/Src/stm32c0xx_hal_dma.c ****   /* Clean callbacks */
 293:Drivers/STM32C0xx_HAL_Driver/Src/stm32c0xx_hal_dma.c ****   hdma->XferCpltCallback = NULL;
 294:Drivers/STM32C0xx_HAL_Driver/Src/stm32c0xx_hal_dma.c ****   hdma->XferHalfCpltCallback = NULL;
 295:Drivers/STM32C0xx_HAL_Driver/Src/stm32c0xx_hal_dma.c ****   hdma->XferErrorCallback = NULL;
 296:Drivers/STM32C0xx_HAL_Driver/Src/stm32c0xx_hal_dma.c ****   hdma->XferAbortCallback = NULL;
 297:Drivers/STM32C0xx_HAL_Driver/Src/stm32c0xx_hal_dma.c **** 
 298:Drivers/STM32C0xx_HAL_Driver/Src/stm32c0xx_hal_dma.c ****   hdma->DMAmuxRequestGen = 0U;
 299:Drivers/STM32C0xx_HAL_Driver/Src/stm32c0xx_hal_dma.c ****   hdma->DMAmuxRequestGenStatus = 0U;
 300:Drivers/STM32C0xx_HAL_Driver/Src/stm32c0xx_hal_dma.c ****   hdma->DMAmuxRequestGenStatusMask = 0U;
 301:Drivers/STM32C0xx_HAL_Driver/Src/stm32c0xx_hal_dma.c **** 
 302:Drivers/STM32C0xx_HAL_Driver/Src/stm32c0xx_hal_dma.c ****   /* Initialize the error code */
 303:Drivers/STM32C0xx_HAL_Driver/Src/stm32c0xx_hal_dma.c ****   hdma->ErrorCode = HAL_DMA_ERROR_NONE;
 304:Drivers/STM32C0xx_HAL_Driver/Src/stm32c0xx_hal_dma.c **** 
 305:Drivers/STM32C0xx_HAL_Driver/Src/stm32c0xx_hal_dma.c ****   /* Initialize the DMA state */
 306:Drivers/STM32C0xx_HAL_Driver/Src/stm32c0xx_hal_dma.c ****   hdma->State = HAL_DMA_STATE_RESET;
 307:Drivers/STM32C0xx_HAL_Driver/Src/stm32c0xx_hal_dma.c **** 
 308:Drivers/STM32C0xx_HAL_Driver/Src/stm32c0xx_hal_dma.c ****   /* Release Lock */
 309:Drivers/STM32C0xx_HAL_Driver/Src/stm32c0xx_hal_dma.c ****   __HAL_UNLOCK(hdma);
 310:Drivers/STM32C0xx_HAL_Driver/Src/stm32c0xx_hal_dma.c **** 
 311:Drivers/STM32C0xx_HAL_Driver/Src/stm32c0xx_hal_dma.c ****   return HAL_OK;
 312:Drivers/STM32C0xx_HAL_Driver/Src/stm32c0xx_hal_dma.c **** }
 313:Drivers/STM32C0xx_HAL_Driver/Src/stm32c0xx_hal_dma.c **** 
 314:Drivers/STM32C0xx_HAL_Driver/Src/stm32c0xx_hal_dma.c **** /**
 315:Drivers/STM32C0xx_HAL_Driver/Src/stm32c0xx_hal_dma.c ****   * @}
 316:Drivers/STM32C0xx_HAL_Driver/Src/stm32c0xx_hal_dma.c ****   */
 317:Drivers/STM32C0xx_HAL_Driver/Src/stm32c0xx_hal_dma.c **** 
ARM GAS  /var/folders/nl/kwfz41d55ync1k9vlz8wmkc80000gn/T//cc9IAU1x.s 			page 7


 318:Drivers/STM32C0xx_HAL_Driver/Src/stm32c0xx_hal_dma.c **** /** @defgroup DMA_Exported_Functions_Group2 Input and Output operation functions
 319:Drivers/STM32C0xx_HAL_Driver/Src/stm32c0xx_hal_dma.c ****   *  @brief   Input and Output operation functions
 320:Drivers/STM32C0xx_HAL_Driver/Src/stm32c0xx_hal_dma.c ****   *
 321:Drivers/STM32C0xx_HAL_Driver/Src/stm32c0xx_hal_dma.c **** @verbatim
 322:Drivers/STM32C0xx_HAL_Driver/Src/stm32c0xx_hal_dma.c ****  ===============================================================================
 323:Drivers/STM32C0xx_HAL_Driver/Src/stm32c0xx_hal_dma.c ****                       #####  IO operation functions  #####
 324:Drivers/STM32C0xx_HAL_Driver/Src/stm32c0xx_hal_dma.c ****  ===============================================================================
 325:Drivers/STM32C0xx_HAL_Driver/Src/stm32c0xx_hal_dma.c ****     [..]  This section provides functions allowing to:
 326:Drivers/STM32C0xx_HAL_Driver/Src/stm32c0xx_hal_dma.c ****       (+) Configure the source, destination address and data length and Start DMA transfer
 327:Drivers/STM32C0xx_HAL_Driver/Src/stm32c0xx_hal_dma.c ****       (+) Configure the source, destination address and data length and
 328:Drivers/STM32C0xx_HAL_Driver/Src/stm32c0xx_hal_dma.c ****           Start DMA transfer with interrupt
 329:Drivers/STM32C0xx_HAL_Driver/Src/stm32c0xx_hal_dma.c ****       (+) Abort DMA transfer
 330:Drivers/STM32C0xx_HAL_Driver/Src/stm32c0xx_hal_dma.c ****       (+) Poll for transfer complete
 331:Drivers/STM32C0xx_HAL_Driver/Src/stm32c0xx_hal_dma.c ****       (+) Handle DMA interrupt request
 332:Drivers/STM32C0xx_HAL_Driver/Src/stm32c0xx_hal_dma.c **** 
 333:Drivers/STM32C0xx_HAL_Driver/Src/stm32c0xx_hal_dma.c **** @endverbatim
 334:Drivers/STM32C0xx_HAL_Driver/Src/stm32c0xx_hal_dma.c ****   * @{
 335:Drivers/STM32C0xx_HAL_Driver/Src/stm32c0xx_hal_dma.c ****   */
 336:Drivers/STM32C0xx_HAL_Driver/Src/stm32c0xx_hal_dma.c **** 
 337:Drivers/STM32C0xx_HAL_Driver/Src/stm32c0xx_hal_dma.c **** /**
 338:Drivers/STM32C0xx_HAL_Driver/Src/stm32c0xx_hal_dma.c ****   * @brief  Start the DMA Transfer.
 339:Drivers/STM32C0xx_HAL_Driver/Src/stm32c0xx_hal_dma.c ****   * @param hdma Pointer to a DMA_HandleTypeDef structure that contains
 340:Drivers/STM32C0xx_HAL_Driver/Src/stm32c0xx_hal_dma.c ****   *               the configuration information for the specified DMA Channel.
 341:Drivers/STM32C0xx_HAL_Driver/Src/stm32c0xx_hal_dma.c ****   * @param SrcAddress The source memory Buffer address
 342:Drivers/STM32C0xx_HAL_Driver/Src/stm32c0xx_hal_dma.c ****   * @param DstAddress The destination memory Buffer address
 343:Drivers/STM32C0xx_HAL_Driver/Src/stm32c0xx_hal_dma.c ****   * @param DataLength The length of data to be transferred from source to destination
 344:Drivers/STM32C0xx_HAL_Driver/Src/stm32c0xx_hal_dma.c ****   * @retval HAL status
 345:Drivers/STM32C0xx_HAL_Driver/Src/stm32c0xx_hal_dma.c ****   */
 346:Drivers/STM32C0xx_HAL_Driver/Src/stm32c0xx_hal_dma.c **** HAL_StatusTypeDef HAL_DMA_Start(DMA_HandleTypeDef *hdma, uint32_t SrcAddress, uint32_t DstAddress, 
 347:Drivers/STM32C0xx_HAL_Driver/Src/stm32c0xx_hal_dma.c **** {
 348:Drivers/STM32C0xx_HAL_Driver/Src/stm32c0xx_hal_dma.c ****   HAL_StatusTypeDef status = HAL_OK;
 349:Drivers/STM32C0xx_HAL_Driver/Src/stm32c0xx_hal_dma.c **** 
 350:Drivers/STM32C0xx_HAL_Driver/Src/stm32c0xx_hal_dma.c ****   /* Check the parameters */
 351:Drivers/STM32C0xx_HAL_Driver/Src/stm32c0xx_hal_dma.c ****   assert_param(IS_DMA_BUFFER_SIZE(DataLength));
 352:Drivers/STM32C0xx_HAL_Driver/Src/stm32c0xx_hal_dma.c **** 
 353:Drivers/STM32C0xx_HAL_Driver/Src/stm32c0xx_hal_dma.c ****   /* Process locked */
 354:Drivers/STM32C0xx_HAL_Driver/Src/stm32c0xx_hal_dma.c ****   __HAL_LOCK(hdma);
 355:Drivers/STM32C0xx_HAL_Driver/Src/stm32c0xx_hal_dma.c **** 
 356:Drivers/STM32C0xx_HAL_Driver/Src/stm32c0xx_hal_dma.c ****   if (HAL_DMA_STATE_READY == hdma->State)
 357:Drivers/STM32C0xx_HAL_Driver/Src/stm32c0xx_hal_dma.c ****   {
 358:Drivers/STM32C0xx_HAL_Driver/Src/stm32c0xx_hal_dma.c ****     /* Change DMA peripheral state */
 359:Drivers/STM32C0xx_HAL_Driver/Src/stm32c0xx_hal_dma.c ****     hdma->State = HAL_DMA_STATE_BUSY;
 360:Drivers/STM32C0xx_HAL_Driver/Src/stm32c0xx_hal_dma.c ****     hdma->ErrorCode = HAL_DMA_ERROR_NONE;
 361:Drivers/STM32C0xx_HAL_Driver/Src/stm32c0xx_hal_dma.c **** 
 362:Drivers/STM32C0xx_HAL_Driver/Src/stm32c0xx_hal_dma.c ****     /* Disable the peripheral */
 363:Drivers/STM32C0xx_HAL_Driver/Src/stm32c0xx_hal_dma.c ****     __HAL_DMA_DISABLE(hdma);
 364:Drivers/STM32C0xx_HAL_Driver/Src/stm32c0xx_hal_dma.c **** 
 365:Drivers/STM32C0xx_HAL_Driver/Src/stm32c0xx_hal_dma.c ****     /* Configure the source, destination address and the data length & clear flags*/
 366:Drivers/STM32C0xx_HAL_Driver/Src/stm32c0xx_hal_dma.c ****     DMA_SetConfig(hdma, SrcAddress, DstAddress, DataLength);
 367:Drivers/STM32C0xx_HAL_Driver/Src/stm32c0xx_hal_dma.c **** 
 368:Drivers/STM32C0xx_HAL_Driver/Src/stm32c0xx_hal_dma.c ****     /* Enable the Peripheral */
 369:Drivers/STM32C0xx_HAL_Driver/Src/stm32c0xx_hal_dma.c ****     __HAL_DMA_ENABLE(hdma);
 370:Drivers/STM32C0xx_HAL_Driver/Src/stm32c0xx_hal_dma.c ****   }
 371:Drivers/STM32C0xx_HAL_Driver/Src/stm32c0xx_hal_dma.c ****   else
 372:Drivers/STM32C0xx_HAL_Driver/Src/stm32c0xx_hal_dma.c ****   {
 373:Drivers/STM32C0xx_HAL_Driver/Src/stm32c0xx_hal_dma.c ****     /* Process Unlocked */
 374:Drivers/STM32C0xx_HAL_Driver/Src/stm32c0xx_hal_dma.c ****     __HAL_UNLOCK(hdma);
ARM GAS  /var/folders/nl/kwfz41d55ync1k9vlz8wmkc80000gn/T//cc9IAU1x.s 			page 8


 375:Drivers/STM32C0xx_HAL_Driver/Src/stm32c0xx_hal_dma.c ****     status = HAL_BUSY;
 376:Drivers/STM32C0xx_HAL_Driver/Src/stm32c0xx_hal_dma.c ****   }
 377:Drivers/STM32C0xx_HAL_Driver/Src/stm32c0xx_hal_dma.c **** 
 378:Drivers/STM32C0xx_HAL_Driver/Src/stm32c0xx_hal_dma.c ****   /* Process locked */
 379:Drivers/STM32C0xx_HAL_Driver/Src/stm32c0xx_hal_dma.c ****   __HAL_UNLOCK(hdma);
 380:Drivers/STM32C0xx_HAL_Driver/Src/stm32c0xx_hal_dma.c **** 
 381:Drivers/STM32C0xx_HAL_Driver/Src/stm32c0xx_hal_dma.c ****   return status;
 382:Drivers/STM32C0xx_HAL_Driver/Src/stm32c0xx_hal_dma.c **** }
 383:Drivers/STM32C0xx_HAL_Driver/Src/stm32c0xx_hal_dma.c **** 
 384:Drivers/STM32C0xx_HAL_Driver/Src/stm32c0xx_hal_dma.c **** /**
 385:Drivers/STM32C0xx_HAL_Driver/Src/stm32c0xx_hal_dma.c ****   * @brief  Start the DMA Transfer with interrupt enabled.
 386:Drivers/STM32C0xx_HAL_Driver/Src/stm32c0xx_hal_dma.c ****   * @param hdma Pointer to a DMA_HandleTypeDef structure that contains
 387:Drivers/STM32C0xx_HAL_Driver/Src/stm32c0xx_hal_dma.c ****   *               the configuration information for the specified DMA Channel.
 388:Drivers/STM32C0xx_HAL_Driver/Src/stm32c0xx_hal_dma.c ****   * @param SrcAddress The source memory Buffer address
 389:Drivers/STM32C0xx_HAL_Driver/Src/stm32c0xx_hal_dma.c ****   * @param DstAddress The destination memory Buffer address
 390:Drivers/STM32C0xx_HAL_Driver/Src/stm32c0xx_hal_dma.c ****   * @param DataLength The length of data to be transferred from source to destination
 391:Drivers/STM32C0xx_HAL_Driver/Src/stm32c0xx_hal_dma.c ****   * @retval HAL status
 392:Drivers/STM32C0xx_HAL_Driver/Src/stm32c0xx_hal_dma.c ****   */
 393:Drivers/STM32C0xx_HAL_Driver/Src/stm32c0xx_hal_dma.c **** HAL_StatusTypeDef HAL_DMA_Start_IT(DMA_HandleTypeDef *hdma, uint32_t SrcAddress, uint32_t DstAddres
 394:Drivers/STM32C0xx_HAL_Driver/Src/stm32c0xx_hal_dma.c ****                                    uint32_t DataLength)
 395:Drivers/STM32C0xx_HAL_Driver/Src/stm32c0xx_hal_dma.c **** {
 396:Drivers/STM32C0xx_HAL_Driver/Src/stm32c0xx_hal_dma.c ****   HAL_StatusTypeDef status = HAL_OK;
 397:Drivers/STM32C0xx_HAL_Driver/Src/stm32c0xx_hal_dma.c **** 
 398:Drivers/STM32C0xx_HAL_Driver/Src/stm32c0xx_hal_dma.c ****   /* Check the parameters */
 399:Drivers/STM32C0xx_HAL_Driver/Src/stm32c0xx_hal_dma.c ****   assert_param(IS_DMA_BUFFER_SIZE(DataLength));
 400:Drivers/STM32C0xx_HAL_Driver/Src/stm32c0xx_hal_dma.c **** 
 401:Drivers/STM32C0xx_HAL_Driver/Src/stm32c0xx_hal_dma.c ****   /* Process locked */
 402:Drivers/STM32C0xx_HAL_Driver/Src/stm32c0xx_hal_dma.c ****   __HAL_LOCK(hdma);
 403:Drivers/STM32C0xx_HAL_Driver/Src/stm32c0xx_hal_dma.c **** 
 404:Drivers/STM32C0xx_HAL_Driver/Src/stm32c0xx_hal_dma.c ****   if (HAL_DMA_STATE_READY == hdma->State)
 405:Drivers/STM32C0xx_HAL_Driver/Src/stm32c0xx_hal_dma.c ****   {
 406:Drivers/STM32C0xx_HAL_Driver/Src/stm32c0xx_hal_dma.c ****     /* Change DMA peripheral state */
 407:Drivers/STM32C0xx_HAL_Driver/Src/stm32c0xx_hal_dma.c ****     hdma->State = HAL_DMA_STATE_BUSY;
 408:Drivers/STM32C0xx_HAL_Driver/Src/stm32c0xx_hal_dma.c ****     hdma->ErrorCode = HAL_DMA_ERROR_NONE;
 409:Drivers/STM32C0xx_HAL_Driver/Src/stm32c0xx_hal_dma.c **** 
 410:Drivers/STM32C0xx_HAL_Driver/Src/stm32c0xx_hal_dma.c ****     /* Disable the peripheral */
 411:Drivers/STM32C0xx_HAL_Driver/Src/stm32c0xx_hal_dma.c ****     __HAL_DMA_DISABLE(hdma);
 412:Drivers/STM32C0xx_HAL_Driver/Src/stm32c0xx_hal_dma.c **** 
 413:Drivers/STM32C0xx_HAL_Driver/Src/stm32c0xx_hal_dma.c ****     /* Configure the source, destination address and the data length & clear flags*/
 414:Drivers/STM32C0xx_HAL_Driver/Src/stm32c0xx_hal_dma.c ****     DMA_SetConfig(hdma, SrcAddress, DstAddress, DataLength);
 415:Drivers/STM32C0xx_HAL_Driver/Src/stm32c0xx_hal_dma.c **** 
 416:Drivers/STM32C0xx_HAL_Driver/Src/stm32c0xx_hal_dma.c ****     /* Enable the transfer complete interrupt */
 417:Drivers/STM32C0xx_HAL_Driver/Src/stm32c0xx_hal_dma.c ****     /* Enable the transfer Error interrupt */
 418:Drivers/STM32C0xx_HAL_Driver/Src/stm32c0xx_hal_dma.c ****     if (NULL != hdma->XferHalfCpltCallback)
 419:Drivers/STM32C0xx_HAL_Driver/Src/stm32c0xx_hal_dma.c ****     {
 420:Drivers/STM32C0xx_HAL_Driver/Src/stm32c0xx_hal_dma.c ****       /* Enable the Half transfer complete interrupt as well */
 421:Drivers/STM32C0xx_HAL_Driver/Src/stm32c0xx_hal_dma.c ****       __HAL_DMA_ENABLE_IT(hdma, (DMA_IT_TC | DMA_IT_HT | DMA_IT_TE));
 422:Drivers/STM32C0xx_HAL_Driver/Src/stm32c0xx_hal_dma.c ****     }
 423:Drivers/STM32C0xx_HAL_Driver/Src/stm32c0xx_hal_dma.c ****     else
 424:Drivers/STM32C0xx_HAL_Driver/Src/stm32c0xx_hal_dma.c ****     {
 425:Drivers/STM32C0xx_HAL_Driver/Src/stm32c0xx_hal_dma.c ****       __HAL_DMA_DISABLE_IT(hdma, DMA_IT_HT);
 426:Drivers/STM32C0xx_HAL_Driver/Src/stm32c0xx_hal_dma.c ****       __HAL_DMA_ENABLE_IT(hdma, (DMA_IT_TC | DMA_IT_TE));
 427:Drivers/STM32C0xx_HAL_Driver/Src/stm32c0xx_hal_dma.c ****     }
 428:Drivers/STM32C0xx_HAL_Driver/Src/stm32c0xx_hal_dma.c **** 
 429:Drivers/STM32C0xx_HAL_Driver/Src/stm32c0xx_hal_dma.c ****     /* Check if DMAMUX Synchronization is enabled*/
 430:Drivers/STM32C0xx_HAL_Driver/Src/stm32c0xx_hal_dma.c ****     if ((hdma->DMAmuxChannel->CCR & DMAMUX_CxCR_SE) != 0U)
 431:Drivers/STM32C0xx_HAL_Driver/Src/stm32c0xx_hal_dma.c ****     {
ARM GAS  /var/folders/nl/kwfz41d55ync1k9vlz8wmkc80000gn/T//cc9IAU1x.s 			page 9


 432:Drivers/STM32C0xx_HAL_Driver/Src/stm32c0xx_hal_dma.c ****       /* Enable DMAMUX sync overrun IT*/
 433:Drivers/STM32C0xx_HAL_Driver/Src/stm32c0xx_hal_dma.c ****       hdma->DMAmuxChannel->CCR |= DMAMUX_CxCR_SOIE;
 434:Drivers/STM32C0xx_HAL_Driver/Src/stm32c0xx_hal_dma.c ****     }
 435:Drivers/STM32C0xx_HAL_Driver/Src/stm32c0xx_hal_dma.c **** 
 436:Drivers/STM32C0xx_HAL_Driver/Src/stm32c0xx_hal_dma.c ****     if (hdma->DMAmuxRequestGen != 0U)
 437:Drivers/STM32C0xx_HAL_Driver/Src/stm32c0xx_hal_dma.c ****     {
 438:Drivers/STM32C0xx_HAL_Driver/Src/stm32c0xx_hal_dma.c ****       /* if using DMAMUX request generator, enable the DMAMUX request generator overrun IT*/
 439:Drivers/STM32C0xx_HAL_Driver/Src/stm32c0xx_hal_dma.c ****       /* enable the request gen overrun IT*/
 440:Drivers/STM32C0xx_HAL_Driver/Src/stm32c0xx_hal_dma.c ****       hdma->DMAmuxRequestGen->RGCR |= DMAMUX_RGxCR_OIE;
 441:Drivers/STM32C0xx_HAL_Driver/Src/stm32c0xx_hal_dma.c ****     }
 442:Drivers/STM32C0xx_HAL_Driver/Src/stm32c0xx_hal_dma.c **** 
 443:Drivers/STM32C0xx_HAL_Driver/Src/stm32c0xx_hal_dma.c ****     /* Enable the Peripheral */
 444:Drivers/STM32C0xx_HAL_Driver/Src/stm32c0xx_hal_dma.c ****     __HAL_DMA_ENABLE(hdma);
 445:Drivers/STM32C0xx_HAL_Driver/Src/stm32c0xx_hal_dma.c ****   }
 446:Drivers/STM32C0xx_HAL_Driver/Src/stm32c0xx_hal_dma.c ****   else
 447:Drivers/STM32C0xx_HAL_Driver/Src/stm32c0xx_hal_dma.c ****   {
 448:Drivers/STM32C0xx_HAL_Driver/Src/stm32c0xx_hal_dma.c ****     /* Process Unlocked */
 449:Drivers/STM32C0xx_HAL_Driver/Src/stm32c0xx_hal_dma.c ****     __HAL_UNLOCK(hdma);
 450:Drivers/STM32C0xx_HAL_Driver/Src/stm32c0xx_hal_dma.c **** 
 451:Drivers/STM32C0xx_HAL_Driver/Src/stm32c0xx_hal_dma.c ****     /* Remain BUSY */
 452:Drivers/STM32C0xx_HAL_Driver/Src/stm32c0xx_hal_dma.c ****     status = HAL_BUSY;
 453:Drivers/STM32C0xx_HAL_Driver/Src/stm32c0xx_hal_dma.c ****   }
 454:Drivers/STM32C0xx_HAL_Driver/Src/stm32c0xx_hal_dma.c **** 
 455:Drivers/STM32C0xx_HAL_Driver/Src/stm32c0xx_hal_dma.c ****   /* Process unlocked */
 456:Drivers/STM32C0xx_HAL_Driver/Src/stm32c0xx_hal_dma.c ****   __HAL_UNLOCK(hdma);
 457:Drivers/STM32C0xx_HAL_Driver/Src/stm32c0xx_hal_dma.c **** 
 458:Drivers/STM32C0xx_HAL_Driver/Src/stm32c0xx_hal_dma.c ****   return status;
 459:Drivers/STM32C0xx_HAL_Driver/Src/stm32c0xx_hal_dma.c **** }
 460:Drivers/STM32C0xx_HAL_Driver/Src/stm32c0xx_hal_dma.c **** 
 461:Drivers/STM32C0xx_HAL_Driver/Src/stm32c0xx_hal_dma.c **** /**
 462:Drivers/STM32C0xx_HAL_Driver/Src/stm32c0xx_hal_dma.c ****   * @brief  Abort the DMA Transfer.
 463:Drivers/STM32C0xx_HAL_Driver/Src/stm32c0xx_hal_dma.c ****   * @param hdma Pointer to a DMA_HandleTypeDef structure that contains
 464:Drivers/STM32C0xx_HAL_Driver/Src/stm32c0xx_hal_dma.c ****   *               the configuration information for the specified DMA Channel.
 465:Drivers/STM32C0xx_HAL_Driver/Src/stm32c0xx_hal_dma.c ****     * @retval HAL status
 466:Drivers/STM32C0xx_HAL_Driver/Src/stm32c0xx_hal_dma.c ****   */
 467:Drivers/STM32C0xx_HAL_Driver/Src/stm32c0xx_hal_dma.c **** HAL_StatusTypeDef HAL_DMA_Abort(DMA_HandleTypeDef *hdma)
 468:Drivers/STM32C0xx_HAL_Driver/Src/stm32c0xx_hal_dma.c **** {
 469:Drivers/STM32C0xx_HAL_Driver/Src/stm32c0xx_hal_dma.c ****   /* Check the DMA peripheral handle */
 470:Drivers/STM32C0xx_HAL_Driver/Src/stm32c0xx_hal_dma.c ****   if (NULL == hdma)
 471:Drivers/STM32C0xx_HAL_Driver/Src/stm32c0xx_hal_dma.c ****   {
 472:Drivers/STM32C0xx_HAL_Driver/Src/stm32c0xx_hal_dma.c ****     return HAL_ERROR;
 473:Drivers/STM32C0xx_HAL_Driver/Src/stm32c0xx_hal_dma.c ****   }
 474:Drivers/STM32C0xx_HAL_Driver/Src/stm32c0xx_hal_dma.c **** 
 475:Drivers/STM32C0xx_HAL_Driver/Src/stm32c0xx_hal_dma.c ****   /* Check the DMA peripheral state */
 476:Drivers/STM32C0xx_HAL_Driver/Src/stm32c0xx_hal_dma.c ****   if (hdma->State != HAL_DMA_STATE_BUSY)
 477:Drivers/STM32C0xx_HAL_Driver/Src/stm32c0xx_hal_dma.c ****   {
 478:Drivers/STM32C0xx_HAL_Driver/Src/stm32c0xx_hal_dma.c ****     hdma->ErrorCode = HAL_DMA_ERROR_NO_XFER;
 479:Drivers/STM32C0xx_HAL_Driver/Src/stm32c0xx_hal_dma.c **** 
 480:Drivers/STM32C0xx_HAL_Driver/Src/stm32c0xx_hal_dma.c ****     /* Process Unlocked */
 481:Drivers/STM32C0xx_HAL_Driver/Src/stm32c0xx_hal_dma.c ****     __HAL_UNLOCK(hdma);
 482:Drivers/STM32C0xx_HAL_Driver/Src/stm32c0xx_hal_dma.c **** 
 483:Drivers/STM32C0xx_HAL_Driver/Src/stm32c0xx_hal_dma.c ****     return HAL_ERROR;
 484:Drivers/STM32C0xx_HAL_Driver/Src/stm32c0xx_hal_dma.c ****   }
 485:Drivers/STM32C0xx_HAL_Driver/Src/stm32c0xx_hal_dma.c ****   else
 486:Drivers/STM32C0xx_HAL_Driver/Src/stm32c0xx_hal_dma.c ****   {
 487:Drivers/STM32C0xx_HAL_Driver/Src/stm32c0xx_hal_dma.c ****     /* Disable DMA IT */
 488:Drivers/STM32C0xx_HAL_Driver/Src/stm32c0xx_hal_dma.c ****     __HAL_DMA_DISABLE_IT(hdma, (DMA_IT_TC | DMA_IT_HT | DMA_IT_TE));
ARM GAS  /var/folders/nl/kwfz41d55ync1k9vlz8wmkc80000gn/T//cc9IAU1x.s 			page 10


 489:Drivers/STM32C0xx_HAL_Driver/Src/stm32c0xx_hal_dma.c **** 
 490:Drivers/STM32C0xx_HAL_Driver/Src/stm32c0xx_hal_dma.c ****     /* disable the DMAMUX sync overrun IT*/
 491:Drivers/STM32C0xx_HAL_Driver/Src/stm32c0xx_hal_dma.c ****     hdma->DMAmuxChannel->CCR &= ~DMAMUX_CxCR_SOIE;
 492:Drivers/STM32C0xx_HAL_Driver/Src/stm32c0xx_hal_dma.c **** 
 493:Drivers/STM32C0xx_HAL_Driver/Src/stm32c0xx_hal_dma.c ****     /* Disable the channel */
 494:Drivers/STM32C0xx_HAL_Driver/Src/stm32c0xx_hal_dma.c ****     __HAL_DMA_DISABLE(hdma);
 495:Drivers/STM32C0xx_HAL_Driver/Src/stm32c0xx_hal_dma.c **** 
 496:Drivers/STM32C0xx_HAL_Driver/Src/stm32c0xx_hal_dma.c ****     /* Clear all flags */
 497:Drivers/STM32C0xx_HAL_Driver/Src/stm32c0xx_hal_dma.c ****     __HAL_DMA_CLEAR_FLAG(hdma, ((DMA_FLAG_GI1) << (hdma->ChannelIndex  & 0x1cU)));
 498:Drivers/STM32C0xx_HAL_Driver/Src/stm32c0xx_hal_dma.c **** 
 499:Drivers/STM32C0xx_HAL_Driver/Src/stm32c0xx_hal_dma.c ****     /* Clear the DMAMUX synchro overrun flag */
 500:Drivers/STM32C0xx_HAL_Driver/Src/stm32c0xx_hal_dma.c ****     hdma->DMAmuxChannelStatus->CFR = hdma->DMAmuxChannelStatusMask;
 501:Drivers/STM32C0xx_HAL_Driver/Src/stm32c0xx_hal_dma.c **** 
 502:Drivers/STM32C0xx_HAL_Driver/Src/stm32c0xx_hal_dma.c ****     if (hdma->DMAmuxRequestGen != 0U)
 503:Drivers/STM32C0xx_HAL_Driver/Src/stm32c0xx_hal_dma.c ****     {
 504:Drivers/STM32C0xx_HAL_Driver/Src/stm32c0xx_hal_dma.c ****       /* if using DMAMUX request generator, disable the DMAMUX request generator overrun IT*/
 505:Drivers/STM32C0xx_HAL_Driver/Src/stm32c0xx_hal_dma.c ****       /* disable the request gen overrun IT*/
 506:Drivers/STM32C0xx_HAL_Driver/Src/stm32c0xx_hal_dma.c ****       hdma->DMAmuxRequestGen->RGCR &= ~DMAMUX_RGxCR_OIE;
 507:Drivers/STM32C0xx_HAL_Driver/Src/stm32c0xx_hal_dma.c **** 
 508:Drivers/STM32C0xx_HAL_Driver/Src/stm32c0xx_hal_dma.c ****       /* Clear the DMAMUX request generator overrun flag */
 509:Drivers/STM32C0xx_HAL_Driver/Src/stm32c0xx_hal_dma.c ****       hdma->DMAmuxRequestGenStatus->RGCFR = hdma->DMAmuxRequestGenStatusMask;
 510:Drivers/STM32C0xx_HAL_Driver/Src/stm32c0xx_hal_dma.c ****     }
 511:Drivers/STM32C0xx_HAL_Driver/Src/stm32c0xx_hal_dma.c **** 
 512:Drivers/STM32C0xx_HAL_Driver/Src/stm32c0xx_hal_dma.c ****     /* Change the DMA state */
 513:Drivers/STM32C0xx_HAL_Driver/Src/stm32c0xx_hal_dma.c ****     hdma->State = HAL_DMA_STATE_READY;
 514:Drivers/STM32C0xx_HAL_Driver/Src/stm32c0xx_hal_dma.c **** 
 515:Drivers/STM32C0xx_HAL_Driver/Src/stm32c0xx_hal_dma.c ****     /* Process Unlocked */
 516:Drivers/STM32C0xx_HAL_Driver/Src/stm32c0xx_hal_dma.c ****     __HAL_UNLOCK(hdma);
 517:Drivers/STM32C0xx_HAL_Driver/Src/stm32c0xx_hal_dma.c ****   }
 518:Drivers/STM32C0xx_HAL_Driver/Src/stm32c0xx_hal_dma.c **** 
 519:Drivers/STM32C0xx_HAL_Driver/Src/stm32c0xx_hal_dma.c ****   return HAL_OK;
 520:Drivers/STM32C0xx_HAL_Driver/Src/stm32c0xx_hal_dma.c **** }
 521:Drivers/STM32C0xx_HAL_Driver/Src/stm32c0xx_hal_dma.c **** 
 522:Drivers/STM32C0xx_HAL_Driver/Src/stm32c0xx_hal_dma.c **** /**
 523:Drivers/STM32C0xx_HAL_Driver/Src/stm32c0xx_hal_dma.c ****   * @brief  Aborts the DMA Transfer in Interrupt mode.
 524:Drivers/STM32C0xx_HAL_Driver/Src/stm32c0xx_hal_dma.c ****   * @param  hdma    pointer to a DMA_HandleTypeDef structure that contains
 525:Drivers/STM32C0xx_HAL_Driver/Src/stm32c0xx_hal_dma.c ****   *                 the configuration information for the specified DMA Stream.
 526:Drivers/STM32C0xx_HAL_Driver/Src/stm32c0xx_hal_dma.c ****   * @retval HAL status
 527:Drivers/STM32C0xx_HAL_Driver/Src/stm32c0xx_hal_dma.c ****   */
 528:Drivers/STM32C0xx_HAL_Driver/Src/stm32c0xx_hal_dma.c **** HAL_StatusTypeDef HAL_DMA_Abort_IT(DMA_HandleTypeDef *hdma)
 529:Drivers/STM32C0xx_HAL_Driver/Src/stm32c0xx_hal_dma.c **** {
 530:Drivers/STM32C0xx_HAL_Driver/Src/stm32c0xx_hal_dma.c ****   HAL_StatusTypeDef status = HAL_OK;
 531:Drivers/STM32C0xx_HAL_Driver/Src/stm32c0xx_hal_dma.c **** 
 532:Drivers/STM32C0xx_HAL_Driver/Src/stm32c0xx_hal_dma.c ****   /* Process Unlocked/locked */
 533:Drivers/STM32C0xx_HAL_Driver/Src/stm32c0xx_hal_dma.c ****   __HAL_UNLOCK(hdma);
 534:Drivers/STM32C0xx_HAL_Driver/Src/stm32c0xx_hal_dma.c ****   __HAL_LOCK(hdma);
 535:Drivers/STM32C0xx_HAL_Driver/Src/stm32c0xx_hal_dma.c **** 
 536:Drivers/STM32C0xx_HAL_Driver/Src/stm32c0xx_hal_dma.c ****   if (HAL_DMA_STATE_BUSY != hdma->State)
 537:Drivers/STM32C0xx_HAL_Driver/Src/stm32c0xx_hal_dma.c ****   {
 538:Drivers/STM32C0xx_HAL_Driver/Src/stm32c0xx_hal_dma.c ****     /* no transfer ongoing */
 539:Drivers/STM32C0xx_HAL_Driver/Src/stm32c0xx_hal_dma.c ****     hdma->ErrorCode = HAL_DMA_ERROR_NO_XFER;
 540:Drivers/STM32C0xx_HAL_Driver/Src/stm32c0xx_hal_dma.c **** 
 541:Drivers/STM32C0xx_HAL_Driver/Src/stm32c0xx_hal_dma.c ****     status = HAL_ERROR;
 542:Drivers/STM32C0xx_HAL_Driver/Src/stm32c0xx_hal_dma.c ****   }
 543:Drivers/STM32C0xx_HAL_Driver/Src/stm32c0xx_hal_dma.c ****   else
 544:Drivers/STM32C0xx_HAL_Driver/Src/stm32c0xx_hal_dma.c ****   {
 545:Drivers/STM32C0xx_HAL_Driver/Src/stm32c0xx_hal_dma.c ****     /* Disable DMA IT */
ARM GAS  /var/folders/nl/kwfz41d55ync1k9vlz8wmkc80000gn/T//cc9IAU1x.s 			page 11


 546:Drivers/STM32C0xx_HAL_Driver/Src/stm32c0xx_hal_dma.c ****     __HAL_DMA_DISABLE_IT(hdma, (DMA_IT_TC | DMA_IT_HT | DMA_IT_TE));
 547:Drivers/STM32C0xx_HAL_Driver/Src/stm32c0xx_hal_dma.c **** 
 548:Drivers/STM32C0xx_HAL_Driver/Src/stm32c0xx_hal_dma.c ****     /* Disable the channel */
 549:Drivers/STM32C0xx_HAL_Driver/Src/stm32c0xx_hal_dma.c ****     __HAL_DMA_DISABLE(hdma);
 550:Drivers/STM32C0xx_HAL_Driver/Src/stm32c0xx_hal_dma.c **** 
 551:Drivers/STM32C0xx_HAL_Driver/Src/stm32c0xx_hal_dma.c ****     /* disable the DMAMUX sync overrun IT*/
 552:Drivers/STM32C0xx_HAL_Driver/Src/stm32c0xx_hal_dma.c ****     hdma->DMAmuxChannel->CCR &= ~DMAMUX_CxCR_SOIE;
 553:Drivers/STM32C0xx_HAL_Driver/Src/stm32c0xx_hal_dma.c **** 
 554:Drivers/STM32C0xx_HAL_Driver/Src/stm32c0xx_hal_dma.c ****     /* Clear all flags */
 555:Drivers/STM32C0xx_HAL_Driver/Src/stm32c0xx_hal_dma.c ****     __HAL_DMA_CLEAR_FLAG(hdma, ((DMA_FLAG_GI1) << (hdma->ChannelIndex & 0x1cU)));
 556:Drivers/STM32C0xx_HAL_Driver/Src/stm32c0xx_hal_dma.c **** 
 557:Drivers/STM32C0xx_HAL_Driver/Src/stm32c0xx_hal_dma.c ****     /* Clear the DMAMUX synchro overrun flag */
 558:Drivers/STM32C0xx_HAL_Driver/Src/stm32c0xx_hal_dma.c ****     hdma->DMAmuxChannelStatus->CFR = hdma->DMAmuxChannelStatusMask;
 559:Drivers/STM32C0xx_HAL_Driver/Src/stm32c0xx_hal_dma.c **** 
 560:Drivers/STM32C0xx_HAL_Driver/Src/stm32c0xx_hal_dma.c ****     if (hdma->DMAmuxRequestGen != 0U)
 561:Drivers/STM32C0xx_HAL_Driver/Src/stm32c0xx_hal_dma.c ****     {
 562:Drivers/STM32C0xx_HAL_Driver/Src/stm32c0xx_hal_dma.c ****       /* if using DMAMUX request generator, disable the DMAMUX request generator overrun IT*/
 563:Drivers/STM32C0xx_HAL_Driver/Src/stm32c0xx_hal_dma.c ****       /* disable the request gen overrun IT*/
 564:Drivers/STM32C0xx_HAL_Driver/Src/stm32c0xx_hal_dma.c ****       hdma->DMAmuxRequestGen->RGCR &= ~DMAMUX_RGxCR_OIE;
 565:Drivers/STM32C0xx_HAL_Driver/Src/stm32c0xx_hal_dma.c **** 
 566:Drivers/STM32C0xx_HAL_Driver/Src/stm32c0xx_hal_dma.c ****       /* Clear the DMAMUX request generator overrun flag */
 567:Drivers/STM32C0xx_HAL_Driver/Src/stm32c0xx_hal_dma.c ****       hdma->DMAmuxRequestGenStatus->RGCFR = hdma->DMAmuxRequestGenStatusMask;
 568:Drivers/STM32C0xx_HAL_Driver/Src/stm32c0xx_hal_dma.c ****     }
 569:Drivers/STM32C0xx_HAL_Driver/Src/stm32c0xx_hal_dma.c **** 
 570:Drivers/STM32C0xx_HAL_Driver/Src/stm32c0xx_hal_dma.c ****     /* Change the DMA state */
 571:Drivers/STM32C0xx_HAL_Driver/Src/stm32c0xx_hal_dma.c ****     hdma->State = HAL_DMA_STATE_READY;
 572:Drivers/STM32C0xx_HAL_Driver/Src/stm32c0xx_hal_dma.c **** 
 573:Drivers/STM32C0xx_HAL_Driver/Src/stm32c0xx_hal_dma.c ****     /* Process Unlocked */
 574:Drivers/STM32C0xx_HAL_Driver/Src/stm32c0xx_hal_dma.c ****     __HAL_UNLOCK(hdma);
 575:Drivers/STM32C0xx_HAL_Driver/Src/stm32c0xx_hal_dma.c **** 
 576:Drivers/STM32C0xx_HAL_Driver/Src/stm32c0xx_hal_dma.c ****     /* Call User Abort callback */
 577:Drivers/STM32C0xx_HAL_Driver/Src/stm32c0xx_hal_dma.c ****     if (hdma->XferAbortCallback != NULL)
 578:Drivers/STM32C0xx_HAL_Driver/Src/stm32c0xx_hal_dma.c ****     {
 579:Drivers/STM32C0xx_HAL_Driver/Src/stm32c0xx_hal_dma.c ****       hdma->XferAbortCallback(hdma);
 580:Drivers/STM32C0xx_HAL_Driver/Src/stm32c0xx_hal_dma.c ****     }
 581:Drivers/STM32C0xx_HAL_Driver/Src/stm32c0xx_hal_dma.c ****   }
 582:Drivers/STM32C0xx_HAL_Driver/Src/stm32c0xx_hal_dma.c ****   return status;
 583:Drivers/STM32C0xx_HAL_Driver/Src/stm32c0xx_hal_dma.c **** }
 584:Drivers/STM32C0xx_HAL_Driver/Src/stm32c0xx_hal_dma.c **** 
 585:Drivers/STM32C0xx_HAL_Driver/Src/stm32c0xx_hal_dma.c **** /**
 586:Drivers/STM32C0xx_HAL_Driver/Src/stm32c0xx_hal_dma.c ****   * @brief  Polling for transfer complete.
 587:Drivers/STM32C0xx_HAL_Driver/Src/stm32c0xx_hal_dma.c ****   * @param hdma Pointer to a DMA_HandleTypeDef structure that contains
 588:Drivers/STM32C0xx_HAL_Driver/Src/stm32c0xx_hal_dma.c ****   *                  the configuration information for the specified DMA Channel.
 589:Drivers/STM32C0xx_HAL_Driver/Src/stm32c0xx_hal_dma.c ****   * @param CompleteLevel Specifies the DMA level complete.
 590:Drivers/STM32C0xx_HAL_Driver/Src/stm32c0xx_hal_dma.c ****   * @param Timeout Timeout duration.
 591:Drivers/STM32C0xx_HAL_Driver/Src/stm32c0xx_hal_dma.c ****   * @retval HAL status
 592:Drivers/STM32C0xx_HAL_Driver/Src/stm32c0xx_hal_dma.c ****   */
 593:Drivers/STM32C0xx_HAL_Driver/Src/stm32c0xx_hal_dma.c **** HAL_StatusTypeDef HAL_DMA_PollForTransfer(DMA_HandleTypeDef *hdma, HAL_DMA_LevelCompleteTypeDef Com
 594:Drivers/STM32C0xx_HAL_Driver/Src/stm32c0xx_hal_dma.c ****                                           uint32_t Timeout)
 595:Drivers/STM32C0xx_HAL_Driver/Src/stm32c0xx_hal_dma.c **** {
 596:Drivers/STM32C0xx_HAL_Driver/Src/stm32c0xx_hal_dma.c ****   uint32_t temp;
 597:Drivers/STM32C0xx_HAL_Driver/Src/stm32c0xx_hal_dma.c ****   uint32_t tickstart;
 598:Drivers/STM32C0xx_HAL_Driver/Src/stm32c0xx_hal_dma.c **** 
 599:Drivers/STM32C0xx_HAL_Driver/Src/stm32c0xx_hal_dma.c ****   /* Process unlocked */
 600:Drivers/STM32C0xx_HAL_Driver/Src/stm32c0xx_hal_dma.c ****   __HAL_UNLOCK(hdma);
 601:Drivers/STM32C0xx_HAL_Driver/Src/stm32c0xx_hal_dma.c **** 
 602:Drivers/STM32C0xx_HAL_Driver/Src/stm32c0xx_hal_dma.c ****   if (HAL_DMA_STATE_BUSY != hdma->State)
ARM GAS  /var/folders/nl/kwfz41d55ync1k9vlz8wmkc80000gn/T//cc9IAU1x.s 			page 12


 603:Drivers/STM32C0xx_HAL_Driver/Src/stm32c0xx_hal_dma.c ****   {
 604:Drivers/STM32C0xx_HAL_Driver/Src/stm32c0xx_hal_dma.c ****     /* no transfer ongoing */
 605:Drivers/STM32C0xx_HAL_Driver/Src/stm32c0xx_hal_dma.c ****     hdma->ErrorCode = HAL_DMA_ERROR_NO_XFER;
 606:Drivers/STM32C0xx_HAL_Driver/Src/stm32c0xx_hal_dma.c ****     __HAL_UNLOCK(hdma);
 607:Drivers/STM32C0xx_HAL_Driver/Src/stm32c0xx_hal_dma.c ****     return HAL_ERROR;
 608:Drivers/STM32C0xx_HAL_Driver/Src/stm32c0xx_hal_dma.c ****   }
 609:Drivers/STM32C0xx_HAL_Driver/Src/stm32c0xx_hal_dma.c **** 
 610:Drivers/STM32C0xx_HAL_Driver/Src/stm32c0xx_hal_dma.c ****   /* Polling mode not supported in circular mode */
 611:Drivers/STM32C0xx_HAL_Driver/Src/stm32c0xx_hal_dma.c ****   if ((hdma->Instance->CCR & DMA_CCR_CIRC) != 0U)
 612:Drivers/STM32C0xx_HAL_Driver/Src/stm32c0xx_hal_dma.c ****   {
 613:Drivers/STM32C0xx_HAL_Driver/Src/stm32c0xx_hal_dma.c ****     hdma->ErrorCode = HAL_DMA_ERROR_NOT_SUPPORTED;
 614:Drivers/STM32C0xx_HAL_Driver/Src/stm32c0xx_hal_dma.c ****     return HAL_ERROR;
 615:Drivers/STM32C0xx_HAL_Driver/Src/stm32c0xx_hal_dma.c ****   }
 616:Drivers/STM32C0xx_HAL_Driver/Src/stm32c0xx_hal_dma.c **** 
 617:Drivers/STM32C0xx_HAL_Driver/Src/stm32c0xx_hal_dma.c ****   /* Get the level transfer complete flag */
 618:Drivers/STM32C0xx_HAL_Driver/Src/stm32c0xx_hal_dma.c ****   if (HAL_DMA_FULL_TRANSFER == CompleteLevel)
 619:Drivers/STM32C0xx_HAL_Driver/Src/stm32c0xx_hal_dma.c ****   {
 620:Drivers/STM32C0xx_HAL_Driver/Src/stm32c0xx_hal_dma.c ****     /* Transfer Complete flag */
 621:Drivers/STM32C0xx_HAL_Driver/Src/stm32c0xx_hal_dma.c ****     temp = DMA_FLAG_TC1 << (hdma->ChannelIndex & 0x1cU);
 622:Drivers/STM32C0xx_HAL_Driver/Src/stm32c0xx_hal_dma.c ****   }
 623:Drivers/STM32C0xx_HAL_Driver/Src/stm32c0xx_hal_dma.c ****   else
 624:Drivers/STM32C0xx_HAL_Driver/Src/stm32c0xx_hal_dma.c ****   {
 625:Drivers/STM32C0xx_HAL_Driver/Src/stm32c0xx_hal_dma.c ****     /* Half Transfer Complete flag */
 626:Drivers/STM32C0xx_HAL_Driver/Src/stm32c0xx_hal_dma.c ****     temp = DMA_FLAG_HT1 << (hdma->ChannelIndex  & 0x1cU);
 627:Drivers/STM32C0xx_HAL_Driver/Src/stm32c0xx_hal_dma.c ****   }
 628:Drivers/STM32C0xx_HAL_Driver/Src/stm32c0xx_hal_dma.c **** 
 629:Drivers/STM32C0xx_HAL_Driver/Src/stm32c0xx_hal_dma.c ****   /* Get tick */
 630:Drivers/STM32C0xx_HAL_Driver/Src/stm32c0xx_hal_dma.c ****   tickstart = HAL_GetTick();
 631:Drivers/STM32C0xx_HAL_Driver/Src/stm32c0xx_hal_dma.c **** 
 632:Drivers/STM32C0xx_HAL_Driver/Src/stm32c0xx_hal_dma.c ****   while (0U == __HAL_DMA_GET_FLAG(hdma, temp))
 633:Drivers/STM32C0xx_HAL_Driver/Src/stm32c0xx_hal_dma.c ****   {
 634:Drivers/STM32C0xx_HAL_Driver/Src/stm32c0xx_hal_dma.c ****     if (0U != __HAL_DMA_GET_FLAG(hdma, (DMA_FLAG_TE1 << (hdma->ChannelIndex & 0x1cU))))
 635:Drivers/STM32C0xx_HAL_Driver/Src/stm32c0xx_hal_dma.c ****     {
 636:Drivers/STM32C0xx_HAL_Driver/Src/stm32c0xx_hal_dma.c ****       /* When a DMA transfer error occurs */
 637:Drivers/STM32C0xx_HAL_Driver/Src/stm32c0xx_hal_dma.c ****       /* A hardware clear of its EN bits is performed */
 638:Drivers/STM32C0xx_HAL_Driver/Src/stm32c0xx_hal_dma.c ****       /* Clear all flags */
 639:Drivers/STM32C0xx_HAL_Driver/Src/stm32c0xx_hal_dma.c ****       __HAL_DMA_CLEAR_FLAG(hdma, ((DMA_FLAG_GI1) << (hdma->ChannelIndex & 0x1cU)));
 640:Drivers/STM32C0xx_HAL_Driver/Src/stm32c0xx_hal_dma.c **** 
 641:Drivers/STM32C0xx_HAL_Driver/Src/stm32c0xx_hal_dma.c ****       /* Update error code */
 642:Drivers/STM32C0xx_HAL_Driver/Src/stm32c0xx_hal_dma.c ****       hdma->ErrorCode = HAL_DMA_ERROR_TE;
 643:Drivers/STM32C0xx_HAL_Driver/Src/stm32c0xx_hal_dma.c **** 
 644:Drivers/STM32C0xx_HAL_Driver/Src/stm32c0xx_hal_dma.c ****       /* Change the DMA state */
 645:Drivers/STM32C0xx_HAL_Driver/Src/stm32c0xx_hal_dma.c ****       hdma->State = HAL_DMA_STATE_READY;
 646:Drivers/STM32C0xx_HAL_Driver/Src/stm32c0xx_hal_dma.c **** 
 647:Drivers/STM32C0xx_HAL_Driver/Src/stm32c0xx_hal_dma.c ****       /* Process Unlocked */
 648:Drivers/STM32C0xx_HAL_Driver/Src/stm32c0xx_hal_dma.c ****       __HAL_UNLOCK(hdma);
 649:Drivers/STM32C0xx_HAL_Driver/Src/stm32c0xx_hal_dma.c **** 
 650:Drivers/STM32C0xx_HAL_Driver/Src/stm32c0xx_hal_dma.c ****       return HAL_ERROR;
 651:Drivers/STM32C0xx_HAL_Driver/Src/stm32c0xx_hal_dma.c ****     }
 652:Drivers/STM32C0xx_HAL_Driver/Src/stm32c0xx_hal_dma.c ****     /* Check for the Timeout */
 653:Drivers/STM32C0xx_HAL_Driver/Src/stm32c0xx_hal_dma.c ****     if (Timeout != HAL_MAX_DELAY)
 654:Drivers/STM32C0xx_HAL_Driver/Src/stm32c0xx_hal_dma.c ****     {
 655:Drivers/STM32C0xx_HAL_Driver/Src/stm32c0xx_hal_dma.c ****       if (((HAL_GetTick() - tickstart) > Timeout) || (Timeout == 0U))
 656:Drivers/STM32C0xx_HAL_Driver/Src/stm32c0xx_hal_dma.c ****       {
 657:Drivers/STM32C0xx_HAL_Driver/Src/stm32c0xx_hal_dma.c ****         /* Update error code */
 658:Drivers/STM32C0xx_HAL_Driver/Src/stm32c0xx_hal_dma.c ****         hdma->ErrorCode = HAL_DMA_ERROR_TIMEOUT;
 659:Drivers/STM32C0xx_HAL_Driver/Src/stm32c0xx_hal_dma.c **** 
ARM GAS  /var/folders/nl/kwfz41d55ync1k9vlz8wmkc80000gn/T//cc9IAU1x.s 			page 13


 660:Drivers/STM32C0xx_HAL_Driver/Src/stm32c0xx_hal_dma.c ****         /* Change the DMA state */
 661:Drivers/STM32C0xx_HAL_Driver/Src/stm32c0xx_hal_dma.c ****         hdma->State = HAL_DMA_STATE_READY;
 662:Drivers/STM32C0xx_HAL_Driver/Src/stm32c0xx_hal_dma.c **** 
 663:Drivers/STM32C0xx_HAL_Driver/Src/stm32c0xx_hal_dma.c ****         /* Process Unlocked */
 664:Drivers/STM32C0xx_HAL_Driver/Src/stm32c0xx_hal_dma.c ****         __HAL_UNLOCK(hdma);
 665:Drivers/STM32C0xx_HAL_Driver/Src/stm32c0xx_hal_dma.c **** 
 666:Drivers/STM32C0xx_HAL_Driver/Src/stm32c0xx_hal_dma.c ****         return HAL_ERROR;
 667:Drivers/STM32C0xx_HAL_Driver/Src/stm32c0xx_hal_dma.c ****       }
 668:Drivers/STM32C0xx_HAL_Driver/Src/stm32c0xx_hal_dma.c ****     }
 669:Drivers/STM32C0xx_HAL_Driver/Src/stm32c0xx_hal_dma.c ****   }
 670:Drivers/STM32C0xx_HAL_Driver/Src/stm32c0xx_hal_dma.c **** 
 671:Drivers/STM32C0xx_HAL_Driver/Src/stm32c0xx_hal_dma.c ****   /*Check for DMAMUX Request generator (if used) overrun status */
 672:Drivers/STM32C0xx_HAL_Driver/Src/stm32c0xx_hal_dma.c ****   if (hdma->DMAmuxRequestGen != 0U)
 673:Drivers/STM32C0xx_HAL_Driver/Src/stm32c0xx_hal_dma.c ****   {
 674:Drivers/STM32C0xx_HAL_Driver/Src/stm32c0xx_hal_dma.c ****     /* if using DMAMUX request generator Check for DMAMUX request generator overrun */
 675:Drivers/STM32C0xx_HAL_Driver/Src/stm32c0xx_hal_dma.c ****     if ((hdma->DMAmuxRequestGenStatus->RGSR & hdma->DMAmuxRequestGenStatusMask) != 0U)
 676:Drivers/STM32C0xx_HAL_Driver/Src/stm32c0xx_hal_dma.c ****     {
 677:Drivers/STM32C0xx_HAL_Driver/Src/stm32c0xx_hal_dma.c ****       /* Disable the request gen overrun interrupt */
 678:Drivers/STM32C0xx_HAL_Driver/Src/stm32c0xx_hal_dma.c ****       hdma->DMAmuxRequestGen->RGCR |= DMAMUX_RGxCR_OIE;
 679:Drivers/STM32C0xx_HAL_Driver/Src/stm32c0xx_hal_dma.c **** 
 680:Drivers/STM32C0xx_HAL_Driver/Src/stm32c0xx_hal_dma.c ****       /* Clear the DMAMUX request generator overrun flag */
 681:Drivers/STM32C0xx_HAL_Driver/Src/stm32c0xx_hal_dma.c ****       hdma->DMAmuxRequestGenStatus->RGCFR = hdma->DMAmuxRequestGenStatusMask;
 682:Drivers/STM32C0xx_HAL_Driver/Src/stm32c0xx_hal_dma.c **** 
 683:Drivers/STM32C0xx_HAL_Driver/Src/stm32c0xx_hal_dma.c ****       /* Update error code */
 684:Drivers/STM32C0xx_HAL_Driver/Src/stm32c0xx_hal_dma.c ****       hdma->ErrorCode |= HAL_DMA_ERROR_REQGEN;
 685:Drivers/STM32C0xx_HAL_Driver/Src/stm32c0xx_hal_dma.c ****     }
 686:Drivers/STM32C0xx_HAL_Driver/Src/stm32c0xx_hal_dma.c ****   }
 687:Drivers/STM32C0xx_HAL_Driver/Src/stm32c0xx_hal_dma.c **** 
 688:Drivers/STM32C0xx_HAL_Driver/Src/stm32c0xx_hal_dma.c ****   /* Check for DMAMUX Synchronization overrun */
 689:Drivers/STM32C0xx_HAL_Driver/Src/stm32c0xx_hal_dma.c ****   if ((hdma->DMAmuxChannelStatus->CSR & hdma->DMAmuxChannelStatusMask) != 0U)
 690:Drivers/STM32C0xx_HAL_Driver/Src/stm32c0xx_hal_dma.c ****   {
 691:Drivers/STM32C0xx_HAL_Driver/Src/stm32c0xx_hal_dma.c ****     /* Clear the DMAMUX synchro overrun flag */
 692:Drivers/STM32C0xx_HAL_Driver/Src/stm32c0xx_hal_dma.c ****     hdma->DMAmuxChannelStatus->CFR = hdma->DMAmuxChannelStatusMask;
 693:Drivers/STM32C0xx_HAL_Driver/Src/stm32c0xx_hal_dma.c **** 
 694:Drivers/STM32C0xx_HAL_Driver/Src/stm32c0xx_hal_dma.c ****     /* Update error code */
 695:Drivers/STM32C0xx_HAL_Driver/Src/stm32c0xx_hal_dma.c ****     hdma->ErrorCode |= HAL_DMA_ERROR_SYNC;
 696:Drivers/STM32C0xx_HAL_Driver/Src/stm32c0xx_hal_dma.c ****   }
 697:Drivers/STM32C0xx_HAL_Driver/Src/stm32c0xx_hal_dma.c **** 
 698:Drivers/STM32C0xx_HAL_Driver/Src/stm32c0xx_hal_dma.c ****   if (HAL_DMA_FULL_TRANSFER == CompleteLevel)
 699:Drivers/STM32C0xx_HAL_Driver/Src/stm32c0xx_hal_dma.c ****   {
 700:Drivers/STM32C0xx_HAL_Driver/Src/stm32c0xx_hal_dma.c ****     /* Clear the transfer complete flag */
 701:Drivers/STM32C0xx_HAL_Driver/Src/stm32c0xx_hal_dma.c ****     __HAL_DMA_CLEAR_FLAG(hdma, (DMA_FLAG_TC1 << (hdma->ChannelIndex & 0x1cU)));
 702:Drivers/STM32C0xx_HAL_Driver/Src/stm32c0xx_hal_dma.c **** 
 703:Drivers/STM32C0xx_HAL_Driver/Src/stm32c0xx_hal_dma.c ****     /* The selected Channelx EN bit is cleared (DMA is disabled and
 704:Drivers/STM32C0xx_HAL_Driver/Src/stm32c0xx_hal_dma.c ****     all transfers are complete) */
 705:Drivers/STM32C0xx_HAL_Driver/Src/stm32c0xx_hal_dma.c ****     hdma->State = HAL_DMA_STATE_READY;
 706:Drivers/STM32C0xx_HAL_Driver/Src/stm32c0xx_hal_dma.c ****   }
 707:Drivers/STM32C0xx_HAL_Driver/Src/stm32c0xx_hal_dma.c ****   else
 708:Drivers/STM32C0xx_HAL_Driver/Src/stm32c0xx_hal_dma.c ****   {
 709:Drivers/STM32C0xx_HAL_Driver/Src/stm32c0xx_hal_dma.c ****     /* Clear the half transfer complete flag */
 710:Drivers/STM32C0xx_HAL_Driver/Src/stm32c0xx_hal_dma.c ****     __HAL_DMA_CLEAR_FLAG(hdma, (DMA_FLAG_HT1 << (hdma->ChannelIndex & 0x1cU)));
 711:Drivers/STM32C0xx_HAL_Driver/Src/stm32c0xx_hal_dma.c ****   }
 712:Drivers/STM32C0xx_HAL_Driver/Src/stm32c0xx_hal_dma.c **** 
 713:Drivers/STM32C0xx_HAL_Driver/Src/stm32c0xx_hal_dma.c ****   /* Process unlocked */
 714:Drivers/STM32C0xx_HAL_Driver/Src/stm32c0xx_hal_dma.c ****   __HAL_UNLOCK(hdma);
 715:Drivers/STM32C0xx_HAL_Driver/Src/stm32c0xx_hal_dma.c **** 
 716:Drivers/STM32C0xx_HAL_Driver/Src/stm32c0xx_hal_dma.c ****   return HAL_OK;
ARM GAS  /var/folders/nl/kwfz41d55ync1k9vlz8wmkc80000gn/T//cc9IAU1x.s 			page 14


 717:Drivers/STM32C0xx_HAL_Driver/Src/stm32c0xx_hal_dma.c **** }
 718:Drivers/STM32C0xx_HAL_Driver/Src/stm32c0xx_hal_dma.c **** 
 719:Drivers/STM32C0xx_HAL_Driver/Src/stm32c0xx_hal_dma.c **** /**
 720:Drivers/STM32C0xx_HAL_Driver/Src/stm32c0xx_hal_dma.c ****   * @brief  Handle DMA interrupt request.
 721:Drivers/STM32C0xx_HAL_Driver/Src/stm32c0xx_hal_dma.c ****   * @param  hdma: pointer to a DMA_HandleTypeDef structure that contains
 722:Drivers/STM32C0xx_HAL_Driver/Src/stm32c0xx_hal_dma.c ****   *               the configuration information for the specified DMA Channel.
 723:Drivers/STM32C0xx_HAL_Driver/Src/stm32c0xx_hal_dma.c ****   * @retval None
 724:Drivers/STM32C0xx_HAL_Driver/Src/stm32c0xx_hal_dma.c ****   */
 725:Drivers/STM32C0xx_HAL_Driver/Src/stm32c0xx_hal_dma.c **** void HAL_DMA_IRQHandler(DMA_HandleTypeDef *hdma)
 726:Drivers/STM32C0xx_HAL_Driver/Src/stm32c0xx_hal_dma.c **** {
 727:Drivers/STM32C0xx_HAL_Driver/Src/stm32c0xx_hal_dma.c ****   uint32_t flag_it = DMA1->ISR;
 728:Drivers/STM32C0xx_HAL_Driver/Src/stm32c0xx_hal_dma.c ****   uint32_t source_it = hdma->Instance->CCR;
 729:Drivers/STM32C0xx_HAL_Driver/Src/stm32c0xx_hal_dma.c **** 
 730:Drivers/STM32C0xx_HAL_Driver/Src/stm32c0xx_hal_dma.c ****   /* Half Transfer Complete Interrupt management ******************************/
 731:Drivers/STM32C0xx_HAL_Driver/Src/stm32c0xx_hal_dma.c ****   if (((flag_it & (DMA_FLAG_HT1 << (hdma->ChannelIndex & 0x1cU))) != 0U) && ((source_it & DMA_IT_HT
 732:Drivers/STM32C0xx_HAL_Driver/Src/stm32c0xx_hal_dma.c ****   {
 733:Drivers/STM32C0xx_HAL_Driver/Src/stm32c0xx_hal_dma.c ****     /* Disable the half transfer interrupt if the DMA mode is not CIRCULAR */
 734:Drivers/STM32C0xx_HAL_Driver/Src/stm32c0xx_hal_dma.c ****     if ((hdma->Instance->CCR & DMA_CCR_CIRC) == 0U)
 735:Drivers/STM32C0xx_HAL_Driver/Src/stm32c0xx_hal_dma.c ****     {
 736:Drivers/STM32C0xx_HAL_Driver/Src/stm32c0xx_hal_dma.c ****       /* Disable the half transfer interrupt */
 737:Drivers/STM32C0xx_HAL_Driver/Src/stm32c0xx_hal_dma.c ****       __HAL_DMA_DISABLE_IT(hdma, DMA_IT_HT);
 738:Drivers/STM32C0xx_HAL_Driver/Src/stm32c0xx_hal_dma.c ****     }
 739:Drivers/STM32C0xx_HAL_Driver/Src/stm32c0xx_hal_dma.c ****     /* Clear the half transfer complete flag */
 740:Drivers/STM32C0xx_HAL_Driver/Src/stm32c0xx_hal_dma.c ****     __HAL_DMA_CLEAR_FLAG(hdma, (DMA_FLAG_HT1 << (hdma->ChannelIndex & 0x1cU)));
 741:Drivers/STM32C0xx_HAL_Driver/Src/stm32c0xx_hal_dma.c **** 
 742:Drivers/STM32C0xx_HAL_Driver/Src/stm32c0xx_hal_dma.c ****     /* DMA peripheral state is not updated in Half Transfer */
 743:Drivers/STM32C0xx_HAL_Driver/Src/stm32c0xx_hal_dma.c ****     /* but in Transfer Complete case */
 744:Drivers/STM32C0xx_HAL_Driver/Src/stm32c0xx_hal_dma.c **** 
 745:Drivers/STM32C0xx_HAL_Driver/Src/stm32c0xx_hal_dma.c ****     if (hdma->XferHalfCpltCallback != NULL)
 746:Drivers/STM32C0xx_HAL_Driver/Src/stm32c0xx_hal_dma.c ****     {
 747:Drivers/STM32C0xx_HAL_Driver/Src/stm32c0xx_hal_dma.c ****       /* Half transfer callback */
 748:Drivers/STM32C0xx_HAL_Driver/Src/stm32c0xx_hal_dma.c ****       hdma->XferHalfCpltCallback(hdma);
 749:Drivers/STM32C0xx_HAL_Driver/Src/stm32c0xx_hal_dma.c ****     }
 750:Drivers/STM32C0xx_HAL_Driver/Src/stm32c0xx_hal_dma.c ****   }
 751:Drivers/STM32C0xx_HAL_Driver/Src/stm32c0xx_hal_dma.c **** 
 752:Drivers/STM32C0xx_HAL_Driver/Src/stm32c0xx_hal_dma.c ****   /* Transfer Complete Interrupt management ***********************************/
 753:Drivers/STM32C0xx_HAL_Driver/Src/stm32c0xx_hal_dma.c ****   else if ((0U != (flag_it & (DMA_FLAG_TC1 << (hdma->ChannelIndex & 0x1cU)))) && (0U != (source_it 
 754:Drivers/STM32C0xx_HAL_Driver/Src/stm32c0xx_hal_dma.c ****   {
 755:Drivers/STM32C0xx_HAL_Driver/Src/stm32c0xx_hal_dma.c ****     if ((hdma->Instance->CCR & DMA_CCR_CIRC) == 0U)
 756:Drivers/STM32C0xx_HAL_Driver/Src/stm32c0xx_hal_dma.c ****     {
 757:Drivers/STM32C0xx_HAL_Driver/Src/stm32c0xx_hal_dma.c ****       /* Disable the transfer complete and error interrupt */
 758:Drivers/STM32C0xx_HAL_Driver/Src/stm32c0xx_hal_dma.c ****       __HAL_DMA_DISABLE_IT(hdma, DMA_IT_TE | DMA_IT_TC);
 759:Drivers/STM32C0xx_HAL_Driver/Src/stm32c0xx_hal_dma.c **** 
 760:Drivers/STM32C0xx_HAL_Driver/Src/stm32c0xx_hal_dma.c ****       /* Change the DMA state */
 761:Drivers/STM32C0xx_HAL_Driver/Src/stm32c0xx_hal_dma.c ****       hdma->State = HAL_DMA_STATE_READY;
 762:Drivers/STM32C0xx_HAL_Driver/Src/stm32c0xx_hal_dma.c ****     }
 763:Drivers/STM32C0xx_HAL_Driver/Src/stm32c0xx_hal_dma.c ****     /* Clear the transfer complete flag */
 764:Drivers/STM32C0xx_HAL_Driver/Src/stm32c0xx_hal_dma.c ****     __HAL_DMA_CLEAR_FLAG(hdma, (DMA_FLAG_TC1 << (hdma->ChannelIndex & 0x1cU)));
 765:Drivers/STM32C0xx_HAL_Driver/Src/stm32c0xx_hal_dma.c **** 
 766:Drivers/STM32C0xx_HAL_Driver/Src/stm32c0xx_hal_dma.c ****     /* Process Unlocked */
 767:Drivers/STM32C0xx_HAL_Driver/Src/stm32c0xx_hal_dma.c ****     __HAL_UNLOCK(hdma);
 768:Drivers/STM32C0xx_HAL_Driver/Src/stm32c0xx_hal_dma.c **** 
 769:Drivers/STM32C0xx_HAL_Driver/Src/stm32c0xx_hal_dma.c ****     if (hdma->XferCpltCallback != NULL)
 770:Drivers/STM32C0xx_HAL_Driver/Src/stm32c0xx_hal_dma.c ****     {
 771:Drivers/STM32C0xx_HAL_Driver/Src/stm32c0xx_hal_dma.c ****       /* Transfer complete callback */
 772:Drivers/STM32C0xx_HAL_Driver/Src/stm32c0xx_hal_dma.c ****       hdma->XferCpltCallback(hdma);
 773:Drivers/STM32C0xx_HAL_Driver/Src/stm32c0xx_hal_dma.c ****     }
ARM GAS  /var/folders/nl/kwfz41d55ync1k9vlz8wmkc80000gn/T//cc9IAU1x.s 			page 15


 774:Drivers/STM32C0xx_HAL_Driver/Src/stm32c0xx_hal_dma.c ****   }
 775:Drivers/STM32C0xx_HAL_Driver/Src/stm32c0xx_hal_dma.c **** 
 776:Drivers/STM32C0xx_HAL_Driver/Src/stm32c0xx_hal_dma.c ****   /* Transfer Error Interrupt management **************************************/
 777:Drivers/STM32C0xx_HAL_Driver/Src/stm32c0xx_hal_dma.c ****   else if (((flag_it & (DMA_FLAG_TE1 << (hdma->ChannelIndex & 0x1cU))) != 0U) && ((source_it & DMA_
 778:Drivers/STM32C0xx_HAL_Driver/Src/stm32c0xx_hal_dma.c ****   {
 779:Drivers/STM32C0xx_HAL_Driver/Src/stm32c0xx_hal_dma.c ****     /* When a DMA transfer error occurs */
 780:Drivers/STM32C0xx_HAL_Driver/Src/stm32c0xx_hal_dma.c ****     /* A hardware clear of its EN bits is performed */
 781:Drivers/STM32C0xx_HAL_Driver/Src/stm32c0xx_hal_dma.c ****     /* Disable ALL DMA IT */
 782:Drivers/STM32C0xx_HAL_Driver/Src/stm32c0xx_hal_dma.c ****     __HAL_DMA_DISABLE_IT(hdma, (DMA_IT_TC | DMA_IT_HT | DMA_IT_TE));
 783:Drivers/STM32C0xx_HAL_Driver/Src/stm32c0xx_hal_dma.c **** 
 784:Drivers/STM32C0xx_HAL_Driver/Src/stm32c0xx_hal_dma.c ****     /* Clear all flags */
 785:Drivers/STM32C0xx_HAL_Driver/Src/stm32c0xx_hal_dma.c ****     __HAL_DMA_CLEAR_FLAG(hdma, (DMA_FLAG_GI1 << (hdma->ChannelIndex & 0x1cU)));
 786:Drivers/STM32C0xx_HAL_Driver/Src/stm32c0xx_hal_dma.c **** 
 787:Drivers/STM32C0xx_HAL_Driver/Src/stm32c0xx_hal_dma.c ****     /* Update error code */
 788:Drivers/STM32C0xx_HAL_Driver/Src/stm32c0xx_hal_dma.c ****     hdma->ErrorCode = HAL_DMA_ERROR_TE;
 789:Drivers/STM32C0xx_HAL_Driver/Src/stm32c0xx_hal_dma.c **** 
 790:Drivers/STM32C0xx_HAL_Driver/Src/stm32c0xx_hal_dma.c ****     /* Change the DMA state */
 791:Drivers/STM32C0xx_HAL_Driver/Src/stm32c0xx_hal_dma.c ****     hdma->State = HAL_DMA_STATE_READY;
 792:Drivers/STM32C0xx_HAL_Driver/Src/stm32c0xx_hal_dma.c **** 
 793:Drivers/STM32C0xx_HAL_Driver/Src/stm32c0xx_hal_dma.c ****     /* Process Unlocked */
 794:Drivers/STM32C0xx_HAL_Driver/Src/stm32c0xx_hal_dma.c ****     __HAL_UNLOCK(hdma);
 795:Drivers/STM32C0xx_HAL_Driver/Src/stm32c0xx_hal_dma.c **** 
 796:Drivers/STM32C0xx_HAL_Driver/Src/stm32c0xx_hal_dma.c ****     if (hdma->XferErrorCallback != NULL)
 797:Drivers/STM32C0xx_HAL_Driver/Src/stm32c0xx_hal_dma.c ****     {
 798:Drivers/STM32C0xx_HAL_Driver/Src/stm32c0xx_hal_dma.c ****       /* Transfer error callback */
 799:Drivers/STM32C0xx_HAL_Driver/Src/stm32c0xx_hal_dma.c ****       hdma->XferErrorCallback(hdma);
 800:Drivers/STM32C0xx_HAL_Driver/Src/stm32c0xx_hal_dma.c ****     }
 801:Drivers/STM32C0xx_HAL_Driver/Src/stm32c0xx_hal_dma.c ****   }
 802:Drivers/STM32C0xx_HAL_Driver/Src/stm32c0xx_hal_dma.c ****   else
 803:Drivers/STM32C0xx_HAL_Driver/Src/stm32c0xx_hal_dma.c ****   {
 804:Drivers/STM32C0xx_HAL_Driver/Src/stm32c0xx_hal_dma.c ****     /* Nothing To Do */
 805:Drivers/STM32C0xx_HAL_Driver/Src/stm32c0xx_hal_dma.c ****   }
 806:Drivers/STM32C0xx_HAL_Driver/Src/stm32c0xx_hal_dma.c ****   return;
 807:Drivers/STM32C0xx_HAL_Driver/Src/stm32c0xx_hal_dma.c **** }
 808:Drivers/STM32C0xx_HAL_Driver/Src/stm32c0xx_hal_dma.c **** 
 809:Drivers/STM32C0xx_HAL_Driver/Src/stm32c0xx_hal_dma.c **** /**
 810:Drivers/STM32C0xx_HAL_Driver/Src/stm32c0xx_hal_dma.c ****   * @brief  Register callbacks
 811:Drivers/STM32C0xx_HAL_Driver/Src/stm32c0xx_hal_dma.c ****   * @param  hdma                  pointer to a DMA_HandleTypeDef structure that contains
 812:Drivers/STM32C0xx_HAL_Driver/Src/stm32c0xx_hal_dma.c ****   *                               the configuration information for the specified DMA Stream.
 813:Drivers/STM32C0xx_HAL_Driver/Src/stm32c0xx_hal_dma.c ****   * @param  CallbackID            User Callback identifier
 814:Drivers/STM32C0xx_HAL_Driver/Src/stm32c0xx_hal_dma.c ****   *                               a HAL_DMA_CallbackIDTypeDef ENUM as parameter.
 815:Drivers/STM32C0xx_HAL_Driver/Src/stm32c0xx_hal_dma.c ****   * @param  pCallback             pointer to private callback function which has pointer to
 816:Drivers/STM32C0xx_HAL_Driver/Src/stm32c0xx_hal_dma.c ****   *                               a DMA_HandleTypeDef structure as parameter.
 817:Drivers/STM32C0xx_HAL_Driver/Src/stm32c0xx_hal_dma.c ****   * @retval HAL status
 818:Drivers/STM32C0xx_HAL_Driver/Src/stm32c0xx_hal_dma.c ****   */
 819:Drivers/STM32C0xx_HAL_Driver/Src/stm32c0xx_hal_dma.c **** HAL_StatusTypeDef HAL_DMA_RegisterCallback(DMA_HandleTypeDef *hdma, HAL_DMA_CallbackIDTypeDef Callb
 820:Drivers/STM32C0xx_HAL_Driver/Src/stm32c0xx_hal_dma.c ****                                            void (* pCallback)(DMA_HandleTypeDef *_hdma))
 821:Drivers/STM32C0xx_HAL_Driver/Src/stm32c0xx_hal_dma.c **** {
 822:Drivers/STM32C0xx_HAL_Driver/Src/stm32c0xx_hal_dma.c ****   HAL_StatusTypeDef status = HAL_OK;
 823:Drivers/STM32C0xx_HAL_Driver/Src/stm32c0xx_hal_dma.c **** 
 824:Drivers/STM32C0xx_HAL_Driver/Src/stm32c0xx_hal_dma.c ****   /* Process locked */
 825:Drivers/STM32C0xx_HAL_Driver/Src/stm32c0xx_hal_dma.c ****   __HAL_LOCK(hdma);
 826:Drivers/STM32C0xx_HAL_Driver/Src/stm32c0xx_hal_dma.c **** 
 827:Drivers/STM32C0xx_HAL_Driver/Src/stm32c0xx_hal_dma.c ****   if (HAL_DMA_STATE_READY == hdma->State)
 828:Drivers/STM32C0xx_HAL_Driver/Src/stm32c0xx_hal_dma.c ****   {
 829:Drivers/STM32C0xx_HAL_Driver/Src/stm32c0xx_hal_dma.c ****     switch (CallbackID)
 830:Drivers/STM32C0xx_HAL_Driver/Src/stm32c0xx_hal_dma.c ****     {
ARM GAS  /var/folders/nl/kwfz41d55ync1k9vlz8wmkc80000gn/T//cc9IAU1x.s 			page 16


 831:Drivers/STM32C0xx_HAL_Driver/Src/stm32c0xx_hal_dma.c ****       case  HAL_DMA_XFER_CPLT_CB_ID:
 832:Drivers/STM32C0xx_HAL_Driver/Src/stm32c0xx_hal_dma.c ****         hdma->XferCpltCallback = pCallback;
 833:Drivers/STM32C0xx_HAL_Driver/Src/stm32c0xx_hal_dma.c ****         break;
 834:Drivers/STM32C0xx_HAL_Driver/Src/stm32c0xx_hal_dma.c **** 
 835:Drivers/STM32C0xx_HAL_Driver/Src/stm32c0xx_hal_dma.c ****       case  HAL_DMA_XFER_HALFCPLT_CB_ID:
 836:Drivers/STM32C0xx_HAL_Driver/Src/stm32c0xx_hal_dma.c ****         hdma->XferHalfCpltCallback = pCallback;
 837:Drivers/STM32C0xx_HAL_Driver/Src/stm32c0xx_hal_dma.c ****         break;
 838:Drivers/STM32C0xx_HAL_Driver/Src/stm32c0xx_hal_dma.c **** 
 839:Drivers/STM32C0xx_HAL_Driver/Src/stm32c0xx_hal_dma.c ****       case  HAL_DMA_XFER_ERROR_CB_ID:
 840:Drivers/STM32C0xx_HAL_Driver/Src/stm32c0xx_hal_dma.c ****         hdma->XferErrorCallback = pCallback;
 841:Drivers/STM32C0xx_HAL_Driver/Src/stm32c0xx_hal_dma.c ****         break;
 842:Drivers/STM32C0xx_HAL_Driver/Src/stm32c0xx_hal_dma.c **** 
 843:Drivers/STM32C0xx_HAL_Driver/Src/stm32c0xx_hal_dma.c ****       case  HAL_DMA_XFER_ABORT_CB_ID:
 844:Drivers/STM32C0xx_HAL_Driver/Src/stm32c0xx_hal_dma.c ****         hdma->XferAbortCallback = pCallback;
 845:Drivers/STM32C0xx_HAL_Driver/Src/stm32c0xx_hal_dma.c ****         break;
 846:Drivers/STM32C0xx_HAL_Driver/Src/stm32c0xx_hal_dma.c **** 
 847:Drivers/STM32C0xx_HAL_Driver/Src/stm32c0xx_hal_dma.c ****       default:
 848:Drivers/STM32C0xx_HAL_Driver/Src/stm32c0xx_hal_dma.c ****         status = HAL_ERROR;
 849:Drivers/STM32C0xx_HAL_Driver/Src/stm32c0xx_hal_dma.c ****         break;
 850:Drivers/STM32C0xx_HAL_Driver/Src/stm32c0xx_hal_dma.c ****     }
 851:Drivers/STM32C0xx_HAL_Driver/Src/stm32c0xx_hal_dma.c ****   }
 852:Drivers/STM32C0xx_HAL_Driver/Src/stm32c0xx_hal_dma.c ****   else
 853:Drivers/STM32C0xx_HAL_Driver/Src/stm32c0xx_hal_dma.c ****   {
 854:Drivers/STM32C0xx_HAL_Driver/Src/stm32c0xx_hal_dma.c ****     status = HAL_ERROR;
 855:Drivers/STM32C0xx_HAL_Driver/Src/stm32c0xx_hal_dma.c ****   }
 856:Drivers/STM32C0xx_HAL_Driver/Src/stm32c0xx_hal_dma.c **** 
 857:Drivers/STM32C0xx_HAL_Driver/Src/stm32c0xx_hal_dma.c ****   /* Release Lock */
 858:Drivers/STM32C0xx_HAL_Driver/Src/stm32c0xx_hal_dma.c ****   __HAL_UNLOCK(hdma);
 859:Drivers/STM32C0xx_HAL_Driver/Src/stm32c0xx_hal_dma.c **** 
 860:Drivers/STM32C0xx_HAL_Driver/Src/stm32c0xx_hal_dma.c ****   return status;
 861:Drivers/STM32C0xx_HAL_Driver/Src/stm32c0xx_hal_dma.c **** }
 862:Drivers/STM32C0xx_HAL_Driver/Src/stm32c0xx_hal_dma.c **** 
 863:Drivers/STM32C0xx_HAL_Driver/Src/stm32c0xx_hal_dma.c **** /**
 864:Drivers/STM32C0xx_HAL_Driver/Src/stm32c0xx_hal_dma.c ****   * @brief  UnRegister callbacks
 865:Drivers/STM32C0xx_HAL_Driver/Src/stm32c0xx_hal_dma.c ****   * @param  hdma                  pointer to a DMA_HandleTypeDef structure that contains
 866:Drivers/STM32C0xx_HAL_Driver/Src/stm32c0xx_hal_dma.c ****   *                               the configuration information for the specified DMA Stream.
 867:Drivers/STM32C0xx_HAL_Driver/Src/stm32c0xx_hal_dma.c ****   * @param  CallbackID            User Callback identifier
 868:Drivers/STM32C0xx_HAL_Driver/Src/stm32c0xx_hal_dma.c ****   *                               a HAL_DMA_CallbackIDTypeDef ENUM as parameter.
 869:Drivers/STM32C0xx_HAL_Driver/Src/stm32c0xx_hal_dma.c ****   * @retval HAL status
 870:Drivers/STM32C0xx_HAL_Driver/Src/stm32c0xx_hal_dma.c ****   */
 871:Drivers/STM32C0xx_HAL_Driver/Src/stm32c0xx_hal_dma.c **** HAL_StatusTypeDef HAL_DMA_UnRegisterCallback(DMA_HandleTypeDef *hdma, HAL_DMA_CallbackIDTypeDef Cal
 872:Drivers/STM32C0xx_HAL_Driver/Src/stm32c0xx_hal_dma.c **** {
 873:Drivers/STM32C0xx_HAL_Driver/Src/stm32c0xx_hal_dma.c ****   HAL_StatusTypeDef status = HAL_OK;
 874:Drivers/STM32C0xx_HAL_Driver/Src/stm32c0xx_hal_dma.c **** 
 875:Drivers/STM32C0xx_HAL_Driver/Src/stm32c0xx_hal_dma.c ****   /* Process locked */
 876:Drivers/STM32C0xx_HAL_Driver/Src/stm32c0xx_hal_dma.c ****   __HAL_LOCK(hdma);
 877:Drivers/STM32C0xx_HAL_Driver/Src/stm32c0xx_hal_dma.c **** 
 878:Drivers/STM32C0xx_HAL_Driver/Src/stm32c0xx_hal_dma.c ****   if (HAL_DMA_STATE_READY == hdma->State)
 879:Drivers/STM32C0xx_HAL_Driver/Src/stm32c0xx_hal_dma.c ****   {
 880:Drivers/STM32C0xx_HAL_Driver/Src/stm32c0xx_hal_dma.c ****     switch (CallbackID)
 881:Drivers/STM32C0xx_HAL_Driver/Src/stm32c0xx_hal_dma.c ****     {
 882:Drivers/STM32C0xx_HAL_Driver/Src/stm32c0xx_hal_dma.c ****       case  HAL_DMA_XFER_CPLT_CB_ID:
 883:Drivers/STM32C0xx_HAL_Driver/Src/stm32c0xx_hal_dma.c ****         hdma->XferCpltCallback = NULL;
 884:Drivers/STM32C0xx_HAL_Driver/Src/stm32c0xx_hal_dma.c ****         break;
 885:Drivers/STM32C0xx_HAL_Driver/Src/stm32c0xx_hal_dma.c **** 
 886:Drivers/STM32C0xx_HAL_Driver/Src/stm32c0xx_hal_dma.c ****       case  HAL_DMA_XFER_HALFCPLT_CB_ID:
 887:Drivers/STM32C0xx_HAL_Driver/Src/stm32c0xx_hal_dma.c ****         hdma->XferHalfCpltCallback = NULL;
ARM GAS  /var/folders/nl/kwfz41d55ync1k9vlz8wmkc80000gn/T//cc9IAU1x.s 			page 17


 888:Drivers/STM32C0xx_HAL_Driver/Src/stm32c0xx_hal_dma.c ****         break;
 889:Drivers/STM32C0xx_HAL_Driver/Src/stm32c0xx_hal_dma.c **** 
 890:Drivers/STM32C0xx_HAL_Driver/Src/stm32c0xx_hal_dma.c ****       case  HAL_DMA_XFER_ERROR_CB_ID:
 891:Drivers/STM32C0xx_HAL_Driver/Src/stm32c0xx_hal_dma.c ****         hdma->XferErrorCallback = NULL;
 892:Drivers/STM32C0xx_HAL_Driver/Src/stm32c0xx_hal_dma.c ****         break;
 893:Drivers/STM32C0xx_HAL_Driver/Src/stm32c0xx_hal_dma.c **** 
 894:Drivers/STM32C0xx_HAL_Driver/Src/stm32c0xx_hal_dma.c ****       case  HAL_DMA_XFER_ABORT_CB_ID:
 895:Drivers/STM32C0xx_HAL_Driver/Src/stm32c0xx_hal_dma.c ****         hdma->XferAbortCallback = NULL;
 896:Drivers/STM32C0xx_HAL_Driver/Src/stm32c0xx_hal_dma.c ****         break;
 897:Drivers/STM32C0xx_HAL_Driver/Src/stm32c0xx_hal_dma.c **** 
 898:Drivers/STM32C0xx_HAL_Driver/Src/stm32c0xx_hal_dma.c ****       case   HAL_DMA_XFER_ALL_CB_ID:
 899:Drivers/STM32C0xx_HAL_Driver/Src/stm32c0xx_hal_dma.c ****         hdma->XferCpltCallback = NULL;
 900:Drivers/STM32C0xx_HAL_Driver/Src/stm32c0xx_hal_dma.c ****         hdma->XferHalfCpltCallback = NULL;
 901:Drivers/STM32C0xx_HAL_Driver/Src/stm32c0xx_hal_dma.c ****         hdma->XferErrorCallback = NULL;
 902:Drivers/STM32C0xx_HAL_Driver/Src/stm32c0xx_hal_dma.c ****         hdma->XferAbortCallback = NULL;
 903:Drivers/STM32C0xx_HAL_Driver/Src/stm32c0xx_hal_dma.c ****         break;
 904:Drivers/STM32C0xx_HAL_Driver/Src/stm32c0xx_hal_dma.c **** 
 905:Drivers/STM32C0xx_HAL_Driver/Src/stm32c0xx_hal_dma.c ****       default:
 906:Drivers/STM32C0xx_HAL_Driver/Src/stm32c0xx_hal_dma.c ****         status = HAL_ERROR;
 907:Drivers/STM32C0xx_HAL_Driver/Src/stm32c0xx_hal_dma.c ****         break;
 908:Drivers/STM32C0xx_HAL_Driver/Src/stm32c0xx_hal_dma.c ****     }
 909:Drivers/STM32C0xx_HAL_Driver/Src/stm32c0xx_hal_dma.c ****   }
 910:Drivers/STM32C0xx_HAL_Driver/Src/stm32c0xx_hal_dma.c ****   else
 911:Drivers/STM32C0xx_HAL_Driver/Src/stm32c0xx_hal_dma.c ****   {
 912:Drivers/STM32C0xx_HAL_Driver/Src/stm32c0xx_hal_dma.c ****     status = HAL_ERROR;
 913:Drivers/STM32C0xx_HAL_Driver/Src/stm32c0xx_hal_dma.c ****   }
 914:Drivers/STM32C0xx_HAL_Driver/Src/stm32c0xx_hal_dma.c **** 
 915:Drivers/STM32C0xx_HAL_Driver/Src/stm32c0xx_hal_dma.c ****   /* Release Lock */
 916:Drivers/STM32C0xx_HAL_Driver/Src/stm32c0xx_hal_dma.c ****   __HAL_UNLOCK(hdma);
 917:Drivers/STM32C0xx_HAL_Driver/Src/stm32c0xx_hal_dma.c **** 
 918:Drivers/STM32C0xx_HAL_Driver/Src/stm32c0xx_hal_dma.c ****   return status;
 919:Drivers/STM32C0xx_HAL_Driver/Src/stm32c0xx_hal_dma.c **** }
 920:Drivers/STM32C0xx_HAL_Driver/Src/stm32c0xx_hal_dma.c **** 
 921:Drivers/STM32C0xx_HAL_Driver/Src/stm32c0xx_hal_dma.c **** /**
 922:Drivers/STM32C0xx_HAL_Driver/Src/stm32c0xx_hal_dma.c ****   * @}
 923:Drivers/STM32C0xx_HAL_Driver/Src/stm32c0xx_hal_dma.c ****   */
 924:Drivers/STM32C0xx_HAL_Driver/Src/stm32c0xx_hal_dma.c **** 
 925:Drivers/STM32C0xx_HAL_Driver/Src/stm32c0xx_hal_dma.c **** 
 926:Drivers/STM32C0xx_HAL_Driver/Src/stm32c0xx_hal_dma.c **** 
 927:Drivers/STM32C0xx_HAL_Driver/Src/stm32c0xx_hal_dma.c **** /** @defgroup DMA_Exported_Functions_Group3 Peripheral State and Errors functions
 928:Drivers/STM32C0xx_HAL_Driver/Src/stm32c0xx_hal_dma.c ****   *  @brief    Peripheral State and Errors functions
 929:Drivers/STM32C0xx_HAL_Driver/Src/stm32c0xx_hal_dma.c ****   *
 930:Drivers/STM32C0xx_HAL_Driver/Src/stm32c0xx_hal_dma.c **** @verbatim
 931:Drivers/STM32C0xx_HAL_Driver/Src/stm32c0xx_hal_dma.c ****  ===============================================================================
 932:Drivers/STM32C0xx_HAL_Driver/Src/stm32c0xx_hal_dma.c ****             ##### Peripheral State and Errors functions #####
 933:Drivers/STM32C0xx_HAL_Driver/Src/stm32c0xx_hal_dma.c ****  ===============================================================================
 934:Drivers/STM32C0xx_HAL_Driver/Src/stm32c0xx_hal_dma.c ****     [..]
 935:Drivers/STM32C0xx_HAL_Driver/Src/stm32c0xx_hal_dma.c ****     This subsection provides functions allowing to
 936:Drivers/STM32C0xx_HAL_Driver/Src/stm32c0xx_hal_dma.c ****       (+) Check the DMA state
 937:Drivers/STM32C0xx_HAL_Driver/Src/stm32c0xx_hal_dma.c ****       (+) Get error code
 938:Drivers/STM32C0xx_HAL_Driver/Src/stm32c0xx_hal_dma.c **** 
 939:Drivers/STM32C0xx_HAL_Driver/Src/stm32c0xx_hal_dma.c **** @endverbatim
 940:Drivers/STM32C0xx_HAL_Driver/Src/stm32c0xx_hal_dma.c ****   * @{
 941:Drivers/STM32C0xx_HAL_Driver/Src/stm32c0xx_hal_dma.c ****   */
 942:Drivers/STM32C0xx_HAL_Driver/Src/stm32c0xx_hal_dma.c **** 
 943:Drivers/STM32C0xx_HAL_Driver/Src/stm32c0xx_hal_dma.c **** /**
 944:Drivers/STM32C0xx_HAL_Driver/Src/stm32c0xx_hal_dma.c ****   * @brief  Return the DMA handle state.
ARM GAS  /var/folders/nl/kwfz41d55ync1k9vlz8wmkc80000gn/T//cc9IAU1x.s 			page 18


 945:Drivers/STM32C0xx_HAL_Driver/Src/stm32c0xx_hal_dma.c ****   * @param hdma Pointer to a DMA_HandleTypeDef structure that contains
 946:Drivers/STM32C0xx_HAL_Driver/Src/stm32c0xx_hal_dma.c ****   *               the configuration information for the specified DMA Channel.
 947:Drivers/STM32C0xx_HAL_Driver/Src/stm32c0xx_hal_dma.c ****   * @retval HAL state
 948:Drivers/STM32C0xx_HAL_Driver/Src/stm32c0xx_hal_dma.c ****   */
 949:Drivers/STM32C0xx_HAL_Driver/Src/stm32c0xx_hal_dma.c **** HAL_DMA_StateTypeDef HAL_DMA_GetState(DMA_HandleTypeDef *hdma)
 950:Drivers/STM32C0xx_HAL_Driver/Src/stm32c0xx_hal_dma.c **** {
 951:Drivers/STM32C0xx_HAL_Driver/Src/stm32c0xx_hal_dma.c ****   /* Return DMA handle state */
 952:Drivers/STM32C0xx_HAL_Driver/Src/stm32c0xx_hal_dma.c ****   return hdma->State;
 953:Drivers/STM32C0xx_HAL_Driver/Src/stm32c0xx_hal_dma.c **** }
 954:Drivers/STM32C0xx_HAL_Driver/Src/stm32c0xx_hal_dma.c **** 
 955:Drivers/STM32C0xx_HAL_Driver/Src/stm32c0xx_hal_dma.c **** /**
 956:Drivers/STM32C0xx_HAL_Driver/Src/stm32c0xx_hal_dma.c ****   * @brief  Return the DMA error code.
 957:Drivers/STM32C0xx_HAL_Driver/Src/stm32c0xx_hal_dma.c ****   * @param  hdma Pointer to a DMA_HandleTypeDef structure that contains
 958:Drivers/STM32C0xx_HAL_Driver/Src/stm32c0xx_hal_dma.c ****   *              the configuration information for the specified DMA Channel.
 959:Drivers/STM32C0xx_HAL_Driver/Src/stm32c0xx_hal_dma.c ****   * @retval DMA Error Code
 960:Drivers/STM32C0xx_HAL_Driver/Src/stm32c0xx_hal_dma.c ****   */
 961:Drivers/STM32C0xx_HAL_Driver/Src/stm32c0xx_hal_dma.c **** uint32_t HAL_DMA_GetError(DMA_HandleTypeDef *hdma)
 962:Drivers/STM32C0xx_HAL_Driver/Src/stm32c0xx_hal_dma.c **** {
 963:Drivers/STM32C0xx_HAL_Driver/Src/stm32c0xx_hal_dma.c ****   return hdma->ErrorCode;
 964:Drivers/STM32C0xx_HAL_Driver/Src/stm32c0xx_hal_dma.c **** }
 965:Drivers/STM32C0xx_HAL_Driver/Src/stm32c0xx_hal_dma.c **** 
 966:Drivers/STM32C0xx_HAL_Driver/Src/stm32c0xx_hal_dma.c **** /**
 967:Drivers/STM32C0xx_HAL_Driver/Src/stm32c0xx_hal_dma.c ****   * @}
 968:Drivers/STM32C0xx_HAL_Driver/Src/stm32c0xx_hal_dma.c ****   */
 969:Drivers/STM32C0xx_HAL_Driver/Src/stm32c0xx_hal_dma.c **** 
 970:Drivers/STM32C0xx_HAL_Driver/Src/stm32c0xx_hal_dma.c **** /**
 971:Drivers/STM32C0xx_HAL_Driver/Src/stm32c0xx_hal_dma.c ****   * @}
 972:Drivers/STM32C0xx_HAL_Driver/Src/stm32c0xx_hal_dma.c ****   */
 973:Drivers/STM32C0xx_HAL_Driver/Src/stm32c0xx_hal_dma.c **** 
 974:Drivers/STM32C0xx_HAL_Driver/Src/stm32c0xx_hal_dma.c **** /** @addtogroup DMA_Private_Functions
 975:Drivers/STM32C0xx_HAL_Driver/Src/stm32c0xx_hal_dma.c ****   * @{
 976:Drivers/STM32C0xx_HAL_Driver/Src/stm32c0xx_hal_dma.c ****   */
 977:Drivers/STM32C0xx_HAL_Driver/Src/stm32c0xx_hal_dma.c **** 
 978:Drivers/STM32C0xx_HAL_Driver/Src/stm32c0xx_hal_dma.c **** /**
 979:Drivers/STM32C0xx_HAL_Driver/Src/stm32c0xx_hal_dma.c ****   * @brief  Sets the DMA Transfer parameter.
 980:Drivers/STM32C0xx_HAL_Driver/Src/stm32c0xx_hal_dma.c ****   * @param hdma Pointer to a DMA_HandleTypeDef structure that contains
 981:Drivers/STM32C0xx_HAL_Driver/Src/stm32c0xx_hal_dma.c ****   *                     the configuration information for the specified DMA Channel.
 982:Drivers/STM32C0xx_HAL_Driver/Src/stm32c0xx_hal_dma.c ****   * @param SrcAddress The source memory Buffer address
 983:Drivers/STM32C0xx_HAL_Driver/Src/stm32c0xx_hal_dma.c ****   * @param DstAddress The destination memory Buffer address
 984:Drivers/STM32C0xx_HAL_Driver/Src/stm32c0xx_hal_dma.c ****   * @param DataLength The length of data to be transferred from source to destination
 985:Drivers/STM32C0xx_HAL_Driver/Src/stm32c0xx_hal_dma.c ****   * @retval HAL status
 986:Drivers/STM32C0xx_HAL_Driver/Src/stm32c0xx_hal_dma.c ****   */
 987:Drivers/STM32C0xx_HAL_Driver/Src/stm32c0xx_hal_dma.c **** static void DMA_SetConfig(DMA_HandleTypeDef *hdma, uint32_t SrcAddress, uint32_t DstAddress, uint32
 988:Drivers/STM32C0xx_HAL_Driver/Src/stm32c0xx_hal_dma.c **** {
  27              		.loc 1 988 1 view -0
  28              		.cfi_startproc
  29              		@ args = 0, pretend = 0, frame = 0
  30              		@ frame_needed = 0, uses_anonymous_args = 0
  31              		.loc 1 988 1 is_stmt 0 view .LVU1
  32 0000 F0B5     		push	{r4, r5, r6, r7, lr}
  33              	.LCFI0:
  34              		.cfi_def_cfa_offset 20
  35              		.cfi_offset 4, -20
  36              		.cfi_offset 5, -16
  37              		.cfi_offset 6, -12
  38              		.cfi_offset 7, -8
  39              		.cfi_offset 14, -4
ARM GAS  /var/folders/nl/kwfz41d55ync1k9vlz8wmkc80000gn/T//cc9IAU1x.s 			page 19


 989:Drivers/STM32C0xx_HAL_Driver/Src/stm32c0xx_hal_dma.c ****   /* Clear the DMAMUX synchro overrun flag */
 990:Drivers/STM32C0xx_HAL_Driver/Src/stm32c0xx_hal_dma.c ****   hdma->DMAmuxChannelStatus->CFR = hdma->DMAmuxChannelStatusMask;
  40              		.loc 1 990 3 is_stmt 1 view .LVU2
  41              		.loc 1 990 7 is_stmt 0 view .LVU3
  42 0002 846C     		ldr	r4, [r0, #72]
  43              		.loc 1 990 34 view .LVU4
  44 0004 C56C     		ldr	r5, [r0, #76]
  45 0006 6560     		str	r5, [r4, #4]
 991:Drivers/STM32C0xx_HAL_Driver/Src/stm32c0xx_hal_dma.c **** 
 992:Drivers/STM32C0xx_HAL_Driver/Src/stm32c0xx_hal_dma.c ****   if (hdma->DMAmuxRequestGen != 0U)
  46              		.loc 1 992 3 is_stmt 1 view .LVU5
  47              		.loc 1 992 6 is_stmt 0 view .LVU6
  48 0008 046D     		ldr	r4, [r0, #80]
  49 000a 002C     		cmp	r4, #0
  50 000c 02D0     		beq	.L2
 993:Drivers/STM32C0xx_HAL_Driver/Src/stm32c0xx_hal_dma.c ****   {
 994:Drivers/STM32C0xx_HAL_Driver/Src/stm32c0xx_hal_dma.c ****     /* Clear the DMAMUX request generator overrun flag */
 995:Drivers/STM32C0xx_HAL_Driver/Src/stm32c0xx_hal_dma.c ****     hdma->DMAmuxRequestGenStatus->RGCFR = hdma->DMAmuxRequestGenStatusMask;
  51              		.loc 1 995 5 is_stmt 1 view .LVU7
  52              		.loc 1 995 9 is_stmt 0 view .LVU8
  53 000e 446D     		ldr	r4, [r0, #84]
  54              		.loc 1 995 41 view .LVU9
  55 0010 856D     		ldr	r5, [r0, #88]
  56 0012 6560     		str	r5, [r4, #4]
  57              	.L2:
 996:Drivers/STM32C0xx_HAL_Driver/Src/stm32c0xx_hal_dma.c ****   }
 997:Drivers/STM32C0xx_HAL_Driver/Src/stm32c0xx_hal_dma.c **** 
 998:Drivers/STM32C0xx_HAL_Driver/Src/stm32c0xx_hal_dma.c ****   /* Clear all flags */
 999:Drivers/STM32C0xx_HAL_Driver/Src/stm32c0xx_hal_dma.c ****   __HAL_DMA_CLEAR_FLAG(hdma, (DMA_FLAG_GI1 << (hdma->ChannelIndex & 0x1cU)));
  58              		.loc 1 999 3 is_stmt 1 view .LVU10
  59 0014 0B4F     		ldr	r7, .L6
  60 0016 7C68     		ldr	r4, [r7, #4]
  61 0018 1C26     		movs	r6, #28
  62 001a 056C     		ldr	r5, [r0, #64]
  63 001c 2E40     		ands	r6, r5
  64 001e 0125     		movs	r5, #1
  65 0020 B540     		lsls	r5, r5, r6
  66 0022 2C43     		orrs	r4, r5
  67 0024 7C60     		str	r4, [r7, #4]
1000:Drivers/STM32C0xx_HAL_Driver/Src/stm32c0xx_hal_dma.c **** 
1001:Drivers/STM32C0xx_HAL_Driver/Src/stm32c0xx_hal_dma.c ****   /* Configure DMA Channel data length */
1002:Drivers/STM32C0xx_HAL_Driver/Src/stm32c0xx_hal_dma.c ****   hdma->Instance->CNDTR = DataLength;
  68              		.loc 1 1002 3 view .LVU11
  69              		.loc 1 1002 7 is_stmt 0 view .LVU12
  70 0026 0468     		ldr	r4, [r0]
  71              		.loc 1 1002 25 view .LVU13
  72 0028 6360     		str	r3, [r4, #4]
1003:Drivers/STM32C0xx_HAL_Driver/Src/stm32c0xx_hal_dma.c **** 
1004:Drivers/STM32C0xx_HAL_Driver/Src/stm32c0xx_hal_dma.c ****   /* Peripheral to Memory */
1005:Drivers/STM32C0xx_HAL_Driver/Src/stm32c0xx_hal_dma.c ****   if ((hdma->Init.Direction) == DMA_MEMORY_TO_PERIPH)
  73              		.loc 1 1005 3 is_stmt 1 view .LVU14
  74              		.loc 1 1005 6 is_stmt 0 view .LVU15
  75 002a 8368     		ldr	r3, [r0, #8]
  76              	.LVL1:
  77              		.loc 1 1005 6 view .LVU16
  78 002c 102B     		cmp	r3, #16
  79 002e 04D0     		beq	.L5
ARM GAS  /var/folders/nl/kwfz41d55ync1k9vlz8wmkc80000gn/T//cc9IAU1x.s 			page 20


1006:Drivers/STM32C0xx_HAL_Driver/Src/stm32c0xx_hal_dma.c ****   {
1007:Drivers/STM32C0xx_HAL_Driver/Src/stm32c0xx_hal_dma.c ****     /* Configure DMA Channel destination address */
1008:Drivers/STM32C0xx_HAL_Driver/Src/stm32c0xx_hal_dma.c ****     hdma->Instance->CPAR = DstAddress;
1009:Drivers/STM32C0xx_HAL_Driver/Src/stm32c0xx_hal_dma.c **** 
1010:Drivers/STM32C0xx_HAL_Driver/Src/stm32c0xx_hal_dma.c ****     /* Configure DMA Channel source address */
1011:Drivers/STM32C0xx_HAL_Driver/Src/stm32c0xx_hal_dma.c ****     hdma->Instance->CMAR = SrcAddress;
1012:Drivers/STM32C0xx_HAL_Driver/Src/stm32c0xx_hal_dma.c ****   }
1013:Drivers/STM32C0xx_HAL_Driver/Src/stm32c0xx_hal_dma.c ****   /* Memory to Peripheral */
1014:Drivers/STM32C0xx_HAL_Driver/Src/stm32c0xx_hal_dma.c ****   else
1015:Drivers/STM32C0xx_HAL_Driver/Src/stm32c0xx_hal_dma.c ****   {
1016:Drivers/STM32C0xx_HAL_Driver/Src/stm32c0xx_hal_dma.c ****     /* Configure DMA Channel source address */
1017:Drivers/STM32C0xx_HAL_Driver/Src/stm32c0xx_hal_dma.c ****     hdma->Instance->CPAR = SrcAddress;
  80              		.loc 1 1017 5 is_stmt 1 view .LVU17
  81              		.loc 1 1017 9 is_stmt 0 view .LVU18
  82 0030 0368     		ldr	r3, [r0]
  83              		.loc 1 1017 26 view .LVU19
  84 0032 9960     		str	r1, [r3, #8]
  85              	.LVL2:
1018:Drivers/STM32C0xx_HAL_Driver/Src/stm32c0xx_hal_dma.c **** 
1019:Drivers/STM32C0xx_HAL_Driver/Src/stm32c0xx_hal_dma.c ****     /* Configure DMA Channel destination address */
1020:Drivers/STM32C0xx_HAL_Driver/Src/stm32c0xx_hal_dma.c ****     hdma->Instance->CMAR = DstAddress;
  86              		.loc 1 1020 5 is_stmt 1 view .LVU20
  87              		.loc 1 1020 9 is_stmt 0 view .LVU21
  88 0034 0368     		ldr	r3, [r0]
  89              		.loc 1 1020 26 view .LVU22
  90 0036 DA60     		str	r2, [r3, #12]
  91              	.L1:
1021:Drivers/STM32C0xx_HAL_Driver/Src/stm32c0xx_hal_dma.c ****   }
1022:Drivers/STM32C0xx_HAL_Driver/Src/stm32c0xx_hal_dma.c **** }
  92              		.loc 1 1022 1 view .LVU23
  93              		@ sp needed
  94 0038 F0BD     		pop	{r4, r5, r6, r7, pc}
  95              	.LVL3:
  96              	.L5:
1008:Drivers/STM32C0xx_HAL_Driver/Src/stm32c0xx_hal_dma.c **** 
  97              		.loc 1 1008 5 is_stmt 1 view .LVU24
1008:Drivers/STM32C0xx_HAL_Driver/Src/stm32c0xx_hal_dma.c **** 
  98              		.loc 1 1008 9 is_stmt 0 view .LVU25
  99 003a 0368     		ldr	r3, [r0]
1008:Drivers/STM32C0xx_HAL_Driver/Src/stm32c0xx_hal_dma.c **** 
 100              		.loc 1 1008 26 view .LVU26
 101 003c 9A60     		str	r2, [r3, #8]
 102              	.LVL4:
1011:Drivers/STM32C0xx_HAL_Driver/Src/stm32c0xx_hal_dma.c ****   }
 103              		.loc 1 1011 5 is_stmt 1 view .LVU27
1011:Drivers/STM32C0xx_HAL_Driver/Src/stm32c0xx_hal_dma.c ****   }
 104              		.loc 1 1011 9 is_stmt 0 view .LVU28
 105 003e 0368     		ldr	r3, [r0]
1011:Drivers/STM32C0xx_HAL_Driver/Src/stm32c0xx_hal_dma.c ****   }
 106              		.loc 1 1011 26 view .LVU29
 107 0040 D960     		str	r1, [r3, #12]
 108 0042 F9E7     		b	.L1
 109              	.L7:
 110              		.align	2
 111              	.L6:
 112 0044 00000240 		.word	1073872896
 113              		.cfi_endproc
ARM GAS  /var/folders/nl/kwfz41d55ync1k9vlz8wmkc80000gn/T//cc9IAU1x.s 			page 21


 114              	.LFE226:
 116              		.global	__aeabi_uidiv
 117              		.section	.text.DMA_CalcDMAMUXChannelBaseAndMask,"ax",%progbits
 118              		.align	1
 119              		.syntax unified
 120              		.code	16
 121              		.thumb_func
 123              	DMA_CalcDMAMUXChannelBaseAndMask:
 124              	.LVL5:
 125              	.LFB227:
1023:Drivers/STM32C0xx_HAL_Driver/Src/stm32c0xx_hal_dma.c **** 
1024:Drivers/STM32C0xx_HAL_Driver/Src/stm32c0xx_hal_dma.c **** /**
1025:Drivers/STM32C0xx_HAL_Driver/Src/stm32c0xx_hal_dma.c ****   * @brief  Updates the DMA handle with the DMAMUX  channel and status mask depending on stream num
1026:Drivers/STM32C0xx_HAL_Driver/Src/stm32c0xx_hal_dma.c ****   * @param  hdma Pointer to a DMA_HandleTypeDef structure that contains
1027:Drivers/STM32C0xx_HAL_Driver/Src/stm32c0xx_hal_dma.c ****   *                     the configuration information for the specified DMA Stream.
1028:Drivers/STM32C0xx_HAL_Driver/Src/stm32c0xx_hal_dma.c ****   * @retval None
1029:Drivers/STM32C0xx_HAL_Driver/Src/stm32c0xx_hal_dma.c ****   */
1030:Drivers/STM32C0xx_HAL_Driver/Src/stm32c0xx_hal_dma.c **** static void DMA_CalcDMAMUXChannelBaseAndMask(DMA_HandleTypeDef *hdma)
1031:Drivers/STM32C0xx_HAL_Driver/Src/stm32c0xx_hal_dma.c **** {
 126              		.loc 1 1031 1 is_stmt 1 view -0
 127              		.cfi_startproc
 128              		@ args = 0, pretend = 0, frame = 0
 129              		@ frame_needed = 0, uses_anonymous_args = 0
 130              		.loc 1 1031 1 is_stmt 0 view .LVU31
 131 0000 10B5     		push	{r4, lr}
 132              	.LCFI1:
 133              		.cfi_def_cfa_offset 8
 134              		.cfi_offset 4, -8
 135              		.cfi_offset 14, -4
 136 0002 0400     		movs	r4, r0
1032:Drivers/STM32C0xx_HAL_Driver/Src/stm32c0xx_hal_dma.c ****   uint32_t channel_number;
 137              		.loc 1 1032 3 is_stmt 1 view .LVU32
1033:Drivers/STM32C0xx_HAL_Driver/Src/stm32c0xx_hal_dma.c **** 
1034:Drivers/STM32C0xx_HAL_Driver/Src/stm32c0xx_hal_dma.c ****   channel_number = (((uint32_t)hdma->Instance & 0xFFU) - 8U) / 20U;
 138              		.loc 1 1034 3 view .LVU33
 139              		.loc 1 1034 47 is_stmt 0 view .LVU34
 140 0004 FF20     		movs	r0, #255
 141              	.LVL6:
 142              		.loc 1 1034 47 view .LVU35
 143 0006 2368     		ldr	r3, [r4]
 144 0008 1840     		ands	r0, r3
 145              		.loc 1 1034 56 view .LVU36
 146 000a 0838     		subs	r0, r0, #8
 147              		.loc 1 1034 18 view .LVU37
 148 000c 1421     		movs	r1, #20
 149 000e FFF7FEFF 		bl	__aeabi_uidiv
 150              	.LVL7:
1035:Drivers/STM32C0xx_HAL_Driver/Src/stm32c0xx_hal_dma.c ****   hdma->DMAmuxChannel = (DMAMUX_Channel_TypeDef *)(uint32_t)((uint32_t)DMAMUX1_Channel0 + \
 151              		.loc 1 1035 3 is_stmt 1 view .LVU38
1036:Drivers/STM32C0xx_HAL_Driver/Src/stm32c0xx_hal_dma.c ****                                                              ((hdma->ChannelIndex >> 2U) * \
 152              		.loc 1 1036 83 is_stmt 0 view .LVU39
 153 0012 236C     		ldr	r3, [r4, #64]
 154 0014 9B08     		lsrs	r3, r3, #2
1035:Drivers/STM32C0xx_HAL_Driver/Src/stm32c0xx_hal_dma.c ****   hdma->DMAmuxChannel = (DMAMUX_Channel_TypeDef *)(uint32_t)((uint32_t)DMAMUX1_Channel0 + \
 155              		.loc 1 1035 51 view .LVU40
 156 0016 064A     		ldr	r2, .L9
 157 0018 9446     		mov	ip, r2
ARM GAS  /var/folders/nl/kwfz41d55ync1k9vlz8wmkc80000gn/T//cc9IAU1x.s 			page 22


 158 001a 6344     		add	r3, r3, ip
 159 001c 9B00     		lsls	r3, r3, #2
1035:Drivers/STM32C0xx_HAL_Driver/Src/stm32c0xx_hal_dma.c ****   hdma->DMAmuxChannel = (DMAMUX_Channel_TypeDef *)(uint32_t)((uint32_t)DMAMUX1_Channel0 + \
 160              		.loc 1 1035 23 view .LVU41
 161 001e 6364     		str	r3, [r4, #68]
1037:Drivers/STM32C0xx_HAL_Driver/Src/stm32c0xx_hal_dma.c ****                                                               ((uint32_t)DMAMUX1_Channel1 - \
1038:Drivers/STM32C0xx_HAL_Driver/Src/stm32c0xx_hal_dma.c ****                                                                (uint32_t)DMAMUX1_Channel0)));
1039:Drivers/STM32C0xx_HAL_Driver/Src/stm32c0xx_hal_dma.c ****   hdma->DMAmuxChannelStatus = DMAMUX1_ChannelStatus;
 162              		.loc 1 1039 3 is_stmt 1 view .LVU42
 163              		.loc 1 1039 29 is_stmt 0 view .LVU43
 164 0020 044B     		ldr	r3, .L9+4
 165 0022 A364     		str	r3, [r4, #72]
1040:Drivers/STM32C0xx_HAL_Driver/Src/stm32c0xx_hal_dma.c ****   hdma->DMAmuxChannelStatusMask = 1UL << (channel_number & 0x1cU);
 166              		.loc 1 1040 3 is_stmt 1 view .LVU44
 167              		.loc 1 1040 58 is_stmt 0 view .LVU45
 168 0024 1C23     		movs	r3, #28
 169 0026 1840     		ands	r0, r3
 170              	.LVL8:
 171              		.loc 1 1040 39 view .LVU46
 172 0028 1B3B     		subs	r3, r3, #27
 173 002a 8340     		lsls	r3, r3, r0
 174              		.loc 1 1040 33 view .LVU47
 175 002c E364     		str	r3, [r4, #76]
1041:Drivers/STM32C0xx_HAL_Driver/Src/stm32c0xx_hal_dma.c **** }
 176              		.loc 1 1041 1 view .LVU48
 177              		@ sp needed
 178              	.LVL9:
 179              		.loc 1 1041 1 view .LVU49
 180 002e 10BD     		pop	{r4, pc}
 181              	.L10:
 182              		.align	2
 183              	.L9:
 184 0030 00820010 		.word	268468736
 185 0034 80080240 		.word	1073875072
 186              		.cfi_endproc
 187              	.LFE227:
 189              		.section	.text.DMA_CalcDMAMUXRequestGenBaseAndMask,"ax",%progbits
 190              		.align	1
 191              		.syntax unified
 192              		.code	16
 193              		.thumb_func
 195              	DMA_CalcDMAMUXRequestGenBaseAndMask:
 196              	.LVL10:
 197              	.LFB228:
1042:Drivers/STM32C0xx_HAL_Driver/Src/stm32c0xx_hal_dma.c **** 
1043:Drivers/STM32C0xx_HAL_Driver/Src/stm32c0xx_hal_dma.c **** /**
1044:Drivers/STM32C0xx_HAL_Driver/Src/stm32c0xx_hal_dma.c ****   * @brief  Updates the DMA handle with the DMAMUX  request generator params
1045:Drivers/STM32C0xx_HAL_Driver/Src/stm32c0xx_hal_dma.c ****   * @param  hdma Pointer to a DMA_HandleTypeDef structure that contains
1046:Drivers/STM32C0xx_HAL_Driver/Src/stm32c0xx_hal_dma.c ****   *                     the configuration information for the specified DMA Stream.
1047:Drivers/STM32C0xx_HAL_Driver/Src/stm32c0xx_hal_dma.c ****   * @retval None
1048:Drivers/STM32C0xx_HAL_Driver/Src/stm32c0xx_hal_dma.c ****   */
1049:Drivers/STM32C0xx_HAL_Driver/Src/stm32c0xx_hal_dma.c **** 
1050:Drivers/STM32C0xx_HAL_Driver/Src/stm32c0xx_hal_dma.c **** static void DMA_CalcDMAMUXRequestGenBaseAndMask(DMA_HandleTypeDef *hdma)
1051:Drivers/STM32C0xx_HAL_Driver/Src/stm32c0xx_hal_dma.c **** {
 198              		.loc 1 1051 1 is_stmt 1 view -0
 199              		.cfi_startproc
 200              		@ args = 0, pretend = 0, frame = 0
ARM GAS  /var/folders/nl/kwfz41d55ync1k9vlz8wmkc80000gn/T//cc9IAU1x.s 			page 23


 201              		@ frame_needed = 0, uses_anonymous_args = 0
 202              		@ link register save eliminated.
1052:Drivers/STM32C0xx_HAL_Driver/Src/stm32c0xx_hal_dma.c ****   uint32_t request =  hdma->Init.Request & DMAMUX_CxCR_DMAREQ_ID;
 203              		.loc 1 1052 3 view .LVU51
 204              		.loc 1 1052 12 is_stmt 0 view .LVU52
 205 0000 FF23     		movs	r3, #255
 206 0002 4268     		ldr	r2, [r0, #4]
 207 0004 1340     		ands	r3, r2
 208              	.LVL11:
1053:Drivers/STM32C0xx_HAL_Driver/Src/stm32c0xx_hal_dma.c **** 
1054:Drivers/STM32C0xx_HAL_Driver/Src/stm32c0xx_hal_dma.c ****   /* DMA Channels are connected to DMAMUX1 request generator blocks*/
1055:Drivers/STM32C0xx_HAL_Driver/Src/stm32c0xx_hal_dma.c ****   hdma->DMAmuxRequestGen = (DMAMUX_RequestGen_TypeDef *)((uint32_t)(((uint32_t)DMAMUX1_RequestGener
 209              		.loc 1 1055 3 is_stmt 1 view .LVU53
 210              		.loc 1 1055 58 is_stmt 0 view .LVU54
 211 0006 064A     		ldr	r2, .L12
 212 0008 9A18     		adds	r2, r3, r2
 213 000a 9200     		lsls	r2, r2, #2
 214              		.loc 1 1055 26 view .LVU55
 215 000c 0265     		str	r2, [r0, #80]
1056:Drivers/STM32C0xx_HAL_Driver/Src/stm32c0xx_hal_dma.c ****                                                                     ((request - 1U) * 4U)));
1057:Drivers/STM32C0xx_HAL_Driver/Src/stm32c0xx_hal_dma.c **** 
1058:Drivers/STM32C0xx_HAL_Driver/Src/stm32c0xx_hal_dma.c ****   hdma->DMAmuxRequestGenStatus = DMAMUX1_RequestGenStatus;
 216              		.loc 1 1058 3 is_stmt 1 view .LVU56
 217              		.loc 1 1058 32 is_stmt 0 view .LVU57
 218 000e 054A     		ldr	r2, .L12+4
 219 0010 4265     		str	r2, [r0, #84]
1059:Drivers/STM32C0xx_HAL_Driver/Src/stm32c0xx_hal_dma.c **** 
1060:Drivers/STM32C0xx_HAL_Driver/Src/stm32c0xx_hal_dma.c ****   /* here "Request" is either DMA_REQUEST_GENERATOR0 to 4, i.e. <= 4*/
1061:Drivers/STM32C0xx_HAL_Driver/Src/stm32c0xx_hal_dma.c ****   hdma->DMAmuxRequestGenStatusMask = 1UL << ((request - 1U) & 0x3U);
 220              		.loc 1 1061 3 is_stmt 1 view .LVU58
 221              		.loc 1 1061 55 is_stmt 0 view .LVU59
 222 0012 013B     		subs	r3, r3, #1
 223              	.LVL12:
 224              		.loc 1 1061 61 view .LVU60
 225 0014 0322     		movs	r2, #3
 226 0016 1A40     		ands	r2, r3
 227              		.loc 1 1061 42 view .LVU61
 228 0018 0123     		movs	r3, #1
 229              	.LVL13:
 230              		.loc 1 1061 42 view .LVU62
 231 001a 9340     		lsls	r3, r3, r2
 232              		.loc 1 1061 36 view .LVU63
 233 001c 8365     		str	r3, [r0, #88]
1062:Drivers/STM32C0xx_HAL_Driver/Src/stm32c0xx_hal_dma.c **** }
 234              		.loc 1 1062 1 view .LVU64
 235              		@ sp needed
 236 001e 7047     		bx	lr
 237              	.L13:
 238              		.align	2
 239              	.L12:
 240 0020 3F820010 		.word	268468799
 241 0024 40090240 		.word	1073875264
 242              		.cfi_endproc
 243              	.LFE228:
 245              		.section	.text.HAL_DMA_Init,"ax",%progbits
 246              		.align	1
 247              		.global	HAL_DMA_Init
ARM GAS  /var/folders/nl/kwfz41d55ync1k9vlz8wmkc80000gn/T//cc9IAU1x.s 			page 24


 248              		.syntax unified
 249              		.code	16
 250              		.thumb_func
 252              	HAL_DMA_Init:
 253              	.LVL14:
 254              	.LFB214:
 152:Drivers/STM32C0xx_HAL_Driver/Src/stm32c0xx_hal_dma.c ****   /* Check the DMA handle allocation */
 255              		.loc 1 152 1 is_stmt 1 view -0
 256              		.cfi_startproc
 257              		@ args = 0, pretend = 0, frame = 0
 258              		@ frame_needed = 0, uses_anonymous_args = 0
 152:Drivers/STM32C0xx_HAL_Driver/Src/stm32c0xx_hal_dma.c ****   /* Check the DMA handle allocation */
 259              		.loc 1 152 1 is_stmt 0 view .LVU66
 260 0000 70B5     		push	{r4, r5, r6, lr}
 261              	.LCFI2:
 262              		.cfi_def_cfa_offset 16
 263              		.cfi_offset 4, -16
 264              		.cfi_offset 5, -12
 265              		.cfi_offset 6, -8
 266              		.cfi_offset 14, -4
 267 0002 041E     		subs	r4, r0, #0
 154:Drivers/STM32C0xx_HAL_Driver/Src/stm32c0xx_hal_dma.c ****   {
 268              		.loc 1 154 3 is_stmt 1 view .LVU67
 154:Drivers/STM32C0xx_HAL_Driver/Src/stm32c0xx_hal_dma.c ****   {
 269              		.loc 1 154 6 is_stmt 0 view .LVU68
 270 0004 4DD0     		beq	.L19
 160:Drivers/STM32C0xx_HAL_Driver/Src/stm32c0xx_hal_dma.c ****   assert_param(IS_DMA_DIRECTION(hdma->Init.Direction));
 271              		.loc 1 160 3 is_stmt 1 view .LVU69
 161:Drivers/STM32C0xx_HAL_Driver/Src/stm32c0xx_hal_dma.c ****   assert_param(IS_DMA_PERIPHERAL_INC_STATE(hdma->Init.PeriphInc));
 272              		.loc 1 161 3 view .LVU70
 162:Drivers/STM32C0xx_HAL_Driver/Src/stm32c0xx_hal_dma.c ****   assert_param(IS_DMA_MEMORY_INC_STATE(hdma->Init.MemInc));
 273              		.loc 1 162 3 view .LVU71
 163:Drivers/STM32C0xx_HAL_Driver/Src/stm32c0xx_hal_dma.c ****   assert_param(IS_DMA_PERIPHERAL_DATA_SIZE(hdma->Init.PeriphDataAlignment));
 274              		.loc 1 163 3 view .LVU72
 164:Drivers/STM32C0xx_HAL_Driver/Src/stm32c0xx_hal_dma.c ****   assert_param(IS_DMA_MEMORY_DATA_SIZE(hdma->Init.MemDataAlignment));
 275              		.loc 1 164 3 view .LVU73
 165:Drivers/STM32C0xx_HAL_Driver/Src/stm32c0xx_hal_dma.c ****   assert_param(IS_DMA_MODE(hdma->Init.Mode));
 276              		.loc 1 165 3 view .LVU74
 166:Drivers/STM32C0xx_HAL_Driver/Src/stm32c0xx_hal_dma.c ****   assert_param(IS_DMA_PRIORITY(hdma->Init.Priority));
 277              		.loc 1 166 3 view .LVU75
 167:Drivers/STM32C0xx_HAL_Driver/Src/stm32c0xx_hal_dma.c **** 
 278              		.loc 1 167 3 view .LVU76
 170:Drivers/STM32C0xx_HAL_Driver/Src/stm32c0xx_hal_dma.c ****                                                                                 (uint32_t)DMA1_Chan
 279              		.loc 1 170 3 view .LVU77
 170:Drivers/STM32C0xx_HAL_Driver/Src/stm32c0xx_hal_dma.c ****                                                                                 (uint32_t)DMA1_Chan
 280              		.loc 1 170 40 is_stmt 0 view .LVU78
 281 0006 0568     		ldr	r5, [r0]
 170:Drivers/STM32C0xx_HAL_Driver/Src/stm32c0xx_hal_dma.c ****                                                                                 (uint32_t)DMA1_Chan
 282              		.loc 1 170 51 view .LVU79
 283 0008 274B     		ldr	r3, .L22
 284 000a E818     		adds	r0, r5, r3
 285              	.LVL15:
 170:Drivers/STM32C0xx_HAL_Driver/Src/stm32c0xx_hal_dma.c ****                                                                                 (uint32_t)DMA1_Chan
 286              		.loc 1 170 78 view .LVU80
 287 000c 1421     		movs	r1, #20
 288 000e FFF7FEFF 		bl	__aeabi_uidiv
 289              	.LVL16:
ARM GAS  /var/folders/nl/kwfz41d55ync1k9vlz8wmkc80000gn/T//cc9IAU1x.s 			page 25


 171:Drivers/STM32C0xx_HAL_Driver/Src/stm32c0xx_hal_dma.c **** 
 290              		.loc 1 171 107 view .LVU81
 291 0012 8000     		lsls	r0, r0, #2
 170:Drivers/STM32C0xx_HAL_Driver/Src/stm32c0xx_hal_dma.c ****                                                                                 (uint32_t)DMA1_Chan
 292              		.loc 1 170 22 view .LVU82
 293 0014 2064     		str	r0, [r4, #64]
 174:Drivers/STM32C0xx_HAL_Driver/Src/stm32c0xx_hal_dma.c **** 
 294              		.loc 1 174 3 is_stmt 1 view .LVU83
 174:Drivers/STM32C0xx_HAL_Driver/Src/stm32c0xx_hal_dma.c **** 
 295              		.loc 1 174 15 is_stmt 0 view .LVU84
 296 0016 2523     		movs	r3, #37
 297 0018 0222     		movs	r2, #2
 298 001a E254     		strb	r2, [r4, r3]
 177:Drivers/STM32C0xx_HAL_Driver/Src/stm32c0xx_hal_dma.c ****                                   DMA_CCR_MINC  | DMA_CCR_PINC   | DMA_CCR_CIRC   | \
 299              		.loc 1 177 3 is_stmt 1 view .LVU85
 300 001c 2B68     		ldr	r3, [r5]
 301 001e 234A     		ldr	r2, .L22+4
 302 0020 1340     		ands	r3, r2
 303 0022 2B60     		str	r3, [r5]
 182:Drivers/STM32C0xx_HAL_Driver/Src/stm32c0xx_hal_dma.c ****                                 hdma->Init.PeriphInc           | hdma->Init.MemInc           | \
 304              		.loc 1 182 3 view .LVU86
 305 0024 2168     		ldr	r1, [r4]
 306 0026 0A68     		ldr	r2, [r1]
 307 0028 A368     		ldr	r3, [r4, #8]
 308 002a E068     		ldr	r0, [r4, #12]
 309 002c 0343     		orrs	r3, r0
 310 002e 2069     		ldr	r0, [r4, #16]
 311 0030 0343     		orrs	r3, r0
 312 0032 6069     		ldr	r0, [r4, #20]
 313 0034 0343     		orrs	r3, r0
 314 0036 A069     		ldr	r0, [r4, #24]
 315 0038 0343     		orrs	r3, r0
 316 003a E069     		ldr	r0, [r4, #28]
 317 003c 0343     		orrs	r3, r0
 318 003e 206A     		ldr	r0, [r4, #32]
 319 0040 0343     		orrs	r3, r0
 320 0042 1343     		orrs	r3, r2
 321 0044 0B60     		str	r3, [r1]
 190:Drivers/STM32C0xx_HAL_Driver/Src/stm32c0xx_hal_dma.c **** 
 322              		.loc 1 190 3 view .LVU87
 323 0046 2000     		movs	r0, r4
 324 0048 FFF7FEFF 		bl	DMA_CalcDMAMUXChannelBaseAndMask
 325              	.LVL17:
 192:Drivers/STM32C0xx_HAL_Driver/Src/stm32c0xx_hal_dma.c ****   {
 326              		.loc 1 192 3 view .LVU88
 192:Drivers/STM32C0xx_HAL_Driver/Src/stm32c0xx_hal_dma.c ****   {
 327              		.loc 1 192 6 is_stmt 0 view .LVU89
 328 004c 8023     		movs	r3, #128
 329 004e DB01     		lsls	r3, r3, #7
 330 0050 A268     		ldr	r2, [r4, #8]
 331 0052 9A42     		cmp	r2, r3
 332 0054 18D0     		beq	.L20
 333              	.L16:
 199:Drivers/STM32C0xx_HAL_Driver/Src/stm32c0xx_hal_dma.c **** 
 334              		.loc 1 199 3 is_stmt 1 view .LVU90
 199:Drivers/STM32C0xx_HAL_Driver/Src/stm32c0xx_hal_dma.c **** 
 335              		.loc 1 199 7 is_stmt 0 view .LVU91
ARM GAS  /var/folders/nl/kwfz41d55ync1k9vlz8wmkc80000gn/T//cc9IAU1x.s 			page 26


 336 0056 626C     		ldr	r2, [r4, #68]
 199:Drivers/STM32C0xx_HAL_Driver/Src/stm32c0xx_hal_dma.c **** 
 337              		.loc 1 199 50 view .LVU92
 338 0058 FF23     		movs	r3, #255
 339 005a 6168     		ldr	r1, [r4, #4]
 340 005c 0B40     		ands	r3, r1
 199:Drivers/STM32C0xx_HAL_Driver/Src/stm32c0xx_hal_dma.c **** 
 341              		.loc 1 199 28 view .LVU93
 342 005e 1360     		str	r3, [r2]
 202:Drivers/STM32C0xx_HAL_Driver/Src/stm32c0xx_hal_dma.c **** 
 343              		.loc 1 202 3 is_stmt 1 view .LVU94
 202:Drivers/STM32C0xx_HAL_Driver/Src/stm32c0xx_hal_dma.c **** 
 344              		.loc 1 202 7 is_stmt 0 view .LVU95
 345 0060 A36C     		ldr	r3, [r4, #72]
 202:Drivers/STM32C0xx_HAL_Driver/Src/stm32c0xx_hal_dma.c **** 
 346              		.loc 1 202 34 view .LVU96
 347 0062 E26C     		ldr	r2, [r4, #76]
 348 0064 5A60     		str	r2, [r3, #4]
 204:Drivers/STM32C0xx_HAL_Driver/Src/stm32c0xx_hal_dma.c ****   {
 349              		.loc 1 204 3 is_stmt 1 view .LVU97
 204:Drivers/STM32C0xx_HAL_Driver/Src/stm32c0xx_hal_dma.c ****   {
 350              		.loc 1 204 36 is_stmt 0 view .LVU98
 351 0066 6368     		ldr	r3, [r4, #4]
 352 0068 013B     		subs	r3, r3, #1
 204:Drivers/STM32C0xx_HAL_Driver/Src/stm32c0xx_hal_dma.c ****   {
 353              		.loc 1 204 6 view .LVU99
 354 006a 032B     		cmp	r3, #3
 355 006c 0FD9     		bls	.L21
 219:Drivers/STM32C0xx_HAL_Driver/Src/stm32c0xx_hal_dma.c ****     hdma->DMAmuxRequestGenStatus = 0U;
 356              		.loc 1 219 5 is_stmt 1 view .LVU100
 219:Drivers/STM32C0xx_HAL_Driver/Src/stm32c0xx_hal_dma.c ****     hdma->DMAmuxRequestGenStatus = 0U;
 357              		.loc 1 219 28 is_stmt 0 view .LVU101
 358 006e 0023     		movs	r3, #0
 359 0070 2365     		str	r3, [r4, #80]
 220:Drivers/STM32C0xx_HAL_Driver/Src/stm32c0xx_hal_dma.c ****     hdma->DMAmuxRequestGenStatusMask = 0U;
 360              		.loc 1 220 5 is_stmt 1 view .LVU102
 220:Drivers/STM32C0xx_HAL_Driver/Src/stm32c0xx_hal_dma.c ****     hdma->DMAmuxRequestGenStatusMask = 0U;
 361              		.loc 1 220 34 is_stmt 0 view .LVU103
 362 0072 6365     		str	r3, [r4, #84]
 221:Drivers/STM32C0xx_HAL_Driver/Src/stm32c0xx_hal_dma.c ****   }
 363              		.loc 1 221 5 is_stmt 1 view .LVU104
 221:Drivers/STM32C0xx_HAL_Driver/Src/stm32c0xx_hal_dma.c ****   }
 364              		.loc 1 221 38 is_stmt 0 view .LVU105
 365 0074 A365     		str	r3, [r4, #88]
 366              	.L18:
 225:Drivers/STM32C0xx_HAL_Driver/Src/stm32c0xx_hal_dma.c **** 
 367              		.loc 1 225 3 is_stmt 1 view .LVU106
 225:Drivers/STM32C0xx_HAL_Driver/Src/stm32c0xx_hal_dma.c **** 
 368              		.loc 1 225 19 is_stmt 0 view .LVU107
 369 0076 0023     		movs	r3, #0
 370 0078 E363     		str	r3, [r4, #60]
 228:Drivers/STM32C0xx_HAL_Driver/Src/stm32c0xx_hal_dma.c **** 
 371              		.loc 1 228 3 is_stmt 1 view .LVU108
 228:Drivers/STM32C0xx_HAL_Driver/Src/stm32c0xx_hal_dma.c **** 
 372              		.loc 1 228 16 is_stmt 0 view .LVU109
 373 007a 2522     		movs	r2, #37
 374 007c 0121     		movs	r1, #1
ARM GAS  /var/folders/nl/kwfz41d55ync1k9vlz8wmkc80000gn/T//cc9IAU1x.s 			page 27


 375 007e A154     		strb	r1, [r4, r2]
 231:Drivers/STM32C0xx_HAL_Driver/Src/stm32c0xx_hal_dma.c **** 
 376              		.loc 1 231 3 is_stmt 1 view .LVU110
 231:Drivers/STM32C0xx_HAL_Driver/Src/stm32c0xx_hal_dma.c **** 
 377              		.loc 1 231 3 view .LVU111
 378 0080 013A     		subs	r2, r2, #1
 379 0082 A354     		strb	r3, [r4, r2]
 231:Drivers/STM32C0xx_HAL_Driver/Src/stm32c0xx_hal_dma.c **** 
 380              		.loc 1 231 3 view .LVU112
 233:Drivers/STM32C0xx_HAL_Driver/Src/stm32c0xx_hal_dma.c **** }
 381              		.loc 1 233 3 view .LVU113
 233:Drivers/STM32C0xx_HAL_Driver/Src/stm32c0xx_hal_dma.c **** }
 382              		.loc 1 233 10 is_stmt 0 view .LVU114
 383 0084 0020     		movs	r0, #0
 384              	.L15:
 234:Drivers/STM32C0xx_HAL_Driver/Src/stm32c0xx_hal_dma.c **** 
 385              		.loc 1 234 1 view .LVU115
 386              		@ sp needed
 387              	.LVL18:
 234:Drivers/STM32C0xx_HAL_Driver/Src/stm32c0xx_hal_dma.c **** 
 388              		.loc 1 234 1 view .LVU116
 389 0086 70BD     		pop	{r4, r5, r6, pc}
 390              	.LVL19:
 391              	.L20:
 195:Drivers/STM32C0xx_HAL_Driver/Src/stm32c0xx_hal_dma.c ****   }
 392              		.loc 1 195 5 is_stmt 1 view .LVU117
 195:Drivers/STM32C0xx_HAL_Driver/Src/stm32c0xx_hal_dma.c ****   }
 393              		.loc 1 195 24 is_stmt 0 view .LVU118
 394 0088 0023     		movs	r3, #0
 395 008a 6360     		str	r3, [r4, #4]
 396 008c E3E7     		b	.L16
 397              	.L21:
 209:Drivers/STM32C0xx_HAL_Driver/Src/stm32c0xx_hal_dma.c **** 
 398              		.loc 1 209 5 is_stmt 1 view .LVU119
 399 008e 2000     		movs	r0, r4
 400 0090 FFF7FEFF 		bl	DMA_CalcDMAMUXRequestGenBaseAndMask
 401              	.LVL20:
 212:Drivers/STM32C0xx_HAL_Driver/Src/stm32c0xx_hal_dma.c **** 
 402              		.loc 1 212 5 view .LVU120
 212:Drivers/STM32C0xx_HAL_Driver/Src/stm32c0xx_hal_dma.c **** 
 403              		.loc 1 212 9 is_stmt 0 view .LVU121
 404 0094 236D     		ldr	r3, [r4, #80]
 212:Drivers/STM32C0xx_HAL_Driver/Src/stm32c0xx_hal_dma.c **** 
 405              		.loc 1 212 34 view .LVU122
 406 0096 0022     		movs	r2, #0
 407 0098 1A60     		str	r2, [r3]
 215:Drivers/STM32C0xx_HAL_Driver/Src/stm32c0xx_hal_dma.c ****   }
 408              		.loc 1 215 5 is_stmt 1 view .LVU123
 215:Drivers/STM32C0xx_HAL_Driver/Src/stm32c0xx_hal_dma.c ****   }
 409              		.loc 1 215 9 is_stmt 0 view .LVU124
 410 009a 636D     		ldr	r3, [r4, #84]
 215:Drivers/STM32C0xx_HAL_Driver/Src/stm32c0xx_hal_dma.c ****   }
 411              		.loc 1 215 41 view .LVU125
 412 009c A26D     		ldr	r2, [r4, #88]
 413 009e 5A60     		str	r2, [r3, #4]
 414 00a0 E9E7     		b	.L18
 415              	.LVL21:
ARM GAS  /var/folders/nl/kwfz41d55ync1k9vlz8wmkc80000gn/T//cc9IAU1x.s 			page 28


 416              	.L19:
 156:Drivers/STM32C0xx_HAL_Driver/Src/stm32c0xx_hal_dma.c ****   }
 417              		.loc 1 156 12 view .LVU126
 418 00a2 0120     		movs	r0, #1
 419              	.LVL22:
 156:Drivers/STM32C0xx_HAL_Driver/Src/stm32c0xx_hal_dma.c ****   }
 420              		.loc 1 156 12 view .LVU127
 421 00a4 EFE7     		b	.L15
 422              	.L23:
 423 00a6 C046     		.align	2
 424              	.L22:
 425 00a8 F8FFFDBF 		.word	-1073872904
 426 00ac 0F80FFFF 		.word	-32753
 427              		.cfi_endproc
 428              	.LFE214:
 430              		.section	.text.HAL_DMA_DeInit,"ax",%progbits
 431              		.align	1
 432              		.global	HAL_DMA_DeInit
 433              		.syntax unified
 434              		.code	16
 435              		.thumb_func
 437              	HAL_DMA_DeInit:
 438              	.LVL23:
 439              	.LFB215:
 243:Drivers/STM32C0xx_HAL_Driver/Src/stm32c0xx_hal_dma.c ****   /* Check the DMA handle allocation */
 440              		.loc 1 243 1 is_stmt 1 view -0
 441              		.cfi_startproc
 442              		@ args = 0, pretend = 0, frame = 0
 443              		@ frame_needed = 0, uses_anonymous_args = 0
 243:Drivers/STM32C0xx_HAL_Driver/Src/stm32c0xx_hal_dma.c ****   /* Check the DMA handle allocation */
 444              		.loc 1 243 1 is_stmt 0 view .LVU129
 445 0000 F8B5     		push	{r3, r4, r5, r6, r7, lr}
 446              	.LCFI3:
 447              		.cfi_def_cfa_offset 24
 448              		.cfi_offset 3, -24
 449              		.cfi_offset 4, -20
 450              		.cfi_offset 5, -16
 451              		.cfi_offset 6, -12
 452              		.cfi_offset 7, -8
 453              		.cfi_offset 14, -4
 454 0002 041E     		subs	r4, r0, #0
 245:Drivers/STM32C0xx_HAL_Driver/Src/stm32c0xx_hal_dma.c ****   {
 455              		.loc 1 245 3 is_stmt 1 view .LVU130
 245:Drivers/STM32C0xx_HAL_Driver/Src/stm32c0xx_hal_dma.c ****   {
 456              		.loc 1 245 6 is_stmt 0 view .LVU131
 457 0004 3BD0     		beq	.L27
 251:Drivers/STM32C0xx_HAL_Driver/Src/stm32c0xx_hal_dma.c **** 
 458              		.loc 1 251 3 is_stmt 1 view .LVU132
 254:Drivers/STM32C0xx_HAL_Driver/Src/stm32c0xx_hal_dma.c **** 
 459              		.loc 1 254 3 view .LVU133
 460 0006 0268     		ldr	r2, [r0]
 461 0008 1368     		ldr	r3, [r2]
 462 000a 0125     		movs	r5, #1
 463 000c AB43     		bics	r3, r5
 464 000e 1360     		str	r3, [r2]
 257:Drivers/STM32C0xx_HAL_Driver/Src/stm32c0xx_hal_dma.c ****                                                                                 (uint32_t)DMA1_Chan
 465              		.loc 1 257 3 view .LVU134
ARM GAS  /var/folders/nl/kwfz41d55ync1k9vlz8wmkc80000gn/T//cc9IAU1x.s 			page 29


 257:Drivers/STM32C0xx_HAL_Driver/Src/stm32c0xx_hal_dma.c ****                                                                                 (uint32_t)DMA1_Chan
 466              		.loc 1 257 40 is_stmt 0 view .LVU135
 467 0010 0768     		ldr	r7, [r0]
 257:Drivers/STM32C0xx_HAL_Driver/Src/stm32c0xx_hal_dma.c ****                                                                                 (uint32_t)DMA1_Chan
 468              		.loc 1 257 51 view .LVU136
 469 0012 1C4B     		ldr	r3, .L29
 470 0014 F818     		adds	r0, r7, r3
 471              	.LVL24:
 257:Drivers/STM32C0xx_HAL_Driver/Src/stm32c0xx_hal_dma.c ****                                                                                 (uint32_t)DMA1_Chan
 472              		.loc 1 257 78 view .LVU137
 473 0016 1421     		movs	r1, #20
 474 0018 FFF7FEFF 		bl	__aeabi_uidiv
 475              	.LVL25:
 258:Drivers/STM32C0xx_HAL_Driver/Src/stm32c0xx_hal_dma.c **** 
 476              		.loc 1 258 107 view .LVU138
 477 001c 8000     		lsls	r0, r0, #2
 257:Drivers/STM32C0xx_HAL_Driver/Src/stm32c0xx_hal_dma.c ****                                                                                 (uint32_t)DMA1_Chan
 478              		.loc 1 257 22 view .LVU139
 479 001e 2064     		str	r0, [r4, #64]
 261:Drivers/STM32C0xx_HAL_Driver/Src/stm32c0xx_hal_dma.c **** 
 480              		.loc 1 261 3 is_stmt 1 view .LVU140
 261:Drivers/STM32C0xx_HAL_Driver/Src/stm32c0xx_hal_dma.c **** 
 481              		.loc 1 261 24 is_stmt 0 view .LVU141
 482 0020 0026     		movs	r6, #0
 483 0022 3E60     		str	r6, [r7]
 264:Drivers/STM32C0xx_HAL_Driver/Src/stm32c0xx_hal_dma.c **** 
 484              		.loc 1 264 3 is_stmt 1 view .LVU142
 485 0024 1849     		ldr	r1, .L29+4
 486 0026 4B68     		ldr	r3, [r1, #4]
 487 0028 1C22     		movs	r2, #28
 488 002a 206C     		ldr	r0, [r4, #64]
 489 002c 0240     		ands	r2, r0
 490 002e 9540     		lsls	r5, r5, r2
 491 0030 1D43     		orrs	r5, r3
 492 0032 4D60     		str	r5, [r1, #4]
 269:Drivers/STM32C0xx_HAL_Driver/Src/stm32c0xx_hal_dma.c **** 
 493              		.loc 1 269 3 view .LVU143
 494 0034 2000     		movs	r0, r4
 495 0036 FFF7FEFF 		bl	DMA_CalcDMAMUXChannelBaseAndMask
 496              	.LVL26:
 272:Drivers/STM32C0xx_HAL_Driver/Src/stm32c0xx_hal_dma.c **** 
 497              		.loc 1 272 3 view .LVU144
 272:Drivers/STM32C0xx_HAL_Driver/Src/stm32c0xx_hal_dma.c **** 
 498              		.loc 1 272 7 is_stmt 0 view .LVU145
 499 003a 636C     		ldr	r3, [r4, #68]
 272:Drivers/STM32C0xx_HAL_Driver/Src/stm32c0xx_hal_dma.c **** 
 500              		.loc 1 272 28 view .LVU146
 501 003c 1E60     		str	r6, [r3]
 275:Drivers/STM32C0xx_HAL_Driver/Src/stm32c0xx_hal_dma.c **** 
 502              		.loc 1 275 3 is_stmt 1 view .LVU147
 275:Drivers/STM32C0xx_HAL_Driver/Src/stm32c0xx_hal_dma.c **** 
 503              		.loc 1 275 7 is_stmt 0 view .LVU148
 504 003e A36C     		ldr	r3, [r4, #72]
 275:Drivers/STM32C0xx_HAL_Driver/Src/stm32c0xx_hal_dma.c **** 
 505              		.loc 1 275 34 view .LVU149
 506 0040 E26C     		ldr	r2, [r4, #76]
 507 0042 5A60     		str	r2, [r3, #4]
ARM GAS  /var/folders/nl/kwfz41d55ync1k9vlz8wmkc80000gn/T//cc9IAU1x.s 			page 30


 278:Drivers/STM32C0xx_HAL_Driver/Src/stm32c0xx_hal_dma.c ****   {
 508              		.loc 1 278 3 is_stmt 1 view .LVU150
 278:Drivers/STM32C0xx_HAL_Driver/Src/stm32c0xx_hal_dma.c ****   {
 509              		.loc 1 278 36 is_stmt 0 view .LVU151
 510 0044 6368     		ldr	r3, [r4, #4]
 511 0046 013B     		subs	r3, r3, #1
 278:Drivers/STM32C0xx_HAL_Driver/Src/stm32c0xx_hal_dma.c ****   {
 512              		.loc 1 278 6 view .LVU152
 513 0048 032B     		cmp	r3, #3
 514 004a 0ED9     		bls	.L28
 515              	.L26:
 293:Drivers/STM32C0xx_HAL_Driver/Src/stm32c0xx_hal_dma.c ****   hdma->XferHalfCpltCallback = NULL;
 516              		.loc 1 293 3 is_stmt 1 view .LVU153
 293:Drivers/STM32C0xx_HAL_Driver/Src/stm32c0xx_hal_dma.c ****   hdma->XferHalfCpltCallback = NULL;
 517              		.loc 1 293 26 is_stmt 0 view .LVU154
 518 004c 0023     		movs	r3, #0
 519 004e E362     		str	r3, [r4, #44]
 294:Drivers/STM32C0xx_HAL_Driver/Src/stm32c0xx_hal_dma.c ****   hdma->XferErrorCallback = NULL;
 520              		.loc 1 294 3 is_stmt 1 view .LVU155
 294:Drivers/STM32C0xx_HAL_Driver/Src/stm32c0xx_hal_dma.c ****   hdma->XferErrorCallback = NULL;
 521              		.loc 1 294 30 is_stmt 0 view .LVU156
 522 0050 2363     		str	r3, [r4, #48]
 295:Drivers/STM32C0xx_HAL_Driver/Src/stm32c0xx_hal_dma.c ****   hdma->XferAbortCallback = NULL;
 523              		.loc 1 295 3 is_stmt 1 view .LVU157
 295:Drivers/STM32C0xx_HAL_Driver/Src/stm32c0xx_hal_dma.c ****   hdma->XferAbortCallback = NULL;
 524              		.loc 1 295 27 is_stmt 0 view .LVU158
 525 0052 6363     		str	r3, [r4, #52]
 296:Drivers/STM32C0xx_HAL_Driver/Src/stm32c0xx_hal_dma.c **** 
 526              		.loc 1 296 3 is_stmt 1 view .LVU159
 296:Drivers/STM32C0xx_HAL_Driver/Src/stm32c0xx_hal_dma.c **** 
 527              		.loc 1 296 27 is_stmt 0 view .LVU160
 528 0054 A363     		str	r3, [r4, #56]
 298:Drivers/STM32C0xx_HAL_Driver/Src/stm32c0xx_hal_dma.c ****   hdma->DMAmuxRequestGenStatus = 0U;
 529              		.loc 1 298 3 is_stmt 1 view .LVU161
 298:Drivers/STM32C0xx_HAL_Driver/Src/stm32c0xx_hal_dma.c ****   hdma->DMAmuxRequestGenStatus = 0U;
 530              		.loc 1 298 26 is_stmt 0 view .LVU162
 531 0056 2365     		str	r3, [r4, #80]
 299:Drivers/STM32C0xx_HAL_Driver/Src/stm32c0xx_hal_dma.c ****   hdma->DMAmuxRequestGenStatusMask = 0U;
 532              		.loc 1 299 3 is_stmt 1 view .LVU163
 299:Drivers/STM32C0xx_HAL_Driver/Src/stm32c0xx_hal_dma.c ****   hdma->DMAmuxRequestGenStatusMask = 0U;
 533              		.loc 1 299 32 is_stmt 0 view .LVU164
 534 0058 6365     		str	r3, [r4, #84]
 300:Drivers/STM32C0xx_HAL_Driver/Src/stm32c0xx_hal_dma.c **** 
 535              		.loc 1 300 3 is_stmt 1 view .LVU165
 300:Drivers/STM32C0xx_HAL_Driver/Src/stm32c0xx_hal_dma.c **** 
 536              		.loc 1 300 36 is_stmt 0 view .LVU166
 537 005a A365     		str	r3, [r4, #88]
 303:Drivers/STM32C0xx_HAL_Driver/Src/stm32c0xx_hal_dma.c **** 
 538              		.loc 1 303 3 is_stmt 1 view .LVU167
 303:Drivers/STM32C0xx_HAL_Driver/Src/stm32c0xx_hal_dma.c **** 
 539              		.loc 1 303 19 is_stmt 0 view .LVU168
 540 005c E363     		str	r3, [r4, #60]
 306:Drivers/STM32C0xx_HAL_Driver/Src/stm32c0xx_hal_dma.c **** 
 541              		.loc 1 306 3 is_stmt 1 view .LVU169
 306:Drivers/STM32C0xx_HAL_Driver/Src/stm32c0xx_hal_dma.c **** 
 542              		.loc 1 306 15 is_stmt 0 view .LVU170
 543 005e 2522     		movs	r2, #37
ARM GAS  /var/folders/nl/kwfz41d55ync1k9vlz8wmkc80000gn/T//cc9IAU1x.s 			page 31


 544 0060 A354     		strb	r3, [r4, r2]
 309:Drivers/STM32C0xx_HAL_Driver/Src/stm32c0xx_hal_dma.c **** 
 545              		.loc 1 309 3 is_stmt 1 view .LVU171
 309:Drivers/STM32C0xx_HAL_Driver/Src/stm32c0xx_hal_dma.c **** 
 546              		.loc 1 309 3 view .LVU172
 547 0062 013A     		subs	r2, r2, #1
 548 0064 A354     		strb	r3, [r4, r2]
 309:Drivers/STM32C0xx_HAL_Driver/Src/stm32c0xx_hal_dma.c **** 
 549              		.loc 1 309 3 view .LVU173
 311:Drivers/STM32C0xx_HAL_Driver/Src/stm32c0xx_hal_dma.c **** }
 550              		.loc 1 311 3 view .LVU174
 311:Drivers/STM32C0xx_HAL_Driver/Src/stm32c0xx_hal_dma.c **** }
 551              		.loc 1 311 10 is_stmt 0 view .LVU175
 552 0066 0020     		movs	r0, #0
 553              	.L25:
 312:Drivers/STM32C0xx_HAL_Driver/Src/stm32c0xx_hal_dma.c **** 
 554              		.loc 1 312 1 view .LVU176
 555              		@ sp needed
 556              	.LVL27:
 312:Drivers/STM32C0xx_HAL_Driver/Src/stm32c0xx_hal_dma.c **** 
 557              		.loc 1 312 1 view .LVU177
 558 0068 F8BD     		pop	{r3, r4, r5, r6, r7, pc}
 559              	.LVL28:
 560              	.L28:
 283:Drivers/STM32C0xx_HAL_Driver/Src/stm32c0xx_hal_dma.c **** 
 561              		.loc 1 283 5 is_stmt 1 view .LVU178
 562 006a 2000     		movs	r0, r4
 563 006c FFF7FEFF 		bl	DMA_CalcDMAMUXRequestGenBaseAndMask
 564              	.LVL29:
 286:Drivers/STM32C0xx_HAL_Driver/Src/stm32c0xx_hal_dma.c **** 
 565              		.loc 1 286 5 view .LVU179
 286:Drivers/STM32C0xx_HAL_Driver/Src/stm32c0xx_hal_dma.c **** 
 566              		.loc 1 286 9 is_stmt 0 view .LVU180
 567 0070 236D     		ldr	r3, [r4, #80]
 286:Drivers/STM32C0xx_HAL_Driver/Src/stm32c0xx_hal_dma.c **** 
 568              		.loc 1 286 34 view .LVU181
 569 0072 0022     		movs	r2, #0
 570 0074 1A60     		str	r2, [r3]
 289:Drivers/STM32C0xx_HAL_Driver/Src/stm32c0xx_hal_dma.c ****   }
 571              		.loc 1 289 5 is_stmt 1 view .LVU182
 289:Drivers/STM32C0xx_HAL_Driver/Src/stm32c0xx_hal_dma.c ****   }
 572              		.loc 1 289 9 is_stmt 0 view .LVU183
 573 0076 636D     		ldr	r3, [r4, #84]
 289:Drivers/STM32C0xx_HAL_Driver/Src/stm32c0xx_hal_dma.c ****   }
 574              		.loc 1 289 41 view .LVU184
 575 0078 A26D     		ldr	r2, [r4, #88]
 576 007a 5A60     		str	r2, [r3, #4]
 577 007c E6E7     		b	.L26
 578              	.LVL30:
 579              	.L27:
 247:Drivers/STM32C0xx_HAL_Driver/Src/stm32c0xx_hal_dma.c ****   }
 580              		.loc 1 247 12 view .LVU185
 581 007e 0120     		movs	r0, #1
 582              	.LVL31:
 247:Drivers/STM32C0xx_HAL_Driver/Src/stm32c0xx_hal_dma.c ****   }
 583              		.loc 1 247 12 view .LVU186
 584 0080 F2E7     		b	.L25
ARM GAS  /var/folders/nl/kwfz41d55ync1k9vlz8wmkc80000gn/T//cc9IAU1x.s 			page 32


 585              	.L30:
 586 0082 C046     		.align	2
 587              	.L29:
 588 0084 F8FFFDBF 		.word	-1073872904
 589 0088 00000240 		.word	1073872896
 590              		.cfi_endproc
 591              	.LFE215:
 593              		.section	.text.HAL_DMA_Start,"ax",%progbits
 594              		.align	1
 595              		.global	HAL_DMA_Start
 596              		.syntax unified
 597              		.code	16
 598              		.thumb_func
 600              	HAL_DMA_Start:
 601              	.LVL32:
 602              	.LFB216:
 347:Drivers/STM32C0xx_HAL_Driver/Src/stm32c0xx_hal_dma.c ****   HAL_StatusTypeDef status = HAL_OK;
 603              		.loc 1 347 1 is_stmt 1 view -0
 604              		.cfi_startproc
 605              		@ args = 0, pretend = 0, frame = 0
 606              		@ frame_needed = 0, uses_anonymous_args = 0
 347:Drivers/STM32C0xx_HAL_Driver/Src/stm32c0xx_hal_dma.c ****   HAL_StatusTypeDef status = HAL_OK;
 607              		.loc 1 347 1 is_stmt 0 view .LVU188
 608 0000 70B5     		push	{r4, r5, r6, lr}
 609              	.LCFI4:
 610              		.cfi_def_cfa_offset 16
 611              		.cfi_offset 4, -16
 612              		.cfi_offset 5, -12
 613              		.cfi_offset 6, -8
 614              		.cfi_offset 14, -4
 615 0002 0400     		movs	r4, r0
 348:Drivers/STM32C0xx_HAL_Driver/Src/stm32c0xx_hal_dma.c **** 
 616              		.loc 1 348 3 is_stmt 1 view .LVU189
 617              	.LVL33:
 351:Drivers/STM32C0xx_HAL_Driver/Src/stm32c0xx_hal_dma.c **** 
 618              		.loc 1 351 3 view .LVU190
 354:Drivers/STM32C0xx_HAL_Driver/Src/stm32c0xx_hal_dma.c **** 
 619              		.loc 1 354 3 view .LVU191
 354:Drivers/STM32C0xx_HAL_Driver/Src/stm32c0xx_hal_dma.c **** 
 620              		.loc 1 354 3 view .LVU192
 621 0004 2420     		movs	r0, #36
 622              	.LVL34:
 354:Drivers/STM32C0xx_HAL_Driver/Src/stm32c0xx_hal_dma.c **** 
 623              		.loc 1 354 3 is_stmt 0 view .LVU193
 624 0006 205C     		ldrb	r0, [r4, r0]
 625 0008 0128     		cmp	r0, #1
 626 000a 21D0     		beq	.L35
 354:Drivers/STM32C0xx_HAL_Driver/Src/stm32c0xx_hal_dma.c **** 
 627              		.loc 1 354 3 is_stmt 1 discriminator 2 view .LVU194
 628 000c 2420     		movs	r0, #36
 629 000e 0125     		movs	r5, #1
 630 0010 2554     		strb	r5, [r4, r0]
 354:Drivers/STM32C0xx_HAL_Driver/Src/stm32c0xx_hal_dma.c **** 
 631              		.loc 1 354 3 discriminator 2 view .LVU195
 356:Drivers/STM32C0xx_HAL_Driver/Src/stm32c0xx_hal_dma.c ****   {
 632              		.loc 1 356 3 discriminator 2 view .LVU196
 356:Drivers/STM32C0xx_HAL_Driver/Src/stm32c0xx_hal_dma.c ****   {
ARM GAS  /var/folders/nl/kwfz41d55ync1k9vlz8wmkc80000gn/T//cc9IAU1x.s 			page 33


 633              		.loc 1 356 34 is_stmt 0 discriminator 2 view .LVU197
 634 0012 0130     		adds	r0, r0, #1
 635 0014 205C     		ldrb	r0, [r4, r0]
 356:Drivers/STM32C0xx_HAL_Driver/Src/stm32c0xx_hal_dma.c ****   {
 636              		.loc 1 356 6 discriminator 2 view .LVU198
 637 0016 0128     		cmp	r0, #1
 638 0018 07D0     		beq	.L36
 374:Drivers/STM32C0xx_HAL_Driver/Src/stm32c0xx_hal_dma.c ****     status = HAL_BUSY;
 639              		.loc 1 374 5 is_stmt 1 view .LVU199
 374:Drivers/STM32C0xx_HAL_Driver/Src/stm32c0xx_hal_dma.c ****     status = HAL_BUSY;
 640              		.loc 1 374 5 view .LVU200
 641 001a 2423     		movs	r3, #36
 642              	.LVL35:
 374:Drivers/STM32C0xx_HAL_Driver/Src/stm32c0xx_hal_dma.c ****     status = HAL_BUSY;
 643              		.loc 1 374 5 is_stmt 0 view .LVU201
 644 001c 0022     		movs	r2, #0
 645              	.LVL36:
 374:Drivers/STM32C0xx_HAL_Driver/Src/stm32c0xx_hal_dma.c ****     status = HAL_BUSY;
 646              		.loc 1 374 5 view .LVU202
 647 001e E254     		strb	r2, [r4, r3]
 374:Drivers/STM32C0xx_HAL_Driver/Src/stm32c0xx_hal_dma.c ****     status = HAL_BUSY;
 648              		.loc 1 374 5 is_stmt 1 view .LVU203
 375:Drivers/STM32C0xx_HAL_Driver/Src/stm32c0xx_hal_dma.c ****   }
 649              		.loc 1 375 5 view .LVU204
 650              	.LVL37:
 375:Drivers/STM32C0xx_HAL_Driver/Src/stm32c0xx_hal_dma.c ****   }
 651              		.loc 1 375 12 is_stmt 0 view .LVU205
 652 0020 0220     		movs	r0, #2
 653              	.LVL38:
 654              	.L34:
 379:Drivers/STM32C0xx_HAL_Driver/Src/stm32c0xx_hal_dma.c **** 
 655              		.loc 1 379 3 is_stmt 1 view .LVU206
 379:Drivers/STM32C0xx_HAL_Driver/Src/stm32c0xx_hal_dma.c **** 
 656              		.loc 1 379 3 view .LVU207
 657 0022 2423     		movs	r3, #36
 658 0024 0022     		movs	r2, #0
 659 0026 E254     		strb	r2, [r4, r3]
 379:Drivers/STM32C0xx_HAL_Driver/Src/stm32c0xx_hal_dma.c **** 
 660              		.loc 1 379 3 view .LVU208
 381:Drivers/STM32C0xx_HAL_Driver/Src/stm32c0xx_hal_dma.c **** }
 661              		.loc 1 381 3 view .LVU209
 662              	.LVL39:
 663              	.L32:
 382:Drivers/STM32C0xx_HAL_Driver/Src/stm32c0xx_hal_dma.c **** 
 664              		.loc 1 382 1 is_stmt 0 view .LVU210
 665              		@ sp needed
 666              	.LVL40:
 382:Drivers/STM32C0xx_HAL_Driver/Src/stm32c0xx_hal_dma.c **** 
 667              		.loc 1 382 1 view .LVU211
 668 0028 70BD     		pop	{r4, r5, r6, pc}
 669              	.LVL41:
 670              	.L36:
 359:Drivers/STM32C0xx_HAL_Driver/Src/stm32c0xx_hal_dma.c ****     hdma->ErrorCode = HAL_DMA_ERROR_NONE;
 671              		.loc 1 359 5 is_stmt 1 view .LVU212
 359:Drivers/STM32C0xx_HAL_Driver/Src/stm32c0xx_hal_dma.c ****     hdma->ErrorCode = HAL_DMA_ERROR_NONE;
 672              		.loc 1 359 17 is_stmt 0 view .LVU213
 673 002a 2430     		adds	r0, r0, #36
ARM GAS  /var/folders/nl/kwfz41d55ync1k9vlz8wmkc80000gn/T//cc9IAU1x.s 			page 34


 674 002c 0135     		adds	r5, r5, #1
 675 002e 2554     		strb	r5, [r4, r0]
 360:Drivers/STM32C0xx_HAL_Driver/Src/stm32c0xx_hal_dma.c **** 
 676              		.loc 1 360 5 is_stmt 1 view .LVU214
 360:Drivers/STM32C0xx_HAL_Driver/Src/stm32c0xx_hal_dma.c **** 
 677              		.loc 1 360 21 is_stmt 0 view .LVU215
 678 0030 0020     		movs	r0, #0
 679 0032 E063     		str	r0, [r4, #60]
 363:Drivers/STM32C0xx_HAL_Driver/Src/stm32c0xx_hal_dma.c **** 
 680              		.loc 1 363 5 is_stmt 1 view .LVU216
 681 0034 2668     		ldr	r6, [r4]
 682 0036 3068     		ldr	r0, [r6]
 683 0038 013D     		subs	r5, r5, #1
 684 003a A843     		bics	r0, r5
 685 003c 3060     		str	r0, [r6]
 366:Drivers/STM32C0xx_HAL_Driver/Src/stm32c0xx_hal_dma.c **** 
 686              		.loc 1 366 5 view .LVU217
 687 003e 2000     		movs	r0, r4
 688 0040 FFF7FEFF 		bl	DMA_SetConfig
 689              	.LVL42:
 369:Drivers/STM32C0xx_HAL_Driver/Src/stm32c0xx_hal_dma.c ****   }
 690              		.loc 1 369 5 view .LVU218
 691 0044 2268     		ldr	r2, [r4]
 692 0046 1368     		ldr	r3, [r2]
 693 0048 2B43     		orrs	r3, r5
 694 004a 1360     		str	r3, [r2]
 348:Drivers/STM32C0xx_HAL_Driver/Src/stm32c0xx_hal_dma.c **** 
 695              		.loc 1 348 21 is_stmt 0 view .LVU219
 696 004c 0020     		movs	r0, #0
 697 004e E8E7     		b	.L34
 698              	.LVL43:
 699              	.L35:
 354:Drivers/STM32C0xx_HAL_Driver/Src/stm32c0xx_hal_dma.c **** 
 700              		.loc 1 354 3 view .LVU220
 701 0050 0220     		movs	r0, #2
 702 0052 E9E7     		b	.L32
 703              		.cfi_endproc
 704              	.LFE216:
 706              		.section	.text.HAL_DMA_Start_IT,"ax",%progbits
 707              		.align	1
 708              		.global	HAL_DMA_Start_IT
 709              		.syntax unified
 710              		.code	16
 711              		.thumb_func
 713              	HAL_DMA_Start_IT:
 714              	.LVL44:
 715              	.LFB217:
 395:Drivers/STM32C0xx_HAL_Driver/Src/stm32c0xx_hal_dma.c ****   HAL_StatusTypeDef status = HAL_OK;
 716              		.loc 1 395 1 is_stmt 1 view -0
 717              		.cfi_startproc
 718              		@ args = 0, pretend = 0, frame = 0
 719              		@ frame_needed = 0, uses_anonymous_args = 0
 395:Drivers/STM32C0xx_HAL_Driver/Src/stm32c0xx_hal_dma.c ****   HAL_StatusTypeDef status = HAL_OK;
 720              		.loc 1 395 1 is_stmt 0 view .LVU222
 721 0000 70B5     		push	{r4, r5, r6, lr}
 722              	.LCFI5:
 723              		.cfi_def_cfa_offset 16
ARM GAS  /var/folders/nl/kwfz41d55ync1k9vlz8wmkc80000gn/T//cc9IAU1x.s 			page 35


 724              		.cfi_offset 4, -16
 725              		.cfi_offset 5, -12
 726              		.cfi_offset 6, -8
 727              		.cfi_offset 14, -4
 728 0002 0400     		movs	r4, r0
 396:Drivers/STM32C0xx_HAL_Driver/Src/stm32c0xx_hal_dma.c **** 
 729              		.loc 1 396 3 is_stmt 1 view .LVU223
 730              	.LVL45:
 399:Drivers/STM32C0xx_HAL_Driver/Src/stm32c0xx_hal_dma.c **** 
 731              		.loc 1 399 3 view .LVU224
 402:Drivers/STM32C0xx_HAL_Driver/Src/stm32c0xx_hal_dma.c **** 
 732              		.loc 1 402 3 view .LVU225
 402:Drivers/STM32C0xx_HAL_Driver/Src/stm32c0xx_hal_dma.c **** 
 733              		.loc 1 402 3 view .LVU226
 734 0004 2420     		movs	r0, #36
 735              	.LVL46:
 402:Drivers/STM32C0xx_HAL_Driver/Src/stm32c0xx_hal_dma.c **** 
 736              		.loc 1 402 3 is_stmt 0 view .LVU227
 737 0006 205C     		ldrb	r0, [r4, r0]
 738 0008 0128     		cmp	r0, #1
 739 000a 46D0     		beq	.L45
 402:Drivers/STM32C0xx_HAL_Driver/Src/stm32c0xx_hal_dma.c **** 
 740              		.loc 1 402 3 is_stmt 1 discriminator 2 view .LVU228
 741 000c 2420     		movs	r0, #36
 742 000e 0125     		movs	r5, #1
 743 0010 2554     		strb	r5, [r4, r0]
 402:Drivers/STM32C0xx_HAL_Driver/Src/stm32c0xx_hal_dma.c **** 
 744              		.loc 1 402 3 discriminator 2 view .LVU229
 404:Drivers/STM32C0xx_HAL_Driver/Src/stm32c0xx_hal_dma.c ****   {
 745              		.loc 1 404 3 discriminator 2 view .LVU230
 404:Drivers/STM32C0xx_HAL_Driver/Src/stm32c0xx_hal_dma.c ****   {
 746              		.loc 1 404 34 is_stmt 0 discriminator 2 view .LVU231
 747 0012 0130     		adds	r0, r0, #1
 748 0014 205C     		ldrb	r0, [r4, r0]
 404:Drivers/STM32C0xx_HAL_Driver/Src/stm32c0xx_hal_dma.c ****   {
 749              		.loc 1 404 6 discriminator 2 view .LVU232
 750 0016 0128     		cmp	r0, #1
 751 0018 07D0     		beq	.L46
 449:Drivers/STM32C0xx_HAL_Driver/Src/stm32c0xx_hal_dma.c **** 
 752              		.loc 1 449 5 is_stmt 1 view .LVU233
 449:Drivers/STM32C0xx_HAL_Driver/Src/stm32c0xx_hal_dma.c **** 
 753              		.loc 1 449 5 view .LVU234
 754 001a 2423     		movs	r3, #36
 755              	.LVL47:
 449:Drivers/STM32C0xx_HAL_Driver/Src/stm32c0xx_hal_dma.c **** 
 756              		.loc 1 449 5 is_stmt 0 view .LVU235
 757 001c 0022     		movs	r2, #0
 758              	.LVL48:
 449:Drivers/STM32C0xx_HAL_Driver/Src/stm32c0xx_hal_dma.c **** 
 759              		.loc 1 449 5 view .LVU236
 760 001e E254     		strb	r2, [r4, r3]
 449:Drivers/STM32C0xx_HAL_Driver/Src/stm32c0xx_hal_dma.c **** 
 761              		.loc 1 449 5 is_stmt 1 view .LVU237
 452:Drivers/STM32C0xx_HAL_Driver/Src/stm32c0xx_hal_dma.c ****   }
 762              		.loc 1 452 5 view .LVU238
 763              	.LVL49:
 452:Drivers/STM32C0xx_HAL_Driver/Src/stm32c0xx_hal_dma.c ****   }
ARM GAS  /var/folders/nl/kwfz41d55ync1k9vlz8wmkc80000gn/T//cc9IAU1x.s 			page 36


 764              		.loc 1 452 12 is_stmt 0 view .LVU239
 765 0020 0220     		movs	r0, #2
 766              	.LVL50:
 767              	.L44:
 456:Drivers/STM32C0xx_HAL_Driver/Src/stm32c0xx_hal_dma.c **** 
 768              		.loc 1 456 3 is_stmt 1 view .LVU240
 456:Drivers/STM32C0xx_HAL_Driver/Src/stm32c0xx_hal_dma.c **** 
 769              		.loc 1 456 3 view .LVU241
 770 0022 2423     		movs	r3, #36
 771 0024 0022     		movs	r2, #0
 772 0026 E254     		strb	r2, [r4, r3]
 456:Drivers/STM32C0xx_HAL_Driver/Src/stm32c0xx_hal_dma.c **** 
 773              		.loc 1 456 3 view .LVU242
 458:Drivers/STM32C0xx_HAL_Driver/Src/stm32c0xx_hal_dma.c **** }
 774              		.loc 1 458 3 view .LVU243
 775              	.LVL51:
 776              	.L38:
 459:Drivers/STM32C0xx_HAL_Driver/Src/stm32c0xx_hal_dma.c **** 
 777              		.loc 1 459 1 is_stmt 0 view .LVU244
 778              		@ sp needed
 779              	.LVL52:
 459:Drivers/STM32C0xx_HAL_Driver/Src/stm32c0xx_hal_dma.c **** 
 780              		.loc 1 459 1 view .LVU245
 781 0028 70BD     		pop	{r4, r5, r6, pc}
 782              	.LVL53:
 783              	.L46:
 407:Drivers/STM32C0xx_HAL_Driver/Src/stm32c0xx_hal_dma.c ****     hdma->ErrorCode = HAL_DMA_ERROR_NONE;
 784              		.loc 1 407 5 is_stmt 1 view .LVU246
 407:Drivers/STM32C0xx_HAL_Driver/Src/stm32c0xx_hal_dma.c ****     hdma->ErrorCode = HAL_DMA_ERROR_NONE;
 785              		.loc 1 407 17 is_stmt 0 view .LVU247
 786 002a 2430     		adds	r0, r0, #36
 787 002c 0135     		adds	r5, r5, #1
 788 002e 2554     		strb	r5, [r4, r0]
 408:Drivers/STM32C0xx_HAL_Driver/Src/stm32c0xx_hal_dma.c **** 
 789              		.loc 1 408 5 is_stmt 1 view .LVU248
 408:Drivers/STM32C0xx_HAL_Driver/Src/stm32c0xx_hal_dma.c **** 
 790              		.loc 1 408 21 is_stmt 0 view .LVU249
 791 0030 0020     		movs	r0, #0
 792 0032 E063     		str	r0, [r4, #60]
 411:Drivers/STM32C0xx_HAL_Driver/Src/stm32c0xx_hal_dma.c **** 
 793              		.loc 1 411 5 is_stmt 1 view .LVU250
 794 0034 2568     		ldr	r5, [r4]
 795 0036 2868     		ldr	r0, [r5]
 796 0038 0126     		movs	r6, #1
 797 003a B043     		bics	r0, r6
 798 003c 2860     		str	r0, [r5]
 414:Drivers/STM32C0xx_HAL_Driver/Src/stm32c0xx_hal_dma.c **** 
 799              		.loc 1 414 5 view .LVU251
 800 003e 2000     		movs	r0, r4
 801 0040 FFF7FEFF 		bl	DMA_SetConfig
 802              	.LVL54:
 418:Drivers/STM32C0xx_HAL_Driver/Src/stm32c0xx_hal_dma.c ****     {
 803              		.loc 1 418 5 view .LVU252
 418:Drivers/STM32C0xx_HAL_Driver/Src/stm32c0xx_hal_dma.c ****     {
 804              		.loc 1 418 8 is_stmt 0 view .LVU253
 805 0044 236B     		ldr	r3, [r4, #48]
 806 0046 002B     		cmp	r3, #0
ARM GAS  /var/folders/nl/kwfz41d55ync1k9vlz8wmkc80000gn/T//cc9IAU1x.s 			page 37


 807 0048 1CD0     		beq	.L40
 421:Drivers/STM32C0xx_HAL_Driver/Src/stm32c0xx_hal_dma.c ****     }
 808              		.loc 1 421 7 is_stmt 1 view .LVU254
 809 004a 2268     		ldr	r2, [r4]
 810 004c 1368     		ldr	r3, [r2]
 811 004e 0E21     		movs	r1, #14
 812 0050 0B43     		orrs	r3, r1
 813 0052 1360     		str	r3, [r2]
 814              	.L41:
 430:Drivers/STM32C0xx_HAL_Driver/Src/stm32c0xx_hal_dma.c ****     {
 815              		.loc 1 430 5 view .LVU255
 430:Drivers/STM32C0xx_HAL_Driver/Src/stm32c0xx_hal_dma.c ****     {
 816              		.loc 1 430 14 is_stmt 0 view .LVU256
 817 0054 636C     		ldr	r3, [r4, #68]
 430:Drivers/STM32C0xx_HAL_Driver/Src/stm32c0xx_hal_dma.c ****     {
 818              		.loc 1 430 29 view .LVU257
 819 0056 1A68     		ldr	r2, [r3]
 430:Drivers/STM32C0xx_HAL_Driver/Src/stm32c0xx_hal_dma.c ****     {
 820              		.loc 1 430 8 view .LVU258
 821 0058 D203     		lsls	r2, r2, #15
 822 005a 04D5     		bpl	.L42
 433:Drivers/STM32C0xx_HAL_Driver/Src/stm32c0xx_hal_dma.c ****     }
 823              		.loc 1 433 7 is_stmt 1 view .LVU259
 433:Drivers/STM32C0xx_HAL_Driver/Src/stm32c0xx_hal_dma.c ****     }
 824              		.loc 1 433 32 is_stmt 0 view .LVU260
 825 005c 1968     		ldr	r1, [r3]
 826 005e 8022     		movs	r2, #128
 827 0060 5200     		lsls	r2, r2, #1
 828 0062 0A43     		orrs	r2, r1
 829 0064 1A60     		str	r2, [r3]
 830              	.L42:
 436:Drivers/STM32C0xx_HAL_Driver/Src/stm32c0xx_hal_dma.c ****     {
 831              		.loc 1 436 5 is_stmt 1 view .LVU261
 436:Drivers/STM32C0xx_HAL_Driver/Src/stm32c0xx_hal_dma.c ****     {
 832              		.loc 1 436 13 is_stmt 0 view .LVU262
 833 0066 236D     		ldr	r3, [r4, #80]
 436:Drivers/STM32C0xx_HAL_Driver/Src/stm32c0xx_hal_dma.c ****     {
 834              		.loc 1 436 8 view .LVU263
 835 0068 002B     		cmp	r3, #0
 836 006a 04D0     		beq	.L43
 440:Drivers/STM32C0xx_HAL_Driver/Src/stm32c0xx_hal_dma.c ****     }
 837              		.loc 1 440 7 is_stmt 1 view .LVU264
 440:Drivers/STM32C0xx_HAL_Driver/Src/stm32c0xx_hal_dma.c ****     }
 838              		.loc 1 440 36 is_stmt 0 view .LVU265
 839 006c 1968     		ldr	r1, [r3]
 840 006e 8022     		movs	r2, #128
 841 0070 5200     		lsls	r2, r2, #1
 842 0072 0A43     		orrs	r2, r1
 843 0074 1A60     		str	r2, [r3]
 844              	.L43:
 444:Drivers/STM32C0xx_HAL_Driver/Src/stm32c0xx_hal_dma.c ****   }
 845              		.loc 1 444 5 is_stmt 1 view .LVU266
 846 0076 2268     		ldr	r2, [r4]
 847 0078 1368     		ldr	r3, [r2]
 848 007a 0121     		movs	r1, #1
 849 007c 0B43     		orrs	r3, r1
 850 007e 1360     		str	r3, [r2]
ARM GAS  /var/folders/nl/kwfz41d55ync1k9vlz8wmkc80000gn/T//cc9IAU1x.s 			page 38


 396:Drivers/STM32C0xx_HAL_Driver/Src/stm32c0xx_hal_dma.c **** 
 851              		.loc 1 396 21 is_stmt 0 view .LVU267
 852 0080 0020     		movs	r0, #0
 853 0082 CEE7     		b	.L44
 854              	.L40:
 425:Drivers/STM32C0xx_HAL_Driver/Src/stm32c0xx_hal_dma.c ****       __HAL_DMA_ENABLE_IT(hdma, (DMA_IT_TC | DMA_IT_TE));
 855              		.loc 1 425 7 is_stmt 1 view .LVU268
 856 0084 2268     		ldr	r2, [r4]
 857 0086 1368     		ldr	r3, [r2]
 858 0088 0421     		movs	r1, #4
 859 008a 8B43     		bics	r3, r1
 860 008c 1360     		str	r3, [r2]
 426:Drivers/STM32C0xx_HAL_Driver/Src/stm32c0xx_hal_dma.c ****     }
 861              		.loc 1 426 7 view .LVU269
 862 008e 2268     		ldr	r2, [r4]
 863 0090 1368     		ldr	r3, [r2]
 864 0092 0631     		adds	r1, r1, #6
 865 0094 0B43     		orrs	r3, r1
 866 0096 1360     		str	r3, [r2]
 867 0098 DCE7     		b	.L41
 868              	.LVL55:
 869              	.L45:
 402:Drivers/STM32C0xx_HAL_Driver/Src/stm32c0xx_hal_dma.c **** 
 870              		.loc 1 402 3 is_stmt 0 view .LVU270
 871 009a 0220     		movs	r0, #2
 872 009c C4E7     		b	.L38
 873              		.cfi_endproc
 874              	.LFE217:
 876              		.section	.text.HAL_DMA_Abort,"ax",%progbits
 877              		.align	1
 878              		.global	HAL_DMA_Abort
 879              		.syntax unified
 880              		.code	16
 881              		.thumb_func
 883              	HAL_DMA_Abort:
 884              	.LVL56:
 885              	.LFB218:
 468:Drivers/STM32C0xx_HAL_Driver/Src/stm32c0xx_hal_dma.c ****   /* Check the DMA peripheral handle */
 886              		.loc 1 468 1 is_stmt 1 view -0
 887              		.cfi_startproc
 888              		@ args = 0, pretend = 0, frame = 0
 889              		@ frame_needed = 0, uses_anonymous_args = 0
 468:Drivers/STM32C0xx_HAL_Driver/Src/stm32c0xx_hal_dma.c ****   /* Check the DMA peripheral handle */
 890              		.loc 1 468 1 is_stmt 0 view .LVU272
 891 0000 30B5     		push	{r4, r5, lr}
 892              	.LCFI6:
 893              		.cfi_def_cfa_offset 12
 894              		.cfi_offset 4, -12
 895              		.cfi_offset 5, -8
 896              		.cfi_offset 14, -4
 470:Drivers/STM32C0xx_HAL_Driver/Src/stm32c0xx_hal_dma.c ****   {
 897              		.loc 1 470 3 is_stmt 1 view .LVU273
 470:Drivers/STM32C0xx_HAL_Driver/Src/stm32c0xx_hal_dma.c ****   {
 898              		.loc 1 470 6 is_stmt 0 view .LVU274
 899 0002 0028     		cmp	r0, #0
 900 0004 36D0     		beq	.L51
 476:Drivers/STM32C0xx_HAL_Driver/Src/stm32c0xx_hal_dma.c ****   {
ARM GAS  /var/folders/nl/kwfz41d55ync1k9vlz8wmkc80000gn/T//cc9IAU1x.s 			page 39


 901              		.loc 1 476 3 is_stmt 1 view .LVU275
 476:Drivers/STM32C0xx_HAL_Driver/Src/stm32c0xx_hal_dma.c ****   {
 902              		.loc 1 476 11 is_stmt 0 view .LVU276
 903 0006 2523     		movs	r3, #37
 904 0008 C35C     		ldrb	r3, [r0, r3]
 476:Drivers/STM32C0xx_HAL_Driver/Src/stm32c0xx_hal_dma.c ****   {
 905              		.loc 1 476 6 view .LVU277
 906 000a 022B     		cmp	r3, #2
 907 000c 06D0     		beq	.L49
 478:Drivers/STM32C0xx_HAL_Driver/Src/stm32c0xx_hal_dma.c **** 
 908              		.loc 1 478 5 is_stmt 1 view .LVU278
 478:Drivers/STM32C0xx_HAL_Driver/Src/stm32c0xx_hal_dma.c **** 
 909              		.loc 1 478 21 is_stmt 0 view .LVU279
 910 000e 0423     		movs	r3, #4
 911 0010 C363     		str	r3, [r0, #60]
 481:Drivers/STM32C0xx_HAL_Driver/Src/stm32c0xx_hal_dma.c **** 
 912              		.loc 1 481 5 is_stmt 1 view .LVU280
 481:Drivers/STM32C0xx_HAL_Driver/Src/stm32c0xx_hal_dma.c **** 
 913              		.loc 1 481 5 view .LVU281
 914 0012 2033     		adds	r3, r3, #32
 915 0014 0022     		movs	r2, #0
 916 0016 C254     		strb	r2, [r0, r3]
 481:Drivers/STM32C0xx_HAL_Driver/Src/stm32c0xx_hal_dma.c **** 
 917              		.loc 1 481 5 view .LVU282
 483:Drivers/STM32C0xx_HAL_Driver/Src/stm32c0xx_hal_dma.c ****   }
 918              		.loc 1 483 5 view .LVU283
 483:Drivers/STM32C0xx_HAL_Driver/Src/stm32c0xx_hal_dma.c ****   }
 919              		.loc 1 483 12 is_stmt 0 view .LVU284
 920 0018 0120     		movs	r0, #1
 921              	.LVL57:
 922              	.L48:
 520:Drivers/STM32C0xx_HAL_Driver/Src/stm32c0xx_hal_dma.c **** 
 923              		.loc 1 520 1 view .LVU285
 924              		@ sp needed
 925 001a 30BD     		pop	{r4, r5, pc}
 926              	.LVL58:
 927              	.L49:
 488:Drivers/STM32C0xx_HAL_Driver/Src/stm32c0xx_hal_dma.c **** 
 928              		.loc 1 488 5 is_stmt 1 view .LVU286
 929 001c 0268     		ldr	r2, [r0]
 930 001e 1368     		ldr	r3, [r2]
 931 0020 0E21     		movs	r1, #14
 932 0022 8B43     		bics	r3, r1
 933 0024 1360     		str	r3, [r2]
 491:Drivers/STM32C0xx_HAL_Driver/Src/stm32c0xx_hal_dma.c **** 
 934              		.loc 1 491 5 view .LVU287
 491:Drivers/STM32C0xx_HAL_Driver/Src/stm32c0xx_hal_dma.c **** 
 935              		.loc 1 491 9 is_stmt 0 view .LVU288
 936 0026 426C     		ldr	r2, [r0, #68]
 491:Drivers/STM32C0xx_HAL_Driver/Src/stm32c0xx_hal_dma.c **** 
 937              		.loc 1 491 30 view .LVU289
 938 0028 1368     		ldr	r3, [r2]
 939 002a 1349     		ldr	r1, .L52
 940 002c 0B40     		ands	r3, r1
 941 002e 1360     		str	r3, [r2]
 494:Drivers/STM32C0xx_HAL_Driver/Src/stm32c0xx_hal_dma.c **** 
 942              		.loc 1 494 5 is_stmt 1 view .LVU290
ARM GAS  /var/folders/nl/kwfz41d55ync1k9vlz8wmkc80000gn/T//cc9IAU1x.s 			page 40


 943 0030 0168     		ldr	r1, [r0]
 944 0032 0A68     		ldr	r2, [r1]
 945 0034 0123     		movs	r3, #1
 946 0036 9A43     		bics	r2, r3
 947 0038 0A60     		str	r2, [r1]
 497:Drivers/STM32C0xx_HAL_Driver/Src/stm32c0xx_hal_dma.c **** 
 948              		.loc 1 497 5 view .LVU291
 949 003a 104C     		ldr	r4, .L52+4
 950 003c 6268     		ldr	r2, [r4, #4]
 951 003e 1C21     		movs	r1, #28
 952 0040 056C     		ldr	r5, [r0, #64]
 953 0042 2940     		ands	r1, r5
 954 0044 8B40     		lsls	r3, r3, r1
 955 0046 1343     		orrs	r3, r2
 956 0048 6360     		str	r3, [r4, #4]
 500:Drivers/STM32C0xx_HAL_Driver/Src/stm32c0xx_hal_dma.c **** 
 957              		.loc 1 500 5 view .LVU292
 500:Drivers/STM32C0xx_HAL_Driver/Src/stm32c0xx_hal_dma.c **** 
 958              		.loc 1 500 9 is_stmt 0 view .LVU293
 959 004a 836C     		ldr	r3, [r0, #72]
 500:Drivers/STM32C0xx_HAL_Driver/Src/stm32c0xx_hal_dma.c **** 
 960              		.loc 1 500 36 view .LVU294
 961 004c C26C     		ldr	r2, [r0, #76]
 962 004e 5A60     		str	r2, [r3, #4]
 502:Drivers/STM32C0xx_HAL_Driver/Src/stm32c0xx_hal_dma.c ****     {
 963              		.loc 1 502 5 is_stmt 1 view .LVU295
 502:Drivers/STM32C0xx_HAL_Driver/Src/stm32c0xx_hal_dma.c ****     {
 964              		.loc 1 502 13 is_stmt 0 view .LVU296
 965 0050 036D     		ldr	r3, [r0, #80]
 502:Drivers/STM32C0xx_HAL_Driver/Src/stm32c0xx_hal_dma.c ****     {
 966              		.loc 1 502 8 view .LVU297
 967 0052 002B     		cmp	r3, #0
 968 0054 06D0     		beq	.L50
 506:Drivers/STM32C0xx_HAL_Driver/Src/stm32c0xx_hal_dma.c **** 
 969              		.loc 1 506 7 is_stmt 1 view .LVU298
 506:Drivers/STM32C0xx_HAL_Driver/Src/stm32c0xx_hal_dma.c **** 
 970              		.loc 1 506 36 is_stmt 0 view .LVU299
 971 0056 1A68     		ldr	r2, [r3]
 972 0058 0749     		ldr	r1, .L52
 973 005a 0A40     		ands	r2, r1
 974 005c 1A60     		str	r2, [r3]
 509:Drivers/STM32C0xx_HAL_Driver/Src/stm32c0xx_hal_dma.c ****     }
 975              		.loc 1 509 7 is_stmt 1 view .LVU300
 509:Drivers/STM32C0xx_HAL_Driver/Src/stm32c0xx_hal_dma.c ****     }
 976              		.loc 1 509 11 is_stmt 0 view .LVU301
 977 005e 436D     		ldr	r3, [r0, #84]
 509:Drivers/STM32C0xx_HAL_Driver/Src/stm32c0xx_hal_dma.c ****     }
 978              		.loc 1 509 43 view .LVU302
 979 0060 826D     		ldr	r2, [r0, #88]
 980 0062 5A60     		str	r2, [r3, #4]
 981              	.L50:
 513:Drivers/STM32C0xx_HAL_Driver/Src/stm32c0xx_hal_dma.c **** 
 982              		.loc 1 513 5 is_stmt 1 view .LVU303
 513:Drivers/STM32C0xx_HAL_Driver/Src/stm32c0xx_hal_dma.c **** 
 983              		.loc 1 513 17 is_stmt 0 view .LVU304
 984 0064 2523     		movs	r3, #37
 985 0066 0122     		movs	r2, #1
ARM GAS  /var/folders/nl/kwfz41d55ync1k9vlz8wmkc80000gn/T//cc9IAU1x.s 			page 41


 986 0068 C254     		strb	r2, [r0, r3]
 516:Drivers/STM32C0xx_HAL_Driver/Src/stm32c0xx_hal_dma.c ****   }
 987              		.loc 1 516 5 is_stmt 1 view .LVU305
 516:Drivers/STM32C0xx_HAL_Driver/Src/stm32c0xx_hal_dma.c ****   }
 988              		.loc 1 516 5 view .LVU306
 989 006a 013B     		subs	r3, r3, #1
 990 006c 0022     		movs	r2, #0
 991 006e C254     		strb	r2, [r0, r3]
 516:Drivers/STM32C0xx_HAL_Driver/Src/stm32c0xx_hal_dma.c ****   }
 992              		.loc 1 516 5 view .LVU307
 519:Drivers/STM32C0xx_HAL_Driver/Src/stm32c0xx_hal_dma.c **** }
 993              		.loc 1 519 3 view .LVU308
 519:Drivers/STM32C0xx_HAL_Driver/Src/stm32c0xx_hal_dma.c **** }
 994              		.loc 1 519 10 is_stmt 0 view .LVU309
 995 0070 0020     		movs	r0, #0
 996              	.LVL59:
 519:Drivers/STM32C0xx_HAL_Driver/Src/stm32c0xx_hal_dma.c **** }
 997              		.loc 1 519 10 view .LVU310
 998 0072 D2E7     		b	.L48
 999              	.LVL60:
 1000              	.L51:
 472:Drivers/STM32C0xx_HAL_Driver/Src/stm32c0xx_hal_dma.c ****   }
 1001              		.loc 1 472 12 view .LVU311
 1002 0074 0120     		movs	r0, #1
 1003              	.LVL61:
 472:Drivers/STM32C0xx_HAL_Driver/Src/stm32c0xx_hal_dma.c ****   }
 1004              		.loc 1 472 12 view .LVU312
 1005 0076 D0E7     		b	.L48
 1006              	.L53:
 1007              		.align	2
 1008              	.L52:
 1009 0078 FFFEFFFF 		.word	-257
 1010 007c 00000240 		.word	1073872896
 1011              		.cfi_endproc
 1012              	.LFE218:
 1014              		.section	.text.HAL_DMA_Abort_IT,"ax",%progbits
 1015              		.align	1
 1016              		.global	HAL_DMA_Abort_IT
 1017              		.syntax unified
 1018              		.code	16
 1019              		.thumb_func
 1021              	HAL_DMA_Abort_IT:
 1022              	.LVL62:
 1023              	.LFB219:
 529:Drivers/STM32C0xx_HAL_Driver/Src/stm32c0xx_hal_dma.c ****   HAL_StatusTypeDef status = HAL_OK;
 1024              		.loc 1 529 1 is_stmt 1 view -0
 1025              		.cfi_startproc
 1026              		@ args = 0, pretend = 0, frame = 0
 1027              		@ frame_needed = 0, uses_anonymous_args = 0
 529:Drivers/STM32C0xx_HAL_Driver/Src/stm32c0xx_hal_dma.c ****   HAL_StatusTypeDef status = HAL_OK;
 1028              		.loc 1 529 1 is_stmt 0 view .LVU314
 1029 0000 70B5     		push	{r4, r5, r6, lr}
 1030              	.LCFI7:
 1031              		.cfi_def_cfa_offset 16
 1032              		.cfi_offset 4, -16
 1033              		.cfi_offset 5, -12
 1034              		.cfi_offset 6, -8
ARM GAS  /var/folders/nl/kwfz41d55ync1k9vlz8wmkc80000gn/T//cc9IAU1x.s 			page 42


 1035              		.cfi_offset 14, -4
 530:Drivers/STM32C0xx_HAL_Driver/Src/stm32c0xx_hal_dma.c **** 
 1036              		.loc 1 530 3 is_stmt 1 view .LVU315
 1037              	.LVL63:
 533:Drivers/STM32C0xx_HAL_Driver/Src/stm32c0xx_hal_dma.c ****   __HAL_LOCK(hdma);
 1038              		.loc 1 533 3 view .LVU316
 533:Drivers/STM32C0xx_HAL_Driver/Src/stm32c0xx_hal_dma.c ****   __HAL_LOCK(hdma);
 1039              		.loc 1 533 3 view .LVU317
 1040 0002 2423     		movs	r3, #36
 1041 0004 0022     		movs	r2, #0
 1042 0006 C254     		strb	r2, [r0, r3]
 533:Drivers/STM32C0xx_HAL_Driver/Src/stm32c0xx_hal_dma.c ****   __HAL_LOCK(hdma);
 1043              		.loc 1 533 3 view .LVU318
 534:Drivers/STM32C0xx_HAL_Driver/Src/stm32c0xx_hal_dma.c **** 
 1044              		.loc 1 534 3 view .LVU319
 534:Drivers/STM32C0xx_HAL_Driver/Src/stm32c0xx_hal_dma.c **** 
 1045              		.loc 1 534 3 view .LVU320
 534:Drivers/STM32C0xx_HAL_Driver/Src/stm32c0xx_hal_dma.c **** 
 1046              		.loc 1 534 3 view .LVU321
 1047 0008 0132     		adds	r2, r2, #1
 1048 000a C254     		strb	r2, [r0, r3]
 534:Drivers/STM32C0xx_HAL_Driver/Src/stm32c0xx_hal_dma.c **** 
 1049              		.loc 1 534 3 view .LVU322
 536:Drivers/STM32C0xx_HAL_Driver/Src/stm32c0xx_hal_dma.c ****   {
 1050              		.loc 1 536 3 view .LVU323
 536:Drivers/STM32C0xx_HAL_Driver/Src/stm32c0xx_hal_dma.c ****   {
 1051              		.loc 1 536 33 is_stmt 0 view .LVU324
 1052 000c 0133     		adds	r3, r3, #1
 1053 000e C35C     		ldrb	r3, [r0, r3]
 536:Drivers/STM32C0xx_HAL_Driver/Src/stm32c0xx_hal_dma.c ****   {
 1054              		.loc 1 536 6 view .LVU325
 1055 0010 022B     		cmp	r3, #2
 1056 0012 03D0     		beq	.L55
 539:Drivers/STM32C0xx_HAL_Driver/Src/stm32c0xx_hal_dma.c **** 
 1057              		.loc 1 539 5 is_stmt 1 view .LVU326
 539:Drivers/STM32C0xx_HAL_Driver/Src/stm32c0xx_hal_dma.c **** 
 1058              		.loc 1 539 21 is_stmt 0 view .LVU327
 1059 0014 0423     		movs	r3, #4
 1060 0016 C363     		str	r3, [r0, #60]
 541:Drivers/STM32C0xx_HAL_Driver/Src/stm32c0xx_hal_dma.c ****   }
 1061              		.loc 1 541 5 is_stmt 1 view .LVU328
 1062              	.LVL64:
 541:Drivers/STM32C0xx_HAL_Driver/Src/stm32c0xx_hal_dma.c ****   }
 1063              		.loc 1 541 12 is_stmt 0 view .LVU329
 1064 0018 0120     		movs	r0, #1
 1065              	.LVL65:
 1066              	.L56:
 582:Drivers/STM32C0xx_HAL_Driver/Src/stm32c0xx_hal_dma.c **** }
 1067              		.loc 1 582 3 is_stmt 1 view .LVU330
 583:Drivers/STM32C0xx_HAL_Driver/Src/stm32c0xx_hal_dma.c **** 
 1068              		.loc 1 583 1 is_stmt 0 view .LVU331
 1069              		@ sp needed
 1070 001a 70BD     		pop	{r4, r5, r6, pc}
 1071              	.LVL66:
 1072              	.L55:
 546:Drivers/STM32C0xx_HAL_Driver/Src/stm32c0xx_hal_dma.c **** 
 1073              		.loc 1 546 5 is_stmt 1 view .LVU332
ARM GAS  /var/folders/nl/kwfz41d55ync1k9vlz8wmkc80000gn/T//cc9IAU1x.s 			page 43


 1074 001c 0268     		ldr	r2, [r0]
 1075 001e 1368     		ldr	r3, [r2]
 1076 0020 0E21     		movs	r1, #14
 1077 0022 8B43     		bics	r3, r1
 1078 0024 1360     		str	r3, [r2]
 549:Drivers/STM32C0xx_HAL_Driver/Src/stm32c0xx_hal_dma.c **** 
 1079              		.loc 1 549 5 view .LVU333
 1080 0026 0168     		ldr	r1, [r0]
 1081 0028 0A68     		ldr	r2, [r1]
 1082 002a 0123     		movs	r3, #1
 1083 002c 9A43     		bics	r2, r3
 1084 002e 0A60     		str	r2, [r1]
 552:Drivers/STM32C0xx_HAL_Driver/Src/stm32c0xx_hal_dma.c **** 
 1085              		.loc 1 552 5 view .LVU334
 552:Drivers/STM32C0xx_HAL_Driver/Src/stm32c0xx_hal_dma.c **** 
 1086              		.loc 1 552 9 is_stmt 0 view .LVU335
 1087 0030 416C     		ldr	r1, [r0, #68]
 552:Drivers/STM32C0xx_HAL_Driver/Src/stm32c0xx_hal_dma.c **** 
 1088              		.loc 1 552 30 view .LVU336
 1089 0032 0A68     		ldr	r2, [r1]
 1090 0034 124C     		ldr	r4, .L59
 1091 0036 2240     		ands	r2, r4
 1092 0038 0A60     		str	r2, [r1]
 555:Drivers/STM32C0xx_HAL_Driver/Src/stm32c0xx_hal_dma.c **** 
 1093              		.loc 1 555 5 is_stmt 1 view .LVU337
 1094 003a 124C     		ldr	r4, .L59+4
 1095 003c 6268     		ldr	r2, [r4, #4]
 1096 003e 1C21     		movs	r1, #28
 1097 0040 056C     		ldr	r5, [r0, #64]
 1098 0042 2940     		ands	r1, r5
 1099 0044 8B40     		lsls	r3, r3, r1
 1100 0046 1343     		orrs	r3, r2
 1101 0048 6360     		str	r3, [r4, #4]
 558:Drivers/STM32C0xx_HAL_Driver/Src/stm32c0xx_hal_dma.c **** 
 1102              		.loc 1 558 5 view .LVU338
 558:Drivers/STM32C0xx_HAL_Driver/Src/stm32c0xx_hal_dma.c **** 
 1103              		.loc 1 558 9 is_stmt 0 view .LVU339
 1104 004a 836C     		ldr	r3, [r0, #72]
 558:Drivers/STM32C0xx_HAL_Driver/Src/stm32c0xx_hal_dma.c **** 
 1105              		.loc 1 558 36 view .LVU340
 1106 004c C26C     		ldr	r2, [r0, #76]
 1107 004e 5A60     		str	r2, [r3, #4]
 560:Drivers/STM32C0xx_HAL_Driver/Src/stm32c0xx_hal_dma.c ****     {
 1108              		.loc 1 560 5 is_stmt 1 view .LVU341
 560:Drivers/STM32C0xx_HAL_Driver/Src/stm32c0xx_hal_dma.c ****     {
 1109              		.loc 1 560 13 is_stmt 0 view .LVU342
 1110 0050 036D     		ldr	r3, [r0, #80]
 560:Drivers/STM32C0xx_HAL_Driver/Src/stm32c0xx_hal_dma.c ****     {
 1111              		.loc 1 560 8 view .LVU343
 1112 0052 002B     		cmp	r3, #0
 1113 0054 06D0     		beq	.L57
 564:Drivers/STM32C0xx_HAL_Driver/Src/stm32c0xx_hal_dma.c **** 
 1114              		.loc 1 564 7 is_stmt 1 view .LVU344
 564:Drivers/STM32C0xx_HAL_Driver/Src/stm32c0xx_hal_dma.c **** 
 1115              		.loc 1 564 36 is_stmt 0 view .LVU345
 1116 0056 1A68     		ldr	r2, [r3]
 1117 0058 0949     		ldr	r1, .L59
ARM GAS  /var/folders/nl/kwfz41d55ync1k9vlz8wmkc80000gn/T//cc9IAU1x.s 			page 44


 1118 005a 0A40     		ands	r2, r1
 1119 005c 1A60     		str	r2, [r3]
 567:Drivers/STM32C0xx_HAL_Driver/Src/stm32c0xx_hal_dma.c ****     }
 1120              		.loc 1 567 7 is_stmt 1 view .LVU346
 567:Drivers/STM32C0xx_HAL_Driver/Src/stm32c0xx_hal_dma.c ****     }
 1121              		.loc 1 567 11 is_stmt 0 view .LVU347
 1122 005e 436D     		ldr	r3, [r0, #84]
 567:Drivers/STM32C0xx_HAL_Driver/Src/stm32c0xx_hal_dma.c ****     }
 1123              		.loc 1 567 43 view .LVU348
 1124 0060 826D     		ldr	r2, [r0, #88]
 1125 0062 5A60     		str	r2, [r3, #4]
 1126              	.L57:
 571:Drivers/STM32C0xx_HAL_Driver/Src/stm32c0xx_hal_dma.c **** 
 1127              		.loc 1 571 5 is_stmt 1 view .LVU349
 571:Drivers/STM32C0xx_HAL_Driver/Src/stm32c0xx_hal_dma.c **** 
 1128              		.loc 1 571 17 is_stmt 0 view .LVU350
 1129 0064 2523     		movs	r3, #37
 1130 0066 0122     		movs	r2, #1
 1131 0068 C254     		strb	r2, [r0, r3]
 574:Drivers/STM32C0xx_HAL_Driver/Src/stm32c0xx_hal_dma.c **** 
 1132              		.loc 1 574 5 is_stmt 1 view .LVU351
 574:Drivers/STM32C0xx_HAL_Driver/Src/stm32c0xx_hal_dma.c **** 
 1133              		.loc 1 574 5 view .LVU352
 1134 006a 013B     		subs	r3, r3, #1
 1135 006c 0022     		movs	r2, #0
 1136 006e C254     		strb	r2, [r0, r3]
 574:Drivers/STM32C0xx_HAL_Driver/Src/stm32c0xx_hal_dma.c **** 
 1137              		.loc 1 574 5 view .LVU353
 577:Drivers/STM32C0xx_HAL_Driver/Src/stm32c0xx_hal_dma.c ****     {
 1138              		.loc 1 577 5 view .LVU354
 577:Drivers/STM32C0xx_HAL_Driver/Src/stm32c0xx_hal_dma.c ****     {
 1139              		.loc 1 577 13 is_stmt 0 view .LVU355
 1140 0070 836B     		ldr	r3, [r0, #56]
 577:Drivers/STM32C0xx_HAL_Driver/Src/stm32c0xx_hal_dma.c ****     {
 1141              		.loc 1 577 8 view .LVU356
 1142 0072 002B     		cmp	r3, #0
 1143 0074 02D0     		beq	.L58
 579:Drivers/STM32C0xx_HAL_Driver/Src/stm32c0xx_hal_dma.c ****     }
 1144              		.loc 1 579 7 is_stmt 1 view .LVU357
 1145 0076 9847     		blx	r3
 1146              	.LVL67:
 530:Drivers/STM32C0xx_HAL_Driver/Src/stm32c0xx_hal_dma.c **** 
 1147              		.loc 1 530 21 is_stmt 0 view .LVU358
 1148 0078 0020     		movs	r0, #0
 1149 007a CEE7     		b	.L56
 1150              	.LVL68:
 1151              	.L58:
 530:Drivers/STM32C0xx_HAL_Driver/Src/stm32c0xx_hal_dma.c **** 
 1152              		.loc 1 530 21 view .LVU359
 1153 007c 0020     		movs	r0, #0
 1154              	.LVL69:
 530:Drivers/STM32C0xx_HAL_Driver/Src/stm32c0xx_hal_dma.c **** 
 1155              		.loc 1 530 21 view .LVU360
 1156 007e CCE7     		b	.L56
 1157              	.L60:
 1158              		.align	2
 1159              	.L59:
ARM GAS  /var/folders/nl/kwfz41d55ync1k9vlz8wmkc80000gn/T//cc9IAU1x.s 			page 45


 1160 0080 FFFEFFFF 		.word	-257
 1161 0084 00000240 		.word	1073872896
 1162              		.cfi_endproc
 1163              	.LFE219:
 1165              		.section	.text.HAL_DMA_PollForTransfer,"ax",%progbits
 1166              		.align	1
 1167              		.global	HAL_DMA_PollForTransfer
 1168              		.syntax unified
 1169              		.code	16
 1170              		.thumb_func
 1172              	HAL_DMA_PollForTransfer:
 1173              	.LVL70:
 1174              	.LFB220:
 595:Drivers/STM32C0xx_HAL_Driver/Src/stm32c0xx_hal_dma.c ****   uint32_t temp;
 1175              		.loc 1 595 1 is_stmt 1 view -0
 1176              		.cfi_startproc
 1177              		@ args = 0, pretend = 0, frame = 8
 1178              		@ frame_needed = 0, uses_anonymous_args = 0
 595:Drivers/STM32C0xx_HAL_Driver/Src/stm32c0xx_hal_dma.c ****   uint32_t temp;
 1179              		.loc 1 595 1 is_stmt 0 view .LVU362
 1180 0000 F0B5     		push	{r4, r5, r6, r7, lr}
 1181              	.LCFI8:
 1182              		.cfi_def_cfa_offset 20
 1183              		.cfi_offset 4, -20
 1184              		.cfi_offset 5, -16
 1185              		.cfi_offset 6, -12
 1186              		.cfi_offset 7, -8
 1187              		.cfi_offset 14, -4
 1188 0002 83B0     		sub	sp, sp, #12
 1189              	.LCFI9:
 1190              		.cfi_def_cfa_offset 32
 1191 0004 0600     		movs	r6, r0
 1192 0006 0C00     		movs	r4, r1
 1193 0008 1700     		movs	r7, r2
 596:Drivers/STM32C0xx_HAL_Driver/Src/stm32c0xx_hal_dma.c ****   uint32_t tickstart;
 1194              		.loc 1 596 3 is_stmt 1 view .LVU363
 597:Drivers/STM32C0xx_HAL_Driver/Src/stm32c0xx_hal_dma.c **** 
 1195              		.loc 1 597 3 view .LVU364
 600:Drivers/STM32C0xx_HAL_Driver/Src/stm32c0xx_hal_dma.c **** 
 1196              		.loc 1 600 3 view .LVU365
 600:Drivers/STM32C0xx_HAL_Driver/Src/stm32c0xx_hal_dma.c **** 
 1197              		.loc 1 600 3 view .LVU366
 1198 000a 2423     		movs	r3, #36
 1199 000c 0022     		movs	r2, #0
 1200              	.LVL71:
 600:Drivers/STM32C0xx_HAL_Driver/Src/stm32c0xx_hal_dma.c **** 
 1201              		.loc 1 600 3 is_stmt 0 view .LVU367
 1202 000e C254     		strb	r2, [r0, r3]
 600:Drivers/STM32C0xx_HAL_Driver/Src/stm32c0xx_hal_dma.c **** 
 1203              		.loc 1 600 3 is_stmt 1 view .LVU368
 602:Drivers/STM32C0xx_HAL_Driver/Src/stm32c0xx_hal_dma.c ****   {
 1204              		.loc 1 602 3 view .LVU369
 602:Drivers/STM32C0xx_HAL_Driver/Src/stm32c0xx_hal_dma.c ****   {
 1205              		.loc 1 602 33 is_stmt 0 view .LVU370
 1206 0010 0133     		adds	r3, r3, #1
 1207 0012 C35C     		ldrb	r3, [r0, r3]
 602:Drivers/STM32C0xx_HAL_Driver/Src/stm32c0xx_hal_dma.c ****   {
ARM GAS  /var/folders/nl/kwfz41d55ync1k9vlz8wmkc80000gn/T//cc9IAU1x.s 			page 46


 1208              		.loc 1 602 6 view .LVU371
 1209 0014 022B     		cmp	r3, #2
 1210 0016 04D0     		beq	.L62
 605:Drivers/STM32C0xx_HAL_Driver/Src/stm32c0xx_hal_dma.c ****     __HAL_UNLOCK(hdma);
 1211              		.loc 1 605 5 is_stmt 1 view .LVU372
 605:Drivers/STM32C0xx_HAL_Driver/Src/stm32c0xx_hal_dma.c ****     __HAL_UNLOCK(hdma);
 1212              		.loc 1 605 21 is_stmt 0 view .LVU373
 1213 0018 0423     		movs	r3, #4
 1214 001a C363     		str	r3, [r0, #60]
 606:Drivers/STM32C0xx_HAL_Driver/Src/stm32c0xx_hal_dma.c ****     return HAL_ERROR;
 1215              		.loc 1 606 5 is_stmt 1 view .LVU374
 606:Drivers/STM32C0xx_HAL_Driver/Src/stm32c0xx_hal_dma.c ****     return HAL_ERROR;
 1216              		.loc 1 606 5 view .LVU375
 606:Drivers/STM32C0xx_HAL_Driver/Src/stm32c0xx_hal_dma.c ****     return HAL_ERROR;
 1217              		.loc 1 606 5 view .LVU376
 607:Drivers/STM32C0xx_HAL_Driver/Src/stm32c0xx_hal_dma.c ****   }
 1218              		.loc 1 607 5 view .LVU377
 607:Drivers/STM32C0xx_HAL_Driver/Src/stm32c0xx_hal_dma.c ****   }
 1219              		.loc 1 607 12 is_stmt 0 view .LVU378
 1220 001c 0120     		movs	r0, #1
 1221              	.LVL72:
 1222              	.L63:
 717:Drivers/STM32C0xx_HAL_Driver/Src/stm32c0xx_hal_dma.c **** 
 1223              		.loc 1 717 1 view .LVU379
 1224 001e 03B0     		add	sp, sp, #12
 1225              		@ sp needed
 1226              	.LVL73:
 1227              	.LVL74:
 717:Drivers/STM32C0xx_HAL_Driver/Src/stm32c0xx_hal_dma.c **** 
 1228              		.loc 1 717 1 view .LVU380
 1229 0020 F0BD     		pop	{r4, r5, r6, r7, pc}
 1230              	.LVL75:
 1231              	.L62:
 611:Drivers/STM32C0xx_HAL_Driver/Src/stm32c0xx_hal_dma.c ****   {
 1232              		.loc 1 611 3 is_stmt 1 view .LVU381
 611:Drivers/STM32C0xx_HAL_Driver/Src/stm32c0xx_hal_dma.c ****   {
 1233              		.loc 1 611 12 is_stmt 0 view .LVU382
 1234 0022 0368     		ldr	r3, [r0]
 611:Drivers/STM32C0xx_HAL_Driver/Src/stm32c0xx_hal_dma.c ****   {
 1235              		.loc 1 611 22 view .LVU383
 1236 0024 1B68     		ldr	r3, [r3]
 611:Drivers/STM32C0xx_HAL_Driver/Src/stm32c0xx_hal_dma.c ****   {
 1237              		.loc 1 611 6 view .LVU384
 1238 0026 9B06     		lsls	r3, r3, #26
 1239 0028 2AD4     		bmi	.L76
 618:Drivers/STM32C0xx_HAL_Driver/Src/stm32c0xx_hal_dma.c ****   {
 1240              		.loc 1 618 3 is_stmt 1 view .LVU385
 618:Drivers/STM32C0xx_HAL_Driver/Src/stm32c0xx_hal_dma.c ****   {
 1241              		.loc 1 618 6 is_stmt 0 view .LVU386
 1242 002a 0029     		cmp	r1, #0
 1243 002c 2DD1     		bne	.L65
 621:Drivers/STM32C0xx_HAL_Driver/Src/stm32c0xx_hal_dma.c ****   }
 1244              		.loc 1 621 5 is_stmt 1 view .LVU387
 621:Drivers/STM32C0xx_HAL_Driver/Src/stm32c0xx_hal_dma.c ****   }
 1245              		.loc 1 621 48 is_stmt 0 view .LVU388
 1246 002e 1C23     		movs	r3, #28
 1247 0030 026C     		ldr	r2, [r0, #64]
ARM GAS  /var/folders/nl/kwfz41d55ync1k9vlz8wmkc80000gn/T//cc9IAU1x.s 			page 47


 1248 0032 1340     		ands	r3, r2
 621:Drivers/STM32C0xx_HAL_Driver/Src/stm32c0xx_hal_dma.c ****   }
 1249              		.loc 1 621 10 view .LVU389
 1250 0034 0225     		movs	r5, #2
 1251 0036 9D40     		lsls	r5, r5, r3
 1252              	.LVL76:
 1253              	.L66:
 630:Drivers/STM32C0xx_HAL_Driver/Src/stm32c0xx_hal_dma.c **** 
 1254              		.loc 1 630 3 is_stmt 1 view .LVU390
 630:Drivers/STM32C0xx_HAL_Driver/Src/stm32c0xx_hal_dma.c **** 
 1255              		.loc 1 630 15 is_stmt 0 view .LVU391
 1256 0038 FFF7FEFF 		bl	HAL_GetTick
 1257              	.LVL77:
 630:Drivers/STM32C0xx_HAL_Driver/Src/stm32c0xx_hal_dma.c **** 
 1258              		.loc 1 630 15 view .LVU392
 1259 003c 0190     		str	r0, [sp, #4]
 1260              	.LVL78:
 632:Drivers/STM32C0xx_HAL_Driver/Src/stm32c0xx_hal_dma.c ****   {
 1261              		.loc 1 632 3 is_stmt 1 view .LVU393
 1262              	.L69:
 632:Drivers/STM32C0xx_HAL_Driver/Src/stm32c0xx_hal_dma.c ****   {
 1263              		.loc 1 632 9 view .LVU394
 632:Drivers/STM32C0xx_HAL_Driver/Src/stm32c0xx_hal_dma.c ****   {
 1264              		.loc 1 632 16 is_stmt 0 view .LVU395
 1265 003e 3C4B     		ldr	r3, .L79
 1266 0040 1B68     		ldr	r3, [r3]
 632:Drivers/STM32C0xx_HAL_Driver/Src/stm32c0xx_hal_dma.c ****   {
 1267              		.loc 1 632 9 view .LVU396
 1268 0042 1D42     		tst	r5, r3
 1269 0044 37D1     		bne	.L77
 634:Drivers/STM32C0xx_HAL_Driver/Src/stm32c0xx_hal_dma.c ****     {
 1270              		.loc 1 634 5 is_stmt 1 view .LVU397
 634:Drivers/STM32C0xx_HAL_Driver/Src/stm32c0xx_hal_dma.c ****     {
 1271              		.loc 1 634 15 is_stmt 0 view .LVU398
 1272 0046 3A4B     		ldr	r3, .L79
 1273 0048 1A68     		ldr	r2, [r3]
 1274 004a 1C23     		movs	r3, #28
 1275 004c 316C     		ldr	r1, [r6, #64]
 1276 004e 0B40     		ands	r3, r1
 1277 0050 0821     		movs	r1, #8
 1278 0052 9940     		lsls	r1, r1, r3
 634:Drivers/STM32C0xx_HAL_Driver/Src/stm32c0xx_hal_dma.c ****     {
 1279              		.loc 1 634 8 view .LVU399
 1280 0054 1142     		tst	r1, r2
 1281 0056 1ED1     		bne	.L78
 653:Drivers/STM32C0xx_HAL_Driver/Src/stm32c0xx_hal_dma.c ****     {
 1282              		.loc 1 653 5 is_stmt 1 view .LVU400
 653:Drivers/STM32C0xx_HAL_Driver/Src/stm32c0xx_hal_dma.c ****     {
 1283              		.loc 1 653 8 is_stmt 0 view .LVU401
 1284 0058 7B1C     		adds	r3, r7, #1
 1285 005a F0D0     		beq	.L69
 655:Drivers/STM32C0xx_HAL_Driver/Src/stm32c0xx_hal_dma.c ****       {
 1286              		.loc 1 655 7 is_stmt 1 view .LVU402
 655:Drivers/STM32C0xx_HAL_Driver/Src/stm32c0xx_hal_dma.c ****       {
 1287              		.loc 1 655 13 is_stmt 0 view .LVU403
 1288 005c FFF7FEFF 		bl	HAL_GetTick
 1289              	.LVL79:
ARM GAS  /var/folders/nl/kwfz41d55ync1k9vlz8wmkc80000gn/T//cc9IAU1x.s 			page 48


 655:Drivers/STM32C0xx_HAL_Driver/Src/stm32c0xx_hal_dma.c ****       {
 1290              		.loc 1 655 27 view .LVU404
 1291 0060 019B     		ldr	r3, [sp, #4]
 1292 0062 C01A     		subs	r0, r0, r3
 655:Drivers/STM32C0xx_HAL_Driver/Src/stm32c0xx_hal_dma.c ****       {
 1293              		.loc 1 655 10 view .LVU405
 1294 0064 B842     		cmp	r0, r7
 1295 0066 01D8     		bhi	.L70
 655:Drivers/STM32C0xx_HAL_Driver/Src/stm32c0xx_hal_dma.c ****       {
 1296              		.loc 1 655 51 discriminator 1 view .LVU406
 1297 0068 002F     		cmp	r7, #0
 1298 006a E8D1     		bne	.L69
 1299              	.L70:
 658:Drivers/STM32C0xx_HAL_Driver/Src/stm32c0xx_hal_dma.c **** 
 1300              		.loc 1 658 9 is_stmt 1 view .LVU407
 658:Drivers/STM32C0xx_HAL_Driver/Src/stm32c0xx_hal_dma.c **** 
 1301              		.loc 1 658 25 is_stmt 0 view .LVU408
 1302 006c 2023     		movs	r3, #32
 1303 006e F363     		str	r3, [r6, #60]
 661:Drivers/STM32C0xx_HAL_Driver/Src/stm32c0xx_hal_dma.c **** 
 1304              		.loc 1 661 9 is_stmt 1 view .LVU409
 661:Drivers/STM32C0xx_HAL_Driver/Src/stm32c0xx_hal_dma.c **** 
 1305              		.loc 1 661 21 is_stmt 0 view .LVU410
 1306 0070 0533     		adds	r3, r3, #5
 1307 0072 0122     		movs	r2, #1
 1308 0074 F254     		strb	r2, [r6, r3]
 664:Drivers/STM32C0xx_HAL_Driver/Src/stm32c0xx_hal_dma.c **** 
 1309              		.loc 1 664 9 is_stmt 1 view .LVU411
 664:Drivers/STM32C0xx_HAL_Driver/Src/stm32c0xx_hal_dma.c **** 
 1310              		.loc 1 664 9 view .LVU412
 1311 0076 013B     		subs	r3, r3, #1
 1312 0078 0022     		movs	r2, #0
 1313 007a F254     		strb	r2, [r6, r3]
 664:Drivers/STM32C0xx_HAL_Driver/Src/stm32c0xx_hal_dma.c **** 
 1314              		.loc 1 664 9 view .LVU413
 666:Drivers/STM32C0xx_HAL_Driver/Src/stm32c0xx_hal_dma.c ****       }
 1315              		.loc 1 666 9 view .LVU414
 666:Drivers/STM32C0xx_HAL_Driver/Src/stm32c0xx_hal_dma.c ****       }
 1316              		.loc 1 666 16 is_stmt 0 view .LVU415
 1317 007c 0120     		movs	r0, #1
 1318 007e CEE7     		b	.L63
 1319              	.LVL80:
 1320              	.L76:
 613:Drivers/STM32C0xx_HAL_Driver/Src/stm32c0xx_hal_dma.c ****     return HAL_ERROR;
 1321              		.loc 1 613 5 is_stmt 1 view .LVU416
 613:Drivers/STM32C0xx_HAL_Driver/Src/stm32c0xx_hal_dma.c ****     return HAL_ERROR;
 1322              		.loc 1 613 21 is_stmt 0 view .LVU417
 1323 0080 8023     		movs	r3, #128
 1324 0082 5B00     		lsls	r3, r3, #1
 1325 0084 C363     		str	r3, [r0, #60]
 614:Drivers/STM32C0xx_HAL_Driver/Src/stm32c0xx_hal_dma.c ****   }
 1326              		.loc 1 614 5 is_stmt 1 view .LVU418
 614:Drivers/STM32C0xx_HAL_Driver/Src/stm32c0xx_hal_dma.c ****   }
 1327              		.loc 1 614 12 is_stmt 0 view .LVU419
 1328 0086 0120     		movs	r0, #1
 1329              	.LVL81:
 614:Drivers/STM32C0xx_HAL_Driver/Src/stm32c0xx_hal_dma.c ****   }
ARM GAS  /var/folders/nl/kwfz41d55ync1k9vlz8wmkc80000gn/T//cc9IAU1x.s 			page 49


 1330              		.loc 1 614 12 view .LVU420
 1331 0088 C9E7     		b	.L63
 1332              	.LVL82:
 1333              	.L65:
 626:Drivers/STM32C0xx_HAL_Driver/Src/stm32c0xx_hal_dma.c ****   }
 1334              		.loc 1 626 5 is_stmt 1 view .LVU421
 626:Drivers/STM32C0xx_HAL_Driver/Src/stm32c0xx_hal_dma.c ****   }
 1335              		.loc 1 626 49 is_stmt 0 view .LVU422
 1336 008a 1C23     		movs	r3, #28
 1337 008c 026C     		ldr	r2, [r0, #64]
 1338 008e 1340     		ands	r3, r2
 626:Drivers/STM32C0xx_HAL_Driver/Src/stm32c0xx_hal_dma.c ****   }
 1339              		.loc 1 626 10 view .LVU423
 1340 0090 0425     		movs	r5, #4
 1341 0092 9D40     		lsls	r5, r5, r3
 1342              	.LVL83:
 626:Drivers/STM32C0xx_HAL_Driver/Src/stm32c0xx_hal_dma.c ****   }
 1343              		.loc 1 626 10 view .LVU424
 1344 0094 D0E7     		b	.L66
 1345              	.LVL84:
 1346              	.L78:
 639:Drivers/STM32C0xx_HAL_Driver/Src/stm32c0xx_hal_dma.c **** 
 1347              		.loc 1 639 7 is_stmt 1 view .LVU425
 1348 0096 2648     		ldr	r0, .L79
 1349 0098 4168     		ldr	r1, [r0, #4]
 1350 009a 0122     		movs	r2, #1
 1351 009c 1400     		movs	r4, r2
 1352 009e 9C40     		lsls	r4, r4, r3
 1353 00a0 2300     		movs	r3, r4
 1354 00a2 0B43     		orrs	r3, r1
 1355 00a4 4360     		str	r3, [r0, #4]
 1356              	.LVL85:
 642:Drivers/STM32C0xx_HAL_Driver/Src/stm32c0xx_hal_dma.c **** 
 1357              		.loc 1 642 7 view .LVU426
 642:Drivers/STM32C0xx_HAL_Driver/Src/stm32c0xx_hal_dma.c **** 
 1358              		.loc 1 642 23 is_stmt 0 view .LVU427
 1359 00a6 F263     		str	r2, [r6, #60]
 645:Drivers/STM32C0xx_HAL_Driver/Src/stm32c0xx_hal_dma.c **** 
 1360              		.loc 1 645 7 is_stmt 1 view .LVU428
 645:Drivers/STM32C0xx_HAL_Driver/Src/stm32c0xx_hal_dma.c **** 
 1361              		.loc 1 645 19 is_stmt 0 view .LVU429
 1362 00a8 2523     		movs	r3, #37
 1363 00aa F254     		strb	r2, [r6, r3]
 648:Drivers/STM32C0xx_HAL_Driver/Src/stm32c0xx_hal_dma.c **** 
 1364              		.loc 1 648 7 is_stmt 1 view .LVU430
 648:Drivers/STM32C0xx_HAL_Driver/Src/stm32c0xx_hal_dma.c **** 
 1365              		.loc 1 648 7 view .LVU431
 1366 00ac 013B     		subs	r3, r3, #1
 1367 00ae 0022     		movs	r2, #0
 1368 00b0 F254     		strb	r2, [r6, r3]
 648:Drivers/STM32C0xx_HAL_Driver/Src/stm32c0xx_hal_dma.c **** 
 1369              		.loc 1 648 7 view .LVU432
 650:Drivers/STM32C0xx_HAL_Driver/Src/stm32c0xx_hal_dma.c ****     }
 1370              		.loc 1 650 7 view .LVU433
 650:Drivers/STM32C0xx_HAL_Driver/Src/stm32c0xx_hal_dma.c ****     }
 1371              		.loc 1 650 14 is_stmt 0 view .LVU434
 1372 00b2 0120     		movs	r0, #1
ARM GAS  /var/folders/nl/kwfz41d55ync1k9vlz8wmkc80000gn/T//cc9IAU1x.s 			page 50


 1373 00b4 B3E7     		b	.L63
 1374              	.LVL86:
 1375              	.L77:
 672:Drivers/STM32C0xx_HAL_Driver/Src/stm32c0xx_hal_dma.c ****   {
 1376              		.loc 1 672 3 is_stmt 1 view .LVU435
 672:Drivers/STM32C0xx_HAL_Driver/Src/stm32c0xx_hal_dma.c ****   {
 1377              		.loc 1 672 11 is_stmt 0 view .LVU436
 1378 00b6 336D     		ldr	r3, [r6, #80]
 672:Drivers/STM32C0xx_HAL_Driver/Src/stm32c0xx_hal_dma.c ****   {
 1379              		.loc 1 672 6 view .LVU437
 1380 00b8 002B     		cmp	r3, #0
 1381 00ba 11D0     		beq	.L72
 675:Drivers/STM32C0xx_HAL_Driver/Src/stm32c0xx_hal_dma.c ****     {
 1382              		.loc 1 675 5 is_stmt 1 view .LVU438
 675:Drivers/STM32C0xx_HAL_Driver/Src/stm32c0xx_hal_dma.c ****     {
 1383              		.loc 1 675 14 is_stmt 0 view .LVU439
 1384 00bc 726D     		ldr	r2, [r6, #84]
 675:Drivers/STM32C0xx_HAL_Driver/Src/stm32c0xx_hal_dma.c ****     {
 1385              		.loc 1 675 38 view .LVU440
 1386 00be 1268     		ldr	r2, [r2]
 675:Drivers/STM32C0xx_HAL_Driver/Src/stm32c0xx_hal_dma.c ****     {
 1387              		.loc 1 675 8 view .LVU441
 1388 00c0 B16D     		ldr	r1, [r6, #88]
 1389 00c2 1142     		tst	r1, r2
 1390 00c4 0CD0     		beq	.L72
 678:Drivers/STM32C0xx_HAL_Driver/Src/stm32c0xx_hal_dma.c **** 
 1391              		.loc 1 678 7 is_stmt 1 view .LVU442
 678:Drivers/STM32C0xx_HAL_Driver/Src/stm32c0xx_hal_dma.c **** 
 1392              		.loc 1 678 36 is_stmt 0 view .LVU443
 1393 00c6 1968     		ldr	r1, [r3]
 1394 00c8 8022     		movs	r2, #128
 1395 00ca 5200     		lsls	r2, r2, #1
 1396 00cc 0A43     		orrs	r2, r1
 1397 00ce 1A60     		str	r2, [r3]
 681:Drivers/STM32C0xx_HAL_Driver/Src/stm32c0xx_hal_dma.c **** 
 1398              		.loc 1 681 7 is_stmt 1 view .LVU444
 681:Drivers/STM32C0xx_HAL_Driver/Src/stm32c0xx_hal_dma.c **** 
 1399              		.loc 1 681 11 is_stmt 0 view .LVU445
 1400 00d0 736D     		ldr	r3, [r6, #84]
 681:Drivers/STM32C0xx_HAL_Driver/Src/stm32c0xx_hal_dma.c **** 
 1401              		.loc 1 681 43 view .LVU446
 1402 00d2 B26D     		ldr	r2, [r6, #88]
 1403 00d4 5A60     		str	r2, [r3, #4]
 684:Drivers/STM32C0xx_HAL_Driver/Src/stm32c0xx_hal_dma.c ****     }
 1404              		.loc 1 684 7 is_stmt 1 view .LVU447
 684:Drivers/STM32C0xx_HAL_Driver/Src/stm32c0xx_hal_dma.c ****     }
 1405              		.loc 1 684 23 is_stmt 0 view .LVU448
 1406 00d6 F26B     		ldr	r2, [r6, #60]
 1407 00d8 8023     		movs	r3, #128
 1408 00da DB00     		lsls	r3, r3, #3
 1409 00dc 1343     		orrs	r3, r2
 1410 00de F363     		str	r3, [r6, #60]
 1411              	.L72:
 689:Drivers/STM32C0xx_HAL_Driver/Src/stm32c0xx_hal_dma.c ****   {
 1412              		.loc 1 689 3 is_stmt 1 view .LVU449
 689:Drivers/STM32C0xx_HAL_Driver/Src/stm32c0xx_hal_dma.c ****   {
 1413              		.loc 1 689 12 is_stmt 0 view .LVU450
ARM GAS  /var/folders/nl/kwfz41d55ync1k9vlz8wmkc80000gn/T//cc9IAU1x.s 			page 51


 1414 00e0 B36C     		ldr	r3, [r6, #72]
 689:Drivers/STM32C0xx_HAL_Driver/Src/stm32c0xx_hal_dma.c ****   {
 1415              		.loc 1 689 33 view .LVU451
 1416 00e2 1968     		ldr	r1, [r3]
 689:Drivers/STM32C0xx_HAL_Driver/Src/stm32c0xx_hal_dma.c ****   {
 1417              		.loc 1 689 45 view .LVU452
 1418 00e4 F26C     		ldr	r2, [r6, #76]
 689:Drivers/STM32C0xx_HAL_Driver/Src/stm32c0xx_hal_dma.c ****   {
 1419              		.loc 1 689 6 view .LVU453
 1420 00e6 0A42     		tst	r2, r1
 1421 00e8 05D0     		beq	.L73
 692:Drivers/STM32C0xx_HAL_Driver/Src/stm32c0xx_hal_dma.c **** 
 1422              		.loc 1 692 5 is_stmt 1 view .LVU454
 692:Drivers/STM32C0xx_HAL_Driver/Src/stm32c0xx_hal_dma.c **** 
 1423              		.loc 1 692 36 is_stmt 0 view .LVU455
 1424 00ea 5A60     		str	r2, [r3, #4]
 695:Drivers/STM32C0xx_HAL_Driver/Src/stm32c0xx_hal_dma.c ****   }
 1425              		.loc 1 695 5 is_stmt 1 view .LVU456
 695:Drivers/STM32C0xx_HAL_Driver/Src/stm32c0xx_hal_dma.c ****   }
 1426              		.loc 1 695 21 is_stmt 0 view .LVU457
 1427 00ec F26B     		ldr	r2, [r6, #60]
 1428 00ee 8023     		movs	r3, #128
 1429 00f0 9B00     		lsls	r3, r3, #2
 1430 00f2 1343     		orrs	r3, r2
 1431 00f4 F363     		str	r3, [r6, #60]
 1432              	.L73:
 698:Drivers/STM32C0xx_HAL_Driver/Src/stm32c0xx_hal_dma.c ****   {
 1433              		.loc 1 698 3 is_stmt 1 view .LVU458
 698:Drivers/STM32C0xx_HAL_Driver/Src/stm32c0xx_hal_dma.c ****   {
 1434              		.loc 1 698 6 is_stmt 0 view .LVU459
 1435 00f6 002C     		cmp	r4, #0
 1436 00f8 10D1     		bne	.L74
 701:Drivers/STM32C0xx_HAL_Driver/Src/stm32c0xx_hal_dma.c **** 
 1437              		.loc 1 701 5 is_stmt 1 view .LVU460
 1438 00fa 0D48     		ldr	r0, .L79
 1439 00fc 4368     		ldr	r3, [r0, #4]
 1440 00fe 1C21     		movs	r1, #28
 1441 0100 326C     		ldr	r2, [r6, #64]
 1442 0102 1140     		ands	r1, r2
 1443 0104 0222     		movs	r2, #2
 1444 0106 8A40     		lsls	r2, r2, r1
 1445 0108 1343     		orrs	r3, r2
 1446 010a 4360     		str	r3, [r0, #4]
 1447              	.LVL87:
 705:Drivers/STM32C0xx_HAL_Driver/Src/stm32c0xx_hal_dma.c ****   }
 1448              		.loc 1 705 5 view .LVU461
 705:Drivers/STM32C0xx_HAL_Driver/Src/stm32c0xx_hal_dma.c ****   }
 1449              		.loc 1 705 17 is_stmt 0 view .LVU462
 1450 010c 2523     		movs	r3, #37
 1451 010e 0122     		movs	r2, #1
 1452 0110 F254     		strb	r2, [r6, r3]
 1453              	.L75:
 714:Drivers/STM32C0xx_HAL_Driver/Src/stm32c0xx_hal_dma.c **** 
 1454              		.loc 1 714 3 is_stmt 1 view .LVU463
 714:Drivers/STM32C0xx_HAL_Driver/Src/stm32c0xx_hal_dma.c **** 
 1455              		.loc 1 714 3 view .LVU464
 1456 0112 2423     		movs	r3, #36
ARM GAS  /var/folders/nl/kwfz41d55ync1k9vlz8wmkc80000gn/T//cc9IAU1x.s 			page 52


 1457 0114 0022     		movs	r2, #0
 1458 0116 F254     		strb	r2, [r6, r3]
 714:Drivers/STM32C0xx_HAL_Driver/Src/stm32c0xx_hal_dma.c **** 
 1459              		.loc 1 714 3 view .LVU465
 716:Drivers/STM32C0xx_HAL_Driver/Src/stm32c0xx_hal_dma.c **** }
 1460              		.loc 1 716 3 view .LVU466
 716:Drivers/STM32C0xx_HAL_Driver/Src/stm32c0xx_hal_dma.c **** }
 1461              		.loc 1 716 10 is_stmt 0 view .LVU467
 1462 0118 0020     		movs	r0, #0
 1463 011a 80E7     		b	.L63
 1464              	.LVL88:
 1465              	.L74:
 710:Drivers/STM32C0xx_HAL_Driver/Src/stm32c0xx_hal_dma.c ****   }
 1466              		.loc 1 710 5 is_stmt 1 view .LVU468
 1467 011c 0448     		ldr	r0, .L79
 1468 011e 4368     		ldr	r3, [r0, #4]
 1469 0120 1C21     		movs	r1, #28
 1470 0122 326C     		ldr	r2, [r6, #64]
 1471 0124 1140     		ands	r1, r2
 1472 0126 0422     		movs	r2, #4
 1473 0128 8A40     		lsls	r2, r2, r1
 1474 012a 1343     		orrs	r3, r2
 1475 012c 4360     		str	r3, [r0, #4]
 1476              	.LVL89:
 710:Drivers/STM32C0xx_HAL_Driver/Src/stm32c0xx_hal_dma.c ****   }
 1477              		.loc 1 710 5 is_stmt 0 view .LVU469
 1478 012e F0E7     		b	.L75
 1479              	.L80:
 1480              		.align	2
 1481              	.L79:
 1482 0130 00000240 		.word	1073872896
 1483              		.cfi_endproc
 1484              	.LFE220:
 1486              		.section	.text.HAL_DMA_IRQHandler,"ax",%progbits
 1487              		.align	1
 1488              		.global	HAL_DMA_IRQHandler
 1489              		.syntax unified
 1490              		.code	16
 1491              		.thumb_func
 1493              	HAL_DMA_IRQHandler:
 1494              	.LVL90:
 1495              	.LFB221:
 726:Drivers/STM32C0xx_HAL_Driver/Src/stm32c0xx_hal_dma.c ****   uint32_t flag_it = DMA1->ISR;
 1496              		.loc 1 726 1 is_stmt 1 view -0
 1497              		.cfi_startproc
 1498              		@ args = 0, pretend = 0, frame = 0
 1499              		@ frame_needed = 0, uses_anonymous_args = 0
 726:Drivers/STM32C0xx_HAL_Driver/Src/stm32c0xx_hal_dma.c ****   uint32_t flag_it = DMA1->ISR;
 1500              		.loc 1 726 1 is_stmt 0 view .LVU471
 1501 0000 70B5     		push	{r4, r5, r6, lr}
 1502              	.LCFI10:
 1503              		.cfi_def_cfa_offset 16
 1504              		.cfi_offset 4, -16
 1505              		.cfi_offset 5, -12
 1506              		.cfi_offset 6, -8
 1507              		.cfi_offset 14, -4
 727:Drivers/STM32C0xx_HAL_Driver/Src/stm32c0xx_hal_dma.c ****   uint32_t source_it = hdma->Instance->CCR;
ARM GAS  /var/folders/nl/kwfz41d55ync1k9vlz8wmkc80000gn/T//cc9IAU1x.s 			page 53


 1508              		.loc 1 727 3 is_stmt 1 view .LVU472
 727:Drivers/STM32C0xx_HAL_Driver/Src/stm32c0xx_hal_dma.c ****   uint32_t source_it = hdma->Instance->CCR;
 1509              		.loc 1 727 12 is_stmt 0 view .LVU473
 1510 0002 314B     		ldr	r3, .L87
 1511 0004 1968     		ldr	r1, [r3]
 1512              	.LVL91:
 728:Drivers/STM32C0xx_HAL_Driver/Src/stm32c0xx_hal_dma.c **** 
 1513              		.loc 1 728 3 is_stmt 1 view .LVU474
 728:Drivers/STM32C0xx_HAL_Driver/Src/stm32c0xx_hal_dma.c **** 
 1514              		.loc 1 728 28 is_stmt 0 view .LVU475
 1515 0006 0468     		ldr	r4, [r0]
 728:Drivers/STM32C0xx_HAL_Driver/Src/stm32c0xx_hal_dma.c **** 
 1516              		.loc 1 728 12 view .LVU476
 1517 0008 2568     		ldr	r5, [r4]
 1518              	.LVL92:
 731:Drivers/STM32C0xx_HAL_Driver/Src/stm32c0xx_hal_dma.c ****   {
 1519              		.loc 1 731 3 is_stmt 1 view .LVU477
 731:Drivers/STM32C0xx_HAL_Driver/Src/stm32c0xx_hal_dma.c ****   {
 1520              		.loc 1 731 56 is_stmt 0 view .LVU478
 1521 000a 1C23     		movs	r3, #28
 1522 000c 026C     		ldr	r2, [r0, #64]
 1523 000e 1340     		ands	r3, r2
 731:Drivers/STM32C0xx_HAL_Driver/Src/stm32c0xx_hal_dma.c ****   {
 1524              		.loc 1 731 33 view .LVU479
 1525 0010 0422     		movs	r2, #4
 1526 0012 9A40     		lsls	r2, r2, r3
 731:Drivers/STM32C0xx_HAL_Driver/Src/stm32c0xx_hal_dma.c ****   {
 1527              		.loc 1 731 6 view .LVU480
 1528 0014 1142     		tst	r1, r2
 1529 0016 16D0     		beq	.L82
 731:Drivers/STM32C0xx_HAL_Driver/Src/stm32c0xx_hal_dma.c ****   {
 1530              		.loc 1 731 74 discriminator 1 view .LVU481
 1531 0018 6A07     		lsls	r2, r5, #29
 1532 001a 14D5     		bpl	.L82
 734:Drivers/STM32C0xx_HAL_Driver/Src/stm32c0xx_hal_dma.c ****     {
 1533              		.loc 1 734 5 is_stmt 1 view .LVU482
 734:Drivers/STM32C0xx_HAL_Driver/Src/stm32c0xx_hal_dma.c ****     {
 1534              		.loc 1 734 24 is_stmt 0 view .LVU483
 1535 001c 2368     		ldr	r3, [r4]
 734:Drivers/STM32C0xx_HAL_Driver/Src/stm32c0xx_hal_dma.c ****     {
 1536              		.loc 1 734 8 view .LVU484
 1537 001e 9B06     		lsls	r3, r3, #26
 1538 0020 03D4     		bmi	.L83
 737:Drivers/STM32C0xx_HAL_Driver/Src/stm32c0xx_hal_dma.c ****     }
 1539              		.loc 1 737 7 is_stmt 1 view .LVU485
 1540 0022 2368     		ldr	r3, [r4]
 1541 0024 0422     		movs	r2, #4
 1542 0026 9343     		bics	r3, r2
 1543 0028 2360     		str	r3, [r4]
 1544              	.L83:
 740:Drivers/STM32C0xx_HAL_Driver/Src/stm32c0xx_hal_dma.c **** 
 1545              		.loc 1 740 5 view .LVU486
 1546 002a 274C     		ldr	r4, .L87
 1547 002c 6368     		ldr	r3, [r4, #4]
 1548 002e 1C21     		movs	r1, #28
 1549              	.LVL93:
 740:Drivers/STM32C0xx_HAL_Driver/Src/stm32c0xx_hal_dma.c **** 
ARM GAS  /var/folders/nl/kwfz41d55ync1k9vlz8wmkc80000gn/T//cc9IAU1x.s 			page 54


 1550              		.loc 1 740 5 is_stmt 0 view .LVU487
 1551 0030 026C     		ldr	r2, [r0, #64]
 1552 0032 1140     		ands	r1, r2
 1553 0034 0422     		movs	r2, #4
 1554 0036 8A40     		lsls	r2, r2, r1
 1555 0038 1343     		orrs	r3, r2
 1556 003a 6360     		str	r3, [r4, #4]
 745:Drivers/STM32C0xx_HAL_Driver/Src/stm32c0xx_hal_dma.c ****     {
 1557              		.loc 1 745 5 is_stmt 1 view .LVU488
 745:Drivers/STM32C0xx_HAL_Driver/Src/stm32c0xx_hal_dma.c ****     {
 1558              		.loc 1 745 13 is_stmt 0 view .LVU489
 1559 003c 036B     		ldr	r3, [r0, #48]
 745:Drivers/STM32C0xx_HAL_Driver/Src/stm32c0xx_hal_dma.c ****     {
 1560              		.loc 1 745 8 view .LVU490
 1561 003e 002B     		cmp	r3, #0
 1562 0040 00D0     		beq	.L81
 748:Drivers/STM32C0xx_HAL_Driver/Src/stm32c0xx_hal_dma.c ****     }
 1563              		.loc 1 748 7 is_stmt 1 view .LVU491
 1564 0042 9847     		blx	r3
 1565              	.LVL94:
 1566              	.L81:
 807:Drivers/STM32C0xx_HAL_Driver/Src/stm32c0xx_hal_dma.c **** 
 1567              		.loc 1 807 1 is_stmt 0 view .LVU492
 1568              		@ sp needed
 1569 0044 70BD     		pop	{r4, r5, r6, pc}
 1570              	.LVL95:
 1571              	.L82:
 753:Drivers/STM32C0xx_HAL_Driver/Src/stm32c0xx_hal_dma.c ****   {
 1572              		.loc 1 753 8 is_stmt 1 view .LVU493
 753:Drivers/STM32C0xx_HAL_Driver/Src/stm32c0xx_hal_dma.c ****   {
 1573              		.loc 1 753 44 is_stmt 0 view .LVU494
 1574 0046 0222     		movs	r2, #2
 1575 0048 9A40     		lsls	r2, r2, r3
 753:Drivers/STM32C0xx_HAL_Driver/Src/stm32c0xx_hal_dma.c ****   {
 1576              		.loc 1 753 11 view .LVU495
 1577 004a 1142     		tst	r1, r2
 1578 004c 1CD0     		beq	.L85
 753:Drivers/STM32C0xx_HAL_Driver/Src/stm32c0xx_hal_dma.c ****   {
 1579              		.loc 1 753 79 discriminator 1 view .LVU496
 1580 004e AA07     		lsls	r2, r5, #30
 1581 0050 1AD5     		bpl	.L85
 755:Drivers/STM32C0xx_HAL_Driver/Src/stm32c0xx_hal_dma.c ****     {
 1582              		.loc 1 755 5 is_stmt 1 view .LVU497
 755:Drivers/STM32C0xx_HAL_Driver/Src/stm32c0xx_hal_dma.c ****     {
 1583              		.loc 1 755 24 is_stmt 0 view .LVU498
 1584 0052 2368     		ldr	r3, [r4]
 755:Drivers/STM32C0xx_HAL_Driver/Src/stm32c0xx_hal_dma.c ****     {
 1585              		.loc 1 755 8 view .LVU499
 1586 0054 9B06     		lsls	r3, r3, #26
 1587 0056 06D4     		bmi	.L86
 758:Drivers/STM32C0xx_HAL_Driver/Src/stm32c0xx_hal_dma.c **** 
 1588              		.loc 1 758 7 is_stmt 1 view .LVU500
 1589 0058 2368     		ldr	r3, [r4]
 1590 005a 0A22     		movs	r2, #10
 1591 005c 9343     		bics	r3, r2
 1592 005e 2360     		str	r3, [r4]
 761:Drivers/STM32C0xx_HAL_Driver/Src/stm32c0xx_hal_dma.c ****     }
ARM GAS  /var/folders/nl/kwfz41d55ync1k9vlz8wmkc80000gn/T//cc9IAU1x.s 			page 55


 1593              		.loc 1 761 7 view .LVU501
 761:Drivers/STM32C0xx_HAL_Driver/Src/stm32c0xx_hal_dma.c ****     }
 1594              		.loc 1 761 19 is_stmt 0 view .LVU502
 1595 0060 2523     		movs	r3, #37
 1596 0062 093A     		subs	r2, r2, #9
 1597 0064 C254     		strb	r2, [r0, r3]
 1598              	.L86:
 764:Drivers/STM32C0xx_HAL_Driver/Src/stm32c0xx_hal_dma.c **** 
 1599              		.loc 1 764 5 is_stmt 1 view .LVU503
 1600 0066 184C     		ldr	r4, .L87
 1601 0068 6368     		ldr	r3, [r4, #4]
 1602 006a 1C21     		movs	r1, #28
 1603              	.LVL96:
 764:Drivers/STM32C0xx_HAL_Driver/Src/stm32c0xx_hal_dma.c **** 
 1604              		.loc 1 764 5 is_stmt 0 view .LVU504
 1605 006c 026C     		ldr	r2, [r0, #64]
 1606 006e 1140     		ands	r1, r2
 1607 0070 0222     		movs	r2, #2
 1608 0072 8A40     		lsls	r2, r2, r1
 1609 0074 1343     		orrs	r3, r2
 1610 0076 6360     		str	r3, [r4, #4]
 767:Drivers/STM32C0xx_HAL_Driver/Src/stm32c0xx_hal_dma.c **** 
 1611              		.loc 1 767 5 is_stmt 1 view .LVU505
 767:Drivers/STM32C0xx_HAL_Driver/Src/stm32c0xx_hal_dma.c **** 
 1612              		.loc 1 767 5 view .LVU506
 1613 0078 2423     		movs	r3, #36
 1614 007a 0022     		movs	r2, #0
 1615 007c C254     		strb	r2, [r0, r3]
 767:Drivers/STM32C0xx_HAL_Driver/Src/stm32c0xx_hal_dma.c **** 
 1616              		.loc 1 767 5 view .LVU507
 769:Drivers/STM32C0xx_HAL_Driver/Src/stm32c0xx_hal_dma.c ****     {
 1617              		.loc 1 769 5 view .LVU508
 769:Drivers/STM32C0xx_HAL_Driver/Src/stm32c0xx_hal_dma.c ****     {
 1618              		.loc 1 769 13 is_stmt 0 view .LVU509
 1619 007e C36A     		ldr	r3, [r0, #44]
 769:Drivers/STM32C0xx_HAL_Driver/Src/stm32c0xx_hal_dma.c ****     {
 1620              		.loc 1 769 8 view .LVU510
 1621 0080 002B     		cmp	r3, #0
 1622 0082 DFD0     		beq	.L81
 772:Drivers/STM32C0xx_HAL_Driver/Src/stm32c0xx_hal_dma.c ****     }
 1623              		.loc 1 772 7 is_stmt 1 view .LVU511
 1624 0084 9847     		blx	r3
 1625              	.LVL97:
 772:Drivers/STM32C0xx_HAL_Driver/Src/stm32c0xx_hal_dma.c ****     }
 1626              		.loc 1 772 7 is_stmt 0 view .LVU512
 1627 0086 DDE7     		b	.L81
 1628              	.LVL98:
 1629              	.L85:
 777:Drivers/STM32C0xx_HAL_Driver/Src/stm32c0xx_hal_dma.c ****   {
 1630              		.loc 1 777 8 is_stmt 1 view .LVU513
 777:Drivers/STM32C0xx_HAL_Driver/Src/stm32c0xx_hal_dma.c ****   {
 1631              		.loc 1 777 38 is_stmt 0 view .LVU514
 1632 0088 0822     		movs	r2, #8
 1633 008a 9A40     		lsls	r2, r2, r3
 777:Drivers/STM32C0xx_HAL_Driver/Src/stm32c0xx_hal_dma.c ****   {
 1634              		.loc 1 777 11 view .LVU515
 1635 008c 1142     		tst	r1, r2
ARM GAS  /var/folders/nl/kwfz41d55ync1k9vlz8wmkc80000gn/T//cc9IAU1x.s 			page 56


 1636 008e D9D0     		beq	.L81
 777:Drivers/STM32C0xx_HAL_Driver/Src/stm32c0xx_hal_dma.c ****   {
 1637              		.loc 1 777 79 discriminator 1 view .LVU516
 1638 0090 2B07     		lsls	r3, r5, #28
 1639 0092 D7D5     		bpl	.L81
 782:Drivers/STM32C0xx_HAL_Driver/Src/stm32c0xx_hal_dma.c **** 
 1640              		.loc 1 782 5 is_stmt 1 view .LVU517
 1641 0094 2368     		ldr	r3, [r4]
 1642 0096 0E22     		movs	r2, #14
 1643 0098 9343     		bics	r3, r2
 1644 009a 2360     		str	r3, [r4]
 785:Drivers/STM32C0xx_HAL_Driver/Src/stm32c0xx_hal_dma.c **** 
 1645              		.loc 1 785 5 view .LVU518
 1646 009c 0A4C     		ldr	r4, .L87
 1647 009e 6268     		ldr	r2, [r4, #4]
 1648 00a0 1C21     		movs	r1, #28
 1649              	.LVL99:
 785:Drivers/STM32C0xx_HAL_Driver/Src/stm32c0xx_hal_dma.c **** 
 1650              		.loc 1 785 5 is_stmt 0 view .LVU519
 1651 00a2 036C     		ldr	r3, [r0, #64]
 1652 00a4 1940     		ands	r1, r3
 1653 00a6 0123     		movs	r3, #1
 1654 00a8 1D00     		movs	r5, r3
 1655              	.LVL100:
 785:Drivers/STM32C0xx_HAL_Driver/Src/stm32c0xx_hal_dma.c **** 
 1656              		.loc 1 785 5 view .LVU520
 1657 00aa 8D40     		lsls	r5, r5, r1
 1658 00ac 2A43     		orrs	r2, r5
 1659 00ae 6260     		str	r2, [r4, #4]
 788:Drivers/STM32C0xx_HAL_Driver/Src/stm32c0xx_hal_dma.c **** 
 1660              		.loc 1 788 5 is_stmt 1 view .LVU521
 788:Drivers/STM32C0xx_HAL_Driver/Src/stm32c0xx_hal_dma.c **** 
 1661              		.loc 1 788 21 is_stmt 0 view .LVU522
 1662 00b0 C363     		str	r3, [r0, #60]
 791:Drivers/STM32C0xx_HAL_Driver/Src/stm32c0xx_hal_dma.c **** 
 1663              		.loc 1 791 5 is_stmt 1 view .LVU523
 791:Drivers/STM32C0xx_HAL_Driver/Src/stm32c0xx_hal_dma.c **** 
 1664              		.loc 1 791 17 is_stmt 0 view .LVU524
 1665 00b2 2522     		movs	r2, #37
 1666 00b4 8354     		strb	r3, [r0, r2]
 794:Drivers/STM32C0xx_HAL_Driver/Src/stm32c0xx_hal_dma.c **** 
 1667              		.loc 1 794 5 is_stmt 1 view .LVU525
 794:Drivers/STM32C0xx_HAL_Driver/Src/stm32c0xx_hal_dma.c **** 
 1668              		.loc 1 794 5 view .LVU526
 1669 00b6 2333     		adds	r3, r3, #35
 1670 00b8 0022     		movs	r2, #0
 1671 00ba C254     		strb	r2, [r0, r3]
 794:Drivers/STM32C0xx_HAL_Driver/Src/stm32c0xx_hal_dma.c **** 
 1672              		.loc 1 794 5 view .LVU527
 796:Drivers/STM32C0xx_HAL_Driver/Src/stm32c0xx_hal_dma.c ****     {
 1673              		.loc 1 796 5 view .LVU528
 796:Drivers/STM32C0xx_HAL_Driver/Src/stm32c0xx_hal_dma.c ****     {
 1674              		.loc 1 796 13 is_stmt 0 view .LVU529
 1675 00bc 436B     		ldr	r3, [r0, #52]
 796:Drivers/STM32C0xx_HAL_Driver/Src/stm32c0xx_hal_dma.c ****     {
 1676              		.loc 1 796 8 view .LVU530
 1677 00be 002B     		cmp	r3, #0
ARM GAS  /var/folders/nl/kwfz41d55ync1k9vlz8wmkc80000gn/T//cc9IAU1x.s 			page 57


 1678 00c0 C0D0     		beq	.L81
 799:Drivers/STM32C0xx_HAL_Driver/Src/stm32c0xx_hal_dma.c ****     }
 1679              		.loc 1 799 7 is_stmt 1 view .LVU531
 1680 00c2 9847     		blx	r3
 1681              	.LVL101:
 805:Drivers/STM32C0xx_HAL_Driver/Src/stm32c0xx_hal_dma.c ****   return;
 1682              		.loc 1 805 3 view .LVU532
 806:Drivers/STM32C0xx_HAL_Driver/Src/stm32c0xx_hal_dma.c **** }
 1683              		.loc 1 806 3 view .LVU533
 1684 00c4 BEE7     		b	.L81
 1685              	.L88:
 1686 00c6 C046     		.align	2
 1687              	.L87:
 1688 00c8 00000240 		.word	1073872896
 1689              		.cfi_endproc
 1690              	.LFE221:
 1692              		.section	.text.HAL_DMA_RegisterCallback,"ax",%progbits
 1693              		.align	1
 1694              		.global	HAL_DMA_RegisterCallback
 1695              		.syntax unified
 1696              		.code	16
 1697              		.thumb_func
 1699              	HAL_DMA_RegisterCallback:
 1700              	.LVL102:
 1701              	.LFB222:
 821:Drivers/STM32C0xx_HAL_Driver/Src/stm32c0xx_hal_dma.c ****   HAL_StatusTypeDef status = HAL_OK;
 1702              		.loc 1 821 1 view -0
 1703              		.cfi_startproc
 1704              		@ args = 0, pretend = 0, frame = 0
 1705              		@ frame_needed = 0, uses_anonymous_args = 0
 821:Drivers/STM32C0xx_HAL_Driver/Src/stm32c0xx_hal_dma.c ****   HAL_StatusTypeDef status = HAL_OK;
 1706              		.loc 1 821 1 is_stmt 0 view .LVU535
 1707 0000 10B5     		push	{r4, lr}
 1708              	.LCFI11:
 1709              		.cfi_def_cfa_offset 8
 1710              		.cfi_offset 4, -8
 1711              		.cfi_offset 14, -4
 1712 0002 0300     		movs	r3, r0
 822:Drivers/STM32C0xx_HAL_Driver/Src/stm32c0xx_hal_dma.c **** 
 1713              		.loc 1 822 3 is_stmt 1 view .LVU536
 1714              	.LVL103:
 825:Drivers/STM32C0xx_HAL_Driver/Src/stm32c0xx_hal_dma.c **** 
 1715              		.loc 1 825 3 view .LVU537
 825:Drivers/STM32C0xx_HAL_Driver/Src/stm32c0xx_hal_dma.c **** 
 1716              		.loc 1 825 3 view .LVU538
 1717 0004 2420     		movs	r0, #36
 1718              	.LVL104:
 825:Drivers/STM32C0xx_HAL_Driver/Src/stm32c0xx_hal_dma.c **** 
 1719              		.loc 1 825 3 is_stmt 0 view .LVU539
 1720 0006 185C     		ldrb	r0, [r3, r0]
 1721 0008 0128     		cmp	r0, #1
 1722 000a 21D0     		beq	.L97
 825:Drivers/STM32C0xx_HAL_Driver/Src/stm32c0xx_hal_dma.c **** 
 1723              		.loc 1 825 3 is_stmt 1 discriminator 2 view .LVU540
 1724 000c 2420     		movs	r0, #36
 1725 000e 0124     		movs	r4, #1
 1726 0010 1C54     		strb	r4, [r3, r0]
ARM GAS  /var/folders/nl/kwfz41d55ync1k9vlz8wmkc80000gn/T//cc9IAU1x.s 			page 58


 825:Drivers/STM32C0xx_HAL_Driver/Src/stm32c0xx_hal_dma.c **** 
 1727              		.loc 1 825 3 discriminator 2 view .LVU541
 827:Drivers/STM32C0xx_HAL_Driver/Src/stm32c0xx_hal_dma.c ****   {
 1728              		.loc 1 827 3 discriminator 2 view .LVU542
 827:Drivers/STM32C0xx_HAL_Driver/Src/stm32c0xx_hal_dma.c ****   {
 1729              		.loc 1 827 34 is_stmt 0 discriminator 2 view .LVU543
 1730 0012 0130     		adds	r0, r0, #1
 1731 0014 1C5C     		ldrb	r4, [r3, r0]
 1732 0016 E0B2     		uxtb	r0, r4
 827:Drivers/STM32C0xx_HAL_Driver/Src/stm32c0xx_hal_dma.c ****   {
 1733              		.loc 1 827 6 discriminator 2 view .LVU544
 1734 0018 012C     		cmp	r4, #1
 1735 001a 04D0     		beq	.L99
 854:Drivers/STM32C0xx_HAL_Driver/Src/stm32c0xx_hal_dma.c ****   }
 1736              		.loc 1 854 12 view .LVU545
 1737 001c 0120     		movs	r0, #1
 1738              	.L91:
 1739              	.LVL105:
 858:Drivers/STM32C0xx_HAL_Driver/Src/stm32c0xx_hal_dma.c **** 
 1740              		.loc 1 858 3 is_stmt 1 view .LVU546
 858:Drivers/STM32C0xx_HAL_Driver/Src/stm32c0xx_hal_dma.c **** 
 1741              		.loc 1 858 3 view .LVU547
 1742 001e 2422     		movs	r2, #36
 1743              	.LVL106:
 858:Drivers/STM32C0xx_HAL_Driver/Src/stm32c0xx_hal_dma.c **** 
 1744              		.loc 1 858 3 is_stmt 0 view .LVU548
 1745 0020 0021     		movs	r1, #0
 1746              	.LVL107:
 858:Drivers/STM32C0xx_HAL_Driver/Src/stm32c0xx_hal_dma.c **** 
 1747              		.loc 1 858 3 view .LVU549
 1748 0022 9954     		strb	r1, [r3, r2]
 858:Drivers/STM32C0xx_HAL_Driver/Src/stm32c0xx_hal_dma.c **** 
 1749              		.loc 1 858 3 is_stmt 1 view .LVU550
 860:Drivers/STM32C0xx_HAL_Driver/Src/stm32c0xx_hal_dma.c **** }
 1750              		.loc 1 860 3 view .LVU551
 1751              	.LVL108:
 1752              	.L90:
 861:Drivers/STM32C0xx_HAL_Driver/Src/stm32c0xx_hal_dma.c **** 
 1753              		.loc 1 861 1 is_stmt 0 view .LVU552
 1754              		@ sp needed
 1755 0024 10BD     		pop	{r4, pc}
 1756              	.LVL109:
 1757              	.L99:
 829:Drivers/STM32C0xx_HAL_Driver/Src/stm32c0xx_hal_dma.c ****     {
 1758              		.loc 1 829 5 is_stmt 1 view .LVU553
 1759 0026 0229     		cmp	r1, #2
 1760 0028 0FD0     		beq	.L92
 1761 002a 06D8     		bhi	.L93
 1762 002c 0029     		cmp	r1, #0
 1763 002e 09D0     		beq	.L94
 1764 0030 0129     		cmp	r1, #1
 1765 0032 F4D1     		bne	.L91
 836:Drivers/STM32C0xx_HAL_Driver/Src/stm32c0xx_hal_dma.c ****         break;
 1766              		.loc 1 836 9 view .LVU554
 836:Drivers/STM32C0xx_HAL_Driver/Src/stm32c0xx_hal_dma.c ****         break;
 1767              		.loc 1 836 36 is_stmt 0 view .LVU555
 1768 0034 1A63     		str	r2, [r3, #48]
ARM GAS  /var/folders/nl/kwfz41d55ync1k9vlz8wmkc80000gn/T//cc9IAU1x.s 			page 59


 837:Drivers/STM32C0xx_HAL_Driver/Src/stm32c0xx_hal_dma.c **** 
 1769              		.loc 1 837 9 is_stmt 1 view .LVU556
 822:Drivers/STM32C0xx_HAL_Driver/Src/stm32c0xx_hal_dma.c **** 
 1770              		.loc 1 822 21 is_stmt 0 view .LVU557
 1771 0036 0020     		movs	r0, #0
 837:Drivers/STM32C0xx_HAL_Driver/Src/stm32c0xx_hal_dma.c **** 
 1772              		.loc 1 837 9 view .LVU558
 1773 0038 F1E7     		b	.L91
 1774              	.L93:
 829:Drivers/STM32C0xx_HAL_Driver/Src/stm32c0xx_hal_dma.c ****     {
 1775              		.loc 1 829 5 view .LVU559
 1776 003a 0329     		cmp	r1, #3
 1777 003c EFD1     		bne	.L91
 844:Drivers/STM32C0xx_HAL_Driver/Src/stm32c0xx_hal_dma.c ****         break;
 1778              		.loc 1 844 9 is_stmt 1 view .LVU560
 844:Drivers/STM32C0xx_HAL_Driver/Src/stm32c0xx_hal_dma.c ****         break;
 1779              		.loc 1 844 33 is_stmt 0 view .LVU561
 1780 003e 9A63     		str	r2, [r3, #56]
 845:Drivers/STM32C0xx_HAL_Driver/Src/stm32c0xx_hal_dma.c **** 
 1781              		.loc 1 845 9 is_stmt 1 view .LVU562
 822:Drivers/STM32C0xx_HAL_Driver/Src/stm32c0xx_hal_dma.c **** 
 1782              		.loc 1 822 21 is_stmt 0 view .LVU563
 1783 0040 0020     		movs	r0, #0
 845:Drivers/STM32C0xx_HAL_Driver/Src/stm32c0xx_hal_dma.c **** 
 1784              		.loc 1 845 9 view .LVU564
 1785 0042 ECE7     		b	.L91
 1786              	.L94:
 832:Drivers/STM32C0xx_HAL_Driver/Src/stm32c0xx_hal_dma.c ****         break;
 1787              		.loc 1 832 9 is_stmt 1 view .LVU565
 832:Drivers/STM32C0xx_HAL_Driver/Src/stm32c0xx_hal_dma.c ****         break;
 1788              		.loc 1 832 32 is_stmt 0 view .LVU566
 1789 0044 DA62     		str	r2, [r3, #44]
 833:Drivers/STM32C0xx_HAL_Driver/Src/stm32c0xx_hal_dma.c **** 
 1790              		.loc 1 833 9 is_stmt 1 view .LVU567
 822:Drivers/STM32C0xx_HAL_Driver/Src/stm32c0xx_hal_dma.c **** 
 1791              		.loc 1 822 21 is_stmt 0 view .LVU568
 1792 0046 0800     		movs	r0, r1
 833:Drivers/STM32C0xx_HAL_Driver/Src/stm32c0xx_hal_dma.c **** 
 1793              		.loc 1 833 9 view .LVU569
 1794 0048 E9E7     		b	.L91
 1795              	.L92:
 840:Drivers/STM32C0xx_HAL_Driver/Src/stm32c0xx_hal_dma.c ****         break;
 1796              		.loc 1 840 9 is_stmt 1 view .LVU570
 840:Drivers/STM32C0xx_HAL_Driver/Src/stm32c0xx_hal_dma.c ****         break;
 1797              		.loc 1 840 33 is_stmt 0 view .LVU571
 1798 004a 5A63     		str	r2, [r3, #52]
 841:Drivers/STM32C0xx_HAL_Driver/Src/stm32c0xx_hal_dma.c **** 
 1799              		.loc 1 841 9 is_stmt 1 view .LVU572
 822:Drivers/STM32C0xx_HAL_Driver/Src/stm32c0xx_hal_dma.c **** 
 1800              		.loc 1 822 21 is_stmt 0 view .LVU573
 1801 004c 0020     		movs	r0, #0
 841:Drivers/STM32C0xx_HAL_Driver/Src/stm32c0xx_hal_dma.c **** 
 1802              		.loc 1 841 9 view .LVU574
 1803 004e E6E7     		b	.L91
 1804              	.L97:
 825:Drivers/STM32C0xx_HAL_Driver/Src/stm32c0xx_hal_dma.c **** 
 1805              		.loc 1 825 3 view .LVU575
ARM GAS  /var/folders/nl/kwfz41d55ync1k9vlz8wmkc80000gn/T//cc9IAU1x.s 			page 60


 1806 0050 0220     		movs	r0, #2
 1807 0052 E7E7     		b	.L90
 1808              		.cfi_endproc
 1809              	.LFE222:
 1811              		.section	.text.HAL_DMA_UnRegisterCallback,"ax",%progbits
 1812              		.align	1
 1813              		.global	HAL_DMA_UnRegisterCallback
 1814              		.syntax unified
 1815              		.code	16
 1816              		.thumb_func
 1818              	HAL_DMA_UnRegisterCallback:
 1819              	.LVL110:
 1820              	.LFB223:
 872:Drivers/STM32C0xx_HAL_Driver/Src/stm32c0xx_hal_dma.c ****   HAL_StatusTypeDef status = HAL_OK;
 1821              		.loc 1 872 1 is_stmt 1 view -0
 1822              		.cfi_startproc
 1823              		@ args = 0, pretend = 0, frame = 0
 1824              		@ frame_needed = 0, uses_anonymous_args = 0
 1825              		@ link register save eliminated.
 872:Drivers/STM32C0xx_HAL_Driver/Src/stm32c0xx_hal_dma.c ****   HAL_StatusTypeDef status = HAL_OK;
 1826              		.loc 1 872 1 is_stmt 0 view .LVU577
 1827 0000 0300     		movs	r3, r0
 873:Drivers/STM32C0xx_HAL_Driver/Src/stm32c0xx_hal_dma.c **** 
 1828              		.loc 1 873 3 is_stmt 1 view .LVU578
 1829              	.LVL111:
 876:Drivers/STM32C0xx_HAL_Driver/Src/stm32c0xx_hal_dma.c **** 
 1830              		.loc 1 876 3 view .LVU579
 876:Drivers/STM32C0xx_HAL_Driver/Src/stm32c0xx_hal_dma.c **** 
 1831              		.loc 1 876 3 view .LVU580
 1832 0002 2422     		movs	r2, #36
 1833 0004 825C     		ldrb	r2, [r0, r2]
 1834 0006 012A     		cmp	r2, #1
 1835 0008 29D0     		beq	.L109
 876:Drivers/STM32C0xx_HAL_Driver/Src/stm32c0xx_hal_dma.c **** 
 1836              		.loc 1 876 3 discriminator 2 view .LVU581
 1837 000a 2422     		movs	r2, #36
 1838 000c 0120     		movs	r0, #1
 1839              	.LVL112:
 876:Drivers/STM32C0xx_HAL_Driver/Src/stm32c0xx_hal_dma.c **** 
 1840              		.loc 1 876 3 is_stmt 0 discriminator 2 view .LVU582
 1841 000e 9854     		strb	r0, [r3, r2]
 876:Drivers/STM32C0xx_HAL_Driver/Src/stm32c0xx_hal_dma.c **** 
 1842              		.loc 1 876 3 is_stmt 1 discriminator 2 view .LVU583
 878:Drivers/STM32C0xx_HAL_Driver/Src/stm32c0xx_hal_dma.c ****   {
 1843              		.loc 1 878 3 discriminator 2 view .LVU584
 878:Drivers/STM32C0xx_HAL_Driver/Src/stm32c0xx_hal_dma.c ****   {
 1844              		.loc 1 878 34 is_stmt 0 discriminator 2 view .LVU585
 1845 0010 0132     		adds	r2, r2, #1
 1846 0012 9A5C     		ldrb	r2, [r3, r2]
 1847 0014 D0B2     		uxtb	r0, r2
 878:Drivers/STM32C0xx_HAL_Driver/Src/stm32c0xx_hal_dma.c ****   {
 1848              		.loc 1 878 6 discriminator 2 view .LVU586
 1849 0016 012A     		cmp	r2, #1
 1850 0018 04D0     		beq	.L111
 912:Drivers/STM32C0xx_HAL_Driver/Src/stm32c0xx_hal_dma.c ****   }
 1851              		.loc 1 912 12 view .LVU587
 1852 001a 0120     		movs	r0, #1
ARM GAS  /var/folders/nl/kwfz41d55ync1k9vlz8wmkc80000gn/T//cc9IAU1x.s 			page 61


 1853              	.L102:
 1854              	.LVL113:
 916:Drivers/STM32C0xx_HAL_Driver/Src/stm32c0xx_hal_dma.c **** 
 1855              		.loc 1 916 3 is_stmt 1 view .LVU588
 916:Drivers/STM32C0xx_HAL_Driver/Src/stm32c0xx_hal_dma.c **** 
 1856              		.loc 1 916 3 view .LVU589
 1857 001c 2422     		movs	r2, #36
 1858 001e 0021     		movs	r1, #0
 1859              	.LVL114:
 916:Drivers/STM32C0xx_HAL_Driver/Src/stm32c0xx_hal_dma.c **** 
 1860              		.loc 1 916 3 is_stmt 0 view .LVU590
 1861 0020 9954     		strb	r1, [r3, r2]
 916:Drivers/STM32C0xx_HAL_Driver/Src/stm32c0xx_hal_dma.c **** 
 1862              		.loc 1 916 3 is_stmt 1 view .LVU591
 918:Drivers/STM32C0xx_HAL_Driver/Src/stm32c0xx_hal_dma.c **** }
 1863              		.loc 1 918 3 view .LVU592
 1864              	.LVL115:
 1865              	.L101:
 919:Drivers/STM32C0xx_HAL_Driver/Src/stm32c0xx_hal_dma.c **** 
 1866              		.loc 1 919 1 is_stmt 0 view .LVU593
 1867              		@ sp needed
 1868 0022 7047     		bx	lr
 1869              	.LVL116:
 1870              	.L111:
 880:Drivers/STM32C0xx_HAL_Driver/Src/stm32c0xx_hal_dma.c ****     {
 1871              		.loc 1 880 5 is_stmt 1 view .LVU594
 1872 0024 0429     		cmp	r1, #4
 1873 0026 F9D8     		bhi	.L102
 1874 0028 8A00     		lsls	r2, r1, #2
 1875 002a 0E48     		ldr	r0, .L112
 1876 002c 8258     		ldr	r2, [r0, r2]
 1877 002e 9746     		mov	pc, r2
 1878              		.section	.rodata.HAL_DMA_UnRegisterCallback,"a",%progbits
 1879              		.align	2
 1880              	.L104:
 1881 0000 30000000 		.word	.L108
 1882 0004 38000000 		.word	.L107
 1883 0008 40000000 		.word	.L106
 1884 000c 48000000 		.word	.L105
 1885 0010 50000000 		.word	.L103
 1886              		.section	.text.HAL_DMA_UnRegisterCallback
 1887              	.L108:
 883:Drivers/STM32C0xx_HAL_Driver/Src/stm32c0xx_hal_dma.c ****         break;
 1888              		.loc 1 883 9 view .LVU595
 883:Drivers/STM32C0xx_HAL_Driver/Src/stm32c0xx_hal_dma.c ****         break;
 1889              		.loc 1 883 32 is_stmt 0 view .LVU596
 1890 0030 0022     		movs	r2, #0
 1891 0032 DA62     		str	r2, [r3, #44]
 884:Drivers/STM32C0xx_HAL_Driver/Src/stm32c0xx_hal_dma.c **** 
 1892              		.loc 1 884 9 is_stmt 1 view .LVU597
 873:Drivers/STM32C0xx_HAL_Driver/Src/stm32c0xx_hal_dma.c **** 
 1893              		.loc 1 873 21 is_stmt 0 view .LVU598
 1894 0034 0800     		movs	r0, r1
 884:Drivers/STM32C0xx_HAL_Driver/Src/stm32c0xx_hal_dma.c **** 
 1895              		.loc 1 884 9 view .LVU599
 1896 0036 F1E7     		b	.L102
 1897              	.L107:
ARM GAS  /var/folders/nl/kwfz41d55ync1k9vlz8wmkc80000gn/T//cc9IAU1x.s 			page 62


 887:Drivers/STM32C0xx_HAL_Driver/Src/stm32c0xx_hal_dma.c ****         break;
 1898              		.loc 1 887 9 is_stmt 1 view .LVU600
 887:Drivers/STM32C0xx_HAL_Driver/Src/stm32c0xx_hal_dma.c ****         break;
 1899              		.loc 1 887 36 is_stmt 0 view .LVU601
 1900 0038 0022     		movs	r2, #0
 1901 003a 1A63     		str	r2, [r3, #48]
 888:Drivers/STM32C0xx_HAL_Driver/Src/stm32c0xx_hal_dma.c **** 
 1902              		.loc 1 888 9 is_stmt 1 view .LVU602
 873:Drivers/STM32C0xx_HAL_Driver/Src/stm32c0xx_hal_dma.c **** 
 1903              		.loc 1 873 21 is_stmt 0 view .LVU603
 1904 003c 0020     		movs	r0, #0
 888:Drivers/STM32C0xx_HAL_Driver/Src/stm32c0xx_hal_dma.c **** 
 1905              		.loc 1 888 9 view .LVU604
 1906 003e EDE7     		b	.L102
 1907              	.L106:
 891:Drivers/STM32C0xx_HAL_Driver/Src/stm32c0xx_hal_dma.c ****         break;
 1908              		.loc 1 891 9 is_stmt 1 view .LVU605
 891:Drivers/STM32C0xx_HAL_Driver/Src/stm32c0xx_hal_dma.c ****         break;
 1909              		.loc 1 891 33 is_stmt 0 view .LVU606
 1910 0040 0022     		movs	r2, #0
 1911 0042 5A63     		str	r2, [r3, #52]
 892:Drivers/STM32C0xx_HAL_Driver/Src/stm32c0xx_hal_dma.c **** 
 1912              		.loc 1 892 9 is_stmt 1 view .LVU607
 873:Drivers/STM32C0xx_HAL_Driver/Src/stm32c0xx_hal_dma.c **** 
 1913              		.loc 1 873 21 is_stmt 0 view .LVU608
 1914 0044 0020     		movs	r0, #0
 892:Drivers/STM32C0xx_HAL_Driver/Src/stm32c0xx_hal_dma.c **** 
 1915              		.loc 1 892 9 view .LVU609
 1916 0046 E9E7     		b	.L102
 1917              	.L105:
 895:Drivers/STM32C0xx_HAL_Driver/Src/stm32c0xx_hal_dma.c ****         break;
 1918              		.loc 1 895 9 is_stmt 1 view .LVU610
 895:Drivers/STM32C0xx_HAL_Driver/Src/stm32c0xx_hal_dma.c ****         break;
 1919              		.loc 1 895 33 is_stmt 0 view .LVU611
 1920 0048 0022     		movs	r2, #0
 1921 004a 9A63     		str	r2, [r3, #56]
 896:Drivers/STM32C0xx_HAL_Driver/Src/stm32c0xx_hal_dma.c **** 
 1922              		.loc 1 896 9 is_stmt 1 view .LVU612
 873:Drivers/STM32C0xx_HAL_Driver/Src/stm32c0xx_hal_dma.c **** 
 1923              		.loc 1 873 21 is_stmt 0 view .LVU613
 1924 004c 0020     		movs	r0, #0
 896:Drivers/STM32C0xx_HAL_Driver/Src/stm32c0xx_hal_dma.c **** 
 1925              		.loc 1 896 9 view .LVU614
 1926 004e E5E7     		b	.L102
 1927              	.L103:
 899:Drivers/STM32C0xx_HAL_Driver/Src/stm32c0xx_hal_dma.c ****         hdma->XferHalfCpltCallback = NULL;
 1928              		.loc 1 899 9 is_stmt 1 view .LVU615
 899:Drivers/STM32C0xx_HAL_Driver/Src/stm32c0xx_hal_dma.c ****         hdma->XferHalfCpltCallback = NULL;
 1929              		.loc 1 899 32 is_stmt 0 view .LVU616
 1930 0050 0022     		movs	r2, #0
 1931 0052 DA62     		str	r2, [r3, #44]
 900:Drivers/STM32C0xx_HAL_Driver/Src/stm32c0xx_hal_dma.c ****         hdma->XferErrorCallback = NULL;
 1932              		.loc 1 900 9 is_stmt 1 view .LVU617
 900:Drivers/STM32C0xx_HAL_Driver/Src/stm32c0xx_hal_dma.c ****         hdma->XferErrorCallback = NULL;
 1933              		.loc 1 900 36 is_stmt 0 view .LVU618
 1934 0054 1A63     		str	r2, [r3, #48]
 901:Drivers/STM32C0xx_HAL_Driver/Src/stm32c0xx_hal_dma.c ****         hdma->XferAbortCallback = NULL;
ARM GAS  /var/folders/nl/kwfz41d55ync1k9vlz8wmkc80000gn/T//cc9IAU1x.s 			page 63


 1935              		.loc 1 901 9 is_stmt 1 view .LVU619
 901:Drivers/STM32C0xx_HAL_Driver/Src/stm32c0xx_hal_dma.c ****         hdma->XferAbortCallback = NULL;
 1936              		.loc 1 901 33 is_stmt 0 view .LVU620
 1937 0056 5A63     		str	r2, [r3, #52]
 902:Drivers/STM32C0xx_HAL_Driver/Src/stm32c0xx_hal_dma.c ****         break;
 1938              		.loc 1 902 9 is_stmt 1 view .LVU621
 902:Drivers/STM32C0xx_HAL_Driver/Src/stm32c0xx_hal_dma.c ****         break;
 1939              		.loc 1 902 33 is_stmt 0 view .LVU622
 1940 0058 9A63     		str	r2, [r3, #56]
 903:Drivers/STM32C0xx_HAL_Driver/Src/stm32c0xx_hal_dma.c **** 
 1941              		.loc 1 903 9 is_stmt 1 view .LVU623
 873:Drivers/STM32C0xx_HAL_Driver/Src/stm32c0xx_hal_dma.c **** 
 1942              		.loc 1 873 21 is_stmt 0 view .LVU624
 1943 005a 0020     		movs	r0, #0
 903:Drivers/STM32C0xx_HAL_Driver/Src/stm32c0xx_hal_dma.c **** 
 1944              		.loc 1 903 9 view .LVU625
 1945 005c DEE7     		b	.L102
 1946              	.LVL117:
 1947              	.L109:
 876:Drivers/STM32C0xx_HAL_Driver/Src/stm32c0xx_hal_dma.c **** 
 1948              		.loc 1 876 3 view .LVU626
 1949 005e 0220     		movs	r0, #2
 1950              	.LVL118:
 876:Drivers/STM32C0xx_HAL_Driver/Src/stm32c0xx_hal_dma.c **** 
 1951              		.loc 1 876 3 view .LVU627
 1952 0060 DFE7     		b	.L101
 1953              	.L113:
 1954 0062 C046     		.align	2
 1955              	.L112:
 1956 0064 00000000 		.word	.L104
 1957              		.cfi_endproc
 1958              	.LFE223:
 1960              		.section	.text.HAL_DMA_GetState,"ax",%progbits
 1961              		.align	1
 1962              		.global	HAL_DMA_GetState
 1963              		.syntax unified
 1964              		.code	16
 1965              		.thumb_func
 1967              	HAL_DMA_GetState:
 1968              	.LVL119:
 1969              	.LFB224:
 950:Drivers/STM32C0xx_HAL_Driver/Src/stm32c0xx_hal_dma.c ****   /* Return DMA handle state */
 1970              		.loc 1 950 1 is_stmt 1 view -0
 1971              		.cfi_startproc
 1972              		@ args = 0, pretend = 0, frame = 0
 1973              		@ frame_needed = 0, uses_anonymous_args = 0
 1974              		@ link register save eliminated.
 952:Drivers/STM32C0xx_HAL_Driver/Src/stm32c0xx_hal_dma.c **** }
 1975              		.loc 1 952 3 view .LVU629
 952:Drivers/STM32C0xx_HAL_Driver/Src/stm32c0xx_hal_dma.c **** }
 1976              		.loc 1 952 14 is_stmt 0 view .LVU630
 1977 0000 2523     		movs	r3, #37
 1978 0002 C05C     		ldrb	r0, [r0, r3]
 1979              	.LVL120:
 952:Drivers/STM32C0xx_HAL_Driver/Src/stm32c0xx_hal_dma.c **** }
 1980              		.loc 1 952 14 view .LVU631
 1981 0004 C0B2     		uxtb	r0, r0
ARM GAS  /var/folders/nl/kwfz41d55ync1k9vlz8wmkc80000gn/T//cc9IAU1x.s 			page 64


 953:Drivers/STM32C0xx_HAL_Driver/Src/stm32c0xx_hal_dma.c **** 
 1982              		.loc 1 953 1 view .LVU632
 1983              		@ sp needed
 1984 0006 7047     		bx	lr
 1985              		.cfi_endproc
 1986              	.LFE224:
 1988              		.section	.text.HAL_DMA_GetError,"ax",%progbits
 1989              		.align	1
 1990              		.global	HAL_DMA_GetError
 1991              		.syntax unified
 1992              		.code	16
 1993              		.thumb_func
 1995              	HAL_DMA_GetError:
 1996              	.LVL121:
 1997              	.LFB225:
 962:Drivers/STM32C0xx_HAL_Driver/Src/stm32c0xx_hal_dma.c ****   return hdma->ErrorCode;
 1998              		.loc 1 962 1 is_stmt 1 view -0
 1999              		.cfi_startproc
 2000              		@ args = 0, pretend = 0, frame = 0
 2001              		@ frame_needed = 0, uses_anonymous_args = 0
 2002              		@ link register save eliminated.
 963:Drivers/STM32C0xx_HAL_Driver/Src/stm32c0xx_hal_dma.c **** }
 2003              		.loc 1 963 3 view .LVU634
 963:Drivers/STM32C0xx_HAL_Driver/Src/stm32c0xx_hal_dma.c **** }
 2004              		.loc 1 963 14 is_stmt 0 view .LVU635
 2005 0000 C06B     		ldr	r0, [r0, #60]
 2006              	.LVL122:
 964:Drivers/STM32C0xx_HAL_Driver/Src/stm32c0xx_hal_dma.c **** 
 2007              		.loc 1 964 1 view .LVU636
 2008              		@ sp needed
 2009 0002 7047     		bx	lr
 2010              		.cfi_endproc
 2011              	.LFE225:
 2013              		.text
 2014              	.Letext0:
 2015              		.file 2 "/usr/local/arm-none-eabi/include/machine/_default_types.h"
 2016              		.file 3 "/usr/local/arm-none-eabi/include/sys/_stdint.h"
 2017              		.file 4 "Drivers/CMSIS/Device/ST/STM32C0xx/Include/stm32c031xx.h"
 2018              		.file 5 "Drivers/STM32C0xx_HAL_Driver/Inc/stm32c0xx_hal_def.h"
 2019              		.file 6 "Drivers/STM32C0xx_HAL_Driver/Inc/stm32c0xx_hal_dma.h"
 2020              		.file 7 "Drivers/STM32C0xx_HAL_Driver/Inc/stm32c0xx_hal.h"
ARM GAS  /var/folders/nl/kwfz41d55ync1k9vlz8wmkc80000gn/T//cc9IAU1x.s 			page 65

