ARM GAS  /var/folders/nl/kwfz41d55ync1k9vlz8wmkc80000gn/T//ccPpmmCA.s 			page 1


   1              		.cpu cortex-m0plus
   2              		.arch armv6s-m
   3              		.fpu softvfp
   4              		.eabi_attribute 20, 1
   5              		.eabi_attribute 21, 1
   6              		.eabi_attribute 23, 3
   7              		.eabi_attribute 24, 1
   8              		.eabi_attribute 25, 1
   9              		.eabi_attribute 26, 1
  10              		.eabi_attribute 30, 1
  11              		.eabi_attribute 34, 0
  12              		.eabi_attribute 18, 4
  13              		.file	"stm32c0xx_hal_rcc.c"
  14              		.text
  15              	.Ltext0:
  16              		.cfi_sections	.debug_frame
  17              		.section	.text.HAL_RCC_DeInit,"ax",%progbits
  18              		.align	1
  19              		.global	HAL_RCC_DeInit
  20              		.syntax unified
  21              		.code	16
  22              		.thumb_func
  24              	HAL_RCC_DeInit:
  25              	.LFB214:
  26              		.file 1 "Drivers/STM32C0xx_HAL_Driver/Src/stm32c0xx_hal_rcc.c"
   1:Drivers/STM32C0xx_HAL_Driver/Src/stm32c0xx_hal_rcc.c **** /**
   2:Drivers/STM32C0xx_HAL_Driver/Src/stm32c0xx_hal_rcc.c ****   ******************************************************************************
   3:Drivers/STM32C0xx_HAL_Driver/Src/stm32c0xx_hal_rcc.c ****   * @file    stm32c0xx_hal_rcc.c
   4:Drivers/STM32C0xx_HAL_Driver/Src/stm32c0xx_hal_rcc.c ****   * @author  MCD Application Team
   5:Drivers/STM32C0xx_HAL_Driver/Src/stm32c0xx_hal_rcc.c ****   * @brief   RCC HAL module driver.
   6:Drivers/STM32C0xx_HAL_Driver/Src/stm32c0xx_hal_rcc.c ****   *          This file provides firmware functions to manage the following
   7:Drivers/STM32C0xx_HAL_Driver/Src/stm32c0xx_hal_rcc.c ****   *          functionalities of the Reset and Clock Control (RCC) peripheral:
   8:Drivers/STM32C0xx_HAL_Driver/Src/stm32c0xx_hal_rcc.c ****   *           + Initialization and de-initialization functions
   9:Drivers/STM32C0xx_HAL_Driver/Src/stm32c0xx_hal_rcc.c ****   *           + Peripheral Control functions
  10:Drivers/STM32C0xx_HAL_Driver/Src/stm32c0xx_hal_rcc.c ****   *
  11:Drivers/STM32C0xx_HAL_Driver/Src/stm32c0xx_hal_rcc.c ****   ******************************************************************************
  12:Drivers/STM32C0xx_HAL_Driver/Src/stm32c0xx_hal_rcc.c ****   * @attention
  13:Drivers/STM32C0xx_HAL_Driver/Src/stm32c0xx_hal_rcc.c ****   *
  14:Drivers/STM32C0xx_HAL_Driver/Src/stm32c0xx_hal_rcc.c ****   * Copyright (c) 2022 STMicroelectronics.
  15:Drivers/STM32C0xx_HAL_Driver/Src/stm32c0xx_hal_rcc.c ****   * All rights reserved.
  16:Drivers/STM32C0xx_HAL_Driver/Src/stm32c0xx_hal_rcc.c ****   *
  17:Drivers/STM32C0xx_HAL_Driver/Src/stm32c0xx_hal_rcc.c ****   * This software is licensed under terms that can be found in the LICENSE file
  18:Drivers/STM32C0xx_HAL_Driver/Src/stm32c0xx_hal_rcc.c ****   * in the root directory of this software component.
  19:Drivers/STM32C0xx_HAL_Driver/Src/stm32c0xx_hal_rcc.c ****   * If no LICENSE file comes with this software, it is provided AS-IS.
  20:Drivers/STM32C0xx_HAL_Driver/Src/stm32c0xx_hal_rcc.c ****   *
  21:Drivers/STM32C0xx_HAL_Driver/Src/stm32c0xx_hal_rcc.c ****   ******************************************************************************
  22:Drivers/STM32C0xx_HAL_Driver/Src/stm32c0xx_hal_rcc.c ****   @verbatim
  23:Drivers/STM32C0xx_HAL_Driver/Src/stm32c0xx_hal_rcc.c ****   ==============================================================================
  24:Drivers/STM32C0xx_HAL_Driver/Src/stm32c0xx_hal_rcc.c ****                       ##### RCC specific features #####
  25:Drivers/STM32C0xx_HAL_Driver/Src/stm32c0xx_hal_rcc.c ****   ==============================================================================
  26:Drivers/STM32C0xx_HAL_Driver/Src/stm32c0xx_hal_rcc.c ****     [..]
  27:Drivers/STM32C0xx_HAL_Driver/Src/stm32c0xx_hal_rcc.c ****       After reset the device is running from High Speed Internal oscillator
  28:Drivers/STM32C0xx_HAL_Driver/Src/stm32c0xx_hal_rcc.c ****       divided by 4 that is the default system clock with Flash 0 wait state.
  29:Drivers/STM32C0xx_HAL_Driver/Src/stm32c0xx_hal_rcc.c **** 
  30:Drivers/STM32C0xx_HAL_Driver/Src/stm32c0xx_hal_rcc.c ****       (+) There is no prescaler on High speed (AHB) and Low speed (APB) busses:
  31:Drivers/STM32C0xx_HAL_Driver/Src/stm32c0xx_hal_rcc.c ****           all peripherals mapped on these busses are running at HSI speed.
  32:Drivers/STM32C0xx_HAL_Driver/Src/stm32c0xx_hal_rcc.c ****       (+) The clock for all peripherals is switched off, except the SRAM and FLASH.
ARM GAS  /var/folders/nl/kwfz41d55ync1k9vlz8wmkc80000gn/T//ccPpmmCA.s 			page 2


  33:Drivers/STM32C0xx_HAL_Driver/Src/stm32c0xx_hal_rcc.c ****       (+) All GPIOs are in analog mode
  34:Drivers/STM32C0xx_HAL_Driver/Src/stm32c0xx_hal_rcc.c **** 
  35:Drivers/STM32C0xx_HAL_Driver/Src/stm32c0xx_hal_rcc.c ****     [..]
  36:Drivers/STM32C0xx_HAL_Driver/Src/stm32c0xx_hal_rcc.c ****       Once the device started from reset, the user application has to:
  37:Drivers/STM32C0xx_HAL_Driver/Src/stm32c0xx_hal_rcc.c ****       (+) Configure the clock source to be used to drive the System clock
  38:Drivers/STM32C0xx_HAL_Driver/Src/stm32c0xx_hal_rcc.c ****           (if the application needs higher frequency/performance)
  39:Drivers/STM32C0xx_HAL_Driver/Src/stm32c0xx_hal_rcc.c ****       (+) Configure the System clock frequency and Flash settings
  40:Drivers/STM32C0xx_HAL_Driver/Src/stm32c0xx_hal_rcc.c ****       (+) Configure the AHB and APB busses prescalers
  41:Drivers/STM32C0xx_HAL_Driver/Src/stm32c0xx_hal_rcc.c ****       (+) Enable the clock for the peripheral(s) to be used
  42:Drivers/STM32C0xx_HAL_Driver/Src/stm32c0xx_hal_rcc.c ****       (+) Configure the clock source(s) for peripherals which clocks are not
  43:Drivers/STM32C0xx_HAL_Driver/Src/stm32c0xx_hal_rcc.c ****           derived from the System clock (RTC, ADC, USART, I2C, I2S)
  44:Drivers/STM32C0xx_HAL_Driver/Src/stm32c0xx_hal_rcc.c **** 
  45:Drivers/STM32C0xx_HAL_Driver/Src/stm32c0xx_hal_rcc.c ****   @endverbatim
  46:Drivers/STM32C0xx_HAL_Driver/Src/stm32c0xx_hal_rcc.c ****   ******************************************************************************
  47:Drivers/STM32C0xx_HAL_Driver/Src/stm32c0xx_hal_rcc.c ****   */
  48:Drivers/STM32C0xx_HAL_Driver/Src/stm32c0xx_hal_rcc.c **** 
  49:Drivers/STM32C0xx_HAL_Driver/Src/stm32c0xx_hal_rcc.c **** /* Includes ------------------------------------------------------------------*/
  50:Drivers/STM32C0xx_HAL_Driver/Src/stm32c0xx_hal_rcc.c **** #include "stm32c0xx_hal.h"
  51:Drivers/STM32C0xx_HAL_Driver/Src/stm32c0xx_hal_rcc.c **** 
  52:Drivers/STM32C0xx_HAL_Driver/Src/stm32c0xx_hal_rcc.c **** /** @addtogroup STM32C0xx_HAL_Driver
  53:Drivers/STM32C0xx_HAL_Driver/Src/stm32c0xx_hal_rcc.c ****   * @{
  54:Drivers/STM32C0xx_HAL_Driver/Src/stm32c0xx_hal_rcc.c ****   */
  55:Drivers/STM32C0xx_HAL_Driver/Src/stm32c0xx_hal_rcc.c **** 
  56:Drivers/STM32C0xx_HAL_Driver/Src/stm32c0xx_hal_rcc.c **** /** @defgroup RCC RCC
  57:Drivers/STM32C0xx_HAL_Driver/Src/stm32c0xx_hal_rcc.c ****   * @brief RCC HAL module driver
  58:Drivers/STM32C0xx_HAL_Driver/Src/stm32c0xx_hal_rcc.c ****   * @{
  59:Drivers/STM32C0xx_HAL_Driver/Src/stm32c0xx_hal_rcc.c ****   */
  60:Drivers/STM32C0xx_HAL_Driver/Src/stm32c0xx_hal_rcc.c **** 
  61:Drivers/STM32C0xx_HAL_Driver/Src/stm32c0xx_hal_rcc.c **** #ifdef HAL_RCC_MODULE_ENABLED
  62:Drivers/STM32C0xx_HAL_Driver/Src/stm32c0xx_hal_rcc.c **** 
  63:Drivers/STM32C0xx_HAL_Driver/Src/stm32c0xx_hal_rcc.c **** /* Private typedef -----------------------------------------------------------*/
  64:Drivers/STM32C0xx_HAL_Driver/Src/stm32c0xx_hal_rcc.c **** /* Private define ------------------------------------------------------------*/
  65:Drivers/STM32C0xx_HAL_Driver/Src/stm32c0xx_hal_rcc.c **** /** @defgroup RCC_Private_Constants RCC Private Constants
  66:Drivers/STM32C0xx_HAL_Driver/Src/stm32c0xx_hal_rcc.c ****   * @{
  67:Drivers/STM32C0xx_HAL_Driver/Src/stm32c0xx_hal_rcc.c ****   */
  68:Drivers/STM32C0xx_HAL_Driver/Src/stm32c0xx_hal_rcc.c **** #define RCC_HSE_TIMEOUT_VALUE          HSE_STARTUP_TIMEOUT
  69:Drivers/STM32C0xx_HAL_Driver/Src/stm32c0xx_hal_rcc.c **** #define RCC_HSI_TIMEOUT_VALUE          (2U)    /* 2 ms (minimum Tick + 1) */
  70:Drivers/STM32C0xx_HAL_Driver/Src/stm32c0xx_hal_rcc.c **** #define RCC_LSI_TIMEOUT_VALUE          (2U)    /* 2 ms (minimum Tick + 1) */
  71:Drivers/STM32C0xx_HAL_Driver/Src/stm32c0xx_hal_rcc.c **** #define RCC_CLOCKSWITCH_TIMEOUT_VALUE  (5000U) /* 5 s    */
  72:Drivers/STM32C0xx_HAL_Driver/Src/stm32c0xx_hal_rcc.c **** 
  73:Drivers/STM32C0xx_HAL_Driver/Src/stm32c0xx_hal_rcc.c **** /**
  74:Drivers/STM32C0xx_HAL_Driver/Src/stm32c0xx_hal_rcc.c ****   * @}
  75:Drivers/STM32C0xx_HAL_Driver/Src/stm32c0xx_hal_rcc.c ****   */
  76:Drivers/STM32C0xx_HAL_Driver/Src/stm32c0xx_hal_rcc.c **** 
  77:Drivers/STM32C0xx_HAL_Driver/Src/stm32c0xx_hal_rcc.c **** /* Private macro -------------------------------------------------------------*/
  78:Drivers/STM32C0xx_HAL_Driver/Src/stm32c0xx_hal_rcc.c **** /** @defgroup RCC_Private_Macros RCC Private Macros
  79:Drivers/STM32C0xx_HAL_Driver/Src/stm32c0xx_hal_rcc.c ****   * @{
  80:Drivers/STM32C0xx_HAL_Driver/Src/stm32c0xx_hal_rcc.c ****   */
  81:Drivers/STM32C0xx_HAL_Driver/Src/stm32c0xx_hal_rcc.c **** #define RCC_GET_MCO_GPIO_PIN(__RCC_MCOx__)   ((__RCC_MCOx__) & GPIO_PIN_MASK)
  82:Drivers/STM32C0xx_HAL_Driver/Src/stm32c0xx_hal_rcc.c **** 
  83:Drivers/STM32C0xx_HAL_Driver/Src/stm32c0xx_hal_rcc.c **** #define RCC_GET_MCO_GPIO_AF(__RCC_MCOx__)    (((__RCC_MCOx__) & RCC_MCO_GPIOAF_MASK) >> RCC_MCO_GPI
  84:Drivers/STM32C0xx_HAL_Driver/Src/stm32c0xx_hal_rcc.c **** 
  85:Drivers/STM32C0xx_HAL_Driver/Src/stm32c0xx_hal_rcc.c **** #define RCC_GET_MCO_GPIO_INDEX(__RCC_MCOx__) (((__RCC_MCOx__) & RCC_MCO_GPIOPORT_MASK) >> RCC_MCO_G
  86:Drivers/STM32C0xx_HAL_Driver/Src/stm32c0xx_hal_rcc.c **** 
  87:Drivers/STM32C0xx_HAL_Driver/Src/stm32c0xx_hal_rcc.c **** #define RCC_GET_MCO_GPIO_PORT(__RCC_MCOx__)  (IOPORT_BASE + ((0x00000400UL) * RCC_GET_MCO_GPIO_INDE
  88:Drivers/STM32C0xx_HAL_Driver/Src/stm32c0xx_hal_rcc.c **** 
  89:Drivers/STM32C0xx_HAL_Driver/Src/stm32c0xx_hal_rcc.c **** /**
ARM GAS  /var/folders/nl/kwfz41d55ync1k9vlz8wmkc80000gn/T//ccPpmmCA.s 			page 3


  90:Drivers/STM32C0xx_HAL_Driver/Src/stm32c0xx_hal_rcc.c ****   * @}
  91:Drivers/STM32C0xx_HAL_Driver/Src/stm32c0xx_hal_rcc.c ****   */
  92:Drivers/STM32C0xx_HAL_Driver/Src/stm32c0xx_hal_rcc.c **** 
  93:Drivers/STM32C0xx_HAL_Driver/Src/stm32c0xx_hal_rcc.c **** /* Private variables ---------------------------------------------------------*/
  94:Drivers/STM32C0xx_HAL_Driver/Src/stm32c0xx_hal_rcc.c **** /** @defgroup RCC_Private_Variables RCC Private Variables
  95:Drivers/STM32C0xx_HAL_Driver/Src/stm32c0xx_hal_rcc.c ****   * @{
  96:Drivers/STM32C0xx_HAL_Driver/Src/stm32c0xx_hal_rcc.c ****   */
  97:Drivers/STM32C0xx_HAL_Driver/Src/stm32c0xx_hal_rcc.c **** 
  98:Drivers/STM32C0xx_HAL_Driver/Src/stm32c0xx_hal_rcc.c **** /**
  99:Drivers/STM32C0xx_HAL_Driver/Src/stm32c0xx_hal_rcc.c ****   * @}
 100:Drivers/STM32C0xx_HAL_Driver/Src/stm32c0xx_hal_rcc.c ****   */
 101:Drivers/STM32C0xx_HAL_Driver/Src/stm32c0xx_hal_rcc.c **** 
 102:Drivers/STM32C0xx_HAL_Driver/Src/stm32c0xx_hal_rcc.c **** /* Private function prototypes -----------------------------------------------*/
 103:Drivers/STM32C0xx_HAL_Driver/Src/stm32c0xx_hal_rcc.c **** /* Exported functions --------------------------------------------------------*/
 104:Drivers/STM32C0xx_HAL_Driver/Src/stm32c0xx_hal_rcc.c **** 
 105:Drivers/STM32C0xx_HAL_Driver/Src/stm32c0xx_hal_rcc.c **** /** @defgroup RCC_Exported_Functions RCC Exported Functions
 106:Drivers/STM32C0xx_HAL_Driver/Src/stm32c0xx_hal_rcc.c ****   * @{
 107:Drivers/STM32C0xx_HAL_Driver/Src/stm32c0xx_hal_rcc.c ****   */
 108:Drivers/STM32C0xx_HAL_Driver/Src/stm32c0xx_hal_rcc.c **** 
 109:Drivers/STM32C0xx_HAL_Driver/Src/stm32c0xx_hal_rcc.c **** /** @defgroup RCC_Exported_Functions_Group1 Initialization and de-initialization functions
 110:Drivers/STM32C0xx_HAL_Driver/Src/stm32c0xx_hal_rcc.c ****   *  @brief    Initialization and Configuration functions
 111:Drivers/STM32C0xx_HAL_Driver/Src/stm32c0xx_hal_rcc.c ****   *
 112:Drivers/STM32C0xx_HAL_Driver/Src/stm32c0xx_hal_rcc.c ****   @verbatim
 113:Drivers/STM32C0xx_HAL_Driver/Src/stm32c0xx_hal_rcc.c ****  ===============================================================================
 114:Drivers/STM32C0xx_HAL_Driver/Src/stm32c0xx_hal_rcc.c ****            ##### Initialization and de-initialization functions #####
 115:Drivers/STM32C0xx_HAL_Driver/Src/stm32c0xx_hal_rcc.c ****  ===============================================================================
 116:Drivers/STM32C0xx_HAL_Driver/Src/stm32c0xx_hal_rcc.c ****     [..]
 117:Drivers/STM32C0xx_HAL_Driver/Src/stm32c0xx_hal_rcc.c ****       This section provides functions allowing to configure the internal and external oscillators
 118:Drivers/STM32C0xx_HAL_Driver/Src/stm32c0xx_hal_rcc.c ****       (HSE, HSI, LSE, LSI, CSS and MCO) and the System busses clocks (SYSCLK, AHB, APB)
 119:Drivers/STM32C0xx_HAL_Driver/Src/stm32c0xx_hal_rcc.c **** 
 120:Drivers/STM32C0xx_HAL_Driver/Src/stm32c0xx_hal_rcc.c ****     [..] Internal/external clock
 121:Drivers/STM32C0xx_HAL_Driver/Src/stm32c0xx_hal_rcc.c ****          (+) HSI (high-speed internal): 48 MHz factory-trimmed RC used directly as System clock sou
 122:Drivers/STM32C0xx_HAL_Driver/Src/stm32c0xx_hal_rcc.c **** 
 123:Drivers/STM32C0xx_HAL_Driver/Src/stm32c0xx_hal_rcc.c ****          (+) LSI (low-speed internal): 32 KHz low consumption RC used as IWDG and/or RTC
 124:Drivers/STM32C0xx_HAL_Driver/Src/stm32c0xx_hal_rcc.c ****              clock source.
 125:Drivers/STM32C0xx_HAL_Driver/Src/stm32c0xx_hal_rcc.c **** 
 126:Drivers/STM32C0xx_HAL_Driver/Src/stm32c0xx_hal_rcc.c ****          (+) HSE (high-speed external): 4 to 48 MHz crystal oscillator used directly or
 127:Drivers/STM32C0xx_HAL_Driver/Src/stm32c0xx_hal_rcc.c ****              through the PLL as System clock source. Can be used also optionally as RTC clock sourc
 128:Drivers/STM32C0xx_HAL_Driver/Src/stm32c0xx_hal_rcc.c **** 
 129:Drivers/STM32C0xx_HAL_Driver/Src/stm32c0xx_hal_rcc.c ****          (+) LSE (low-speed external): 32.768 KHz oscillator used optionally as RTC clock source.
 130:Drivers/STM32C0xx_HAL_Driver/Src/stm32c0xx_hal_rcc.c **** 
 131:Drivers/STM32C0xx_HAL_Driver/Src/stm32c0xx_hal_rcc.c ****          (+) CSS (Clock security system): once enabled, if a HSE or LSE clock failure occurs,
 132:Drivers/STM32C0xx_HAL_Driver/Src/stm32c0xx_hal_rcc.c ****              the System clock is automatically switched respectively to HSI or LSI and an interrupt
 133:Drivers/STM32C0xx_HAL_Driver/Src/stm32c0xx_hal_rcc.c ****              is generated if enabled. The interrupt is linked to the Cortex-M0+ NMI (Non-Maskable I
 134:Drivers/STM32C0xx_HAL_Driver/Src/stm32c0xx_hal_rcc.c ****              exception vector.
 135:Drivers/STM32C0xx_HAL_Driver/Src/stm32c0xx_hal_rcc.c **** 
 136:Drivers/STM32C0xx_HAL_Driver/Src/stm32c0xx_hal_rcc.c ****          (+) MCOx (microcontroller clock output): used to output LSI, HSI, LSE, HSE and SYSCLK on d
 137:Drivers/STM32C0xx_HAL_Driver/Src/stm32c0xx_hal_rcc.c **** 
 138:Drivers/STM32C0xx_HAL_Driver/Src/stm32c0xx_hal_rcc.c ****     [..] System, AHB and APB busses clocks configuration
 139:Drivers/STM32C0xx_HAL_Driver/Src/stm32c0xx_hal_rcc.c ****          (+) Several clock sources can be used to drive the System clock (SYSCLK): HSI,
 140:Drivers/STM32C0xx_HAL_Driver/Src/stm32c0xx_hal_rcc.c ****              HSE, LSI and LSE.
 141:Drivers/STM32C0xx_HAL_Driver/Src/stm32c0xx_hal_rcc.c ****              The AHB clock (HCLK) is derived from System clock through configurable
 142:Drivers/STM32C0xx_HAL_Driver/Src/stm32c0xx_hal_rcc.c ****              prescaler and used to clock the CPU, memory and peripherals mapped
 143:Drivers/STM32C0xx_HAL_Driver/Src/stm32c0xx_hal_rcc.c ****              on AHB bus (DMA, GPIO...).and APB (PCLK1) clock is derived
 144:Drivers/STM32C0xx_HAL_Driver/Src/stm32c0xx_hal_rcc.c ****              from AHB clock through configurable prescalers and used to clock
 145:Drivers/STM32C0xx_HAL_Driver/Src/stm32c0xx_hal_rcc.c ****              the peripherals mapped on these busses. You can use
 146:Drivers/STM32C0xx_HAL_Driver/Src/stm32c0xx_hal_rcc.c ****              "@ref HAL_RCC_GetSysClockFreq()" function to retrieve the frequencies of these clocks.
ARM GAS  /var/folders/nl/kwfz41d55ync1k9vlz8wmkc80000gn/T//ccPpmmCA.s 			page 4


 147:Drivers/STM32C0xx_HAL_Driver/Src/stm32c0xx_hal_rcc.c **** 
 148:Drivers/STM32C0xx_HAL_Driver/Src/stm32c0xx_hal_rcc.c ****          -@- All the peripheral clocks are derived from the System clock (SYSCLK) except:
 149:Drivers/STM32C0xx_HAL_Driver/Src/stm32c0xx_hal_rcc.c **** 
 150:Drivers/STM32C0xx_HAL_Driver/Src/stm32c0xx_hal_rcc.c ****             (+@) RTC: the RTC clock can be derived either from the LSI, LSE or HSE clock
 151:Drivers/STM32C0xx_HAL_Driver/Src/stm32c0xx_hal_rcc.c ****                 divided by 2 to 31.
 152:Drivers/STM32C0xx_HAL_Driver/Src/stm32c0xx_hal_rcc.c ****                 You have to use @ref __HAL_RCC_RTC_ENABLE() and @ref HAL_RCCEx_PeriphCLKConfig() fu
 153:Drivers/STM32C0xx_HAL_Driver/Src/stm32c0xx_hal_rcc.c ****                  to configure this clock.
 154:Drivers/STM32C0xx_HAL_Driver/Src/stm32c0xx_hal_rcc.c **** 
 155:Drivers/STM32C0xx_HAL_Driver/Src/stm32c0xx_hal_rcc.c ****             (+@) ADC: the ADC clock can be derived either from system clock or HSI
 156:Drivers/STM32C0xx_HAL_Driver/Src/stm32c0xx_hal_rcc.c **** 
 157:Drivers/STM32C0xx_HAL_Driver/Src/stm32c0xx_hal_rcc.c ****             (+@) USART: the USART clock can be derived either from APB clock or HSI or LSE
 158:Drivers/STM32C0xx_HAL_Driver/Src/stm32c0xx_hal_rcc.c ****             (+@) I2C: the I2C clock can be derived either from system clock or HSI
 159:Drivers/STM32C0xx_HAL_Driver/Src/stm32c0xx_hal_rcc.c **** 
 160:Drivers/STM32C0xx_HAL_Driver/Src/stm32c0xx_hal_rcc.c ****             (+@) I2S: the I2S clock can be derived either from system clock or HSI or external cloc
 161:Drivers/STM32C0xx_HAL_Driver/Src/stm32c0xx_hal_rcc.c **** 
 162:Drivers/STM32C0xx_HAL_Driver/Src/stm32c0xx_hal_rcc.c ****          (+) The maximum frequency of the SYSCLK, HCLK, PCLK is 48 MHz.
 163:Drivers/STM32C0xx_HAL_Driver/Src/stm32c0xx_hal_rcc.c **** 
 164:Drivers/STM32C0xx_HAL_Driver/Src/stm32c0xx_hal_rcc.c ****   @endverbatim
 165:Drivers/STM32C0xx_HAL_Driver/Src/stm32c0xx_hal_rcc.c **** 
 166:Drivers/STM32C0xx_HAL_Driver/Src/stm32c0xx_hal_rcc.c ****      (++)  Table 1. HCLK clock frequency.
 167:Drivers/STM32C0xx_HAL_Driver/Src/stm32c0xx_hal_rcc.c ****      (++)  +------------------------------------+
 168:Drivers/STM32C0xx_HAL_Driver/Src/stm32c0xx_hal_rcc.c ****      (++)  | Latency         |    HCLK clock    |
 169:Drivers/STM32C0xx_HAL_Driver/Src/stm32c0xx_hal_rcc.c ****      (++)  |                 |  frequency (MHz) |
 170:Drivers/STM32C0xx_HAL_Driver/Src/stm32c0xx_hal_rcc.c ****      (++)  |                 |------------------|
 171:Drivers/STM32C0xx_HAL_Driver/Src/stm32c0xx_hal_rcc.c ****      (++)  |                 | voltage range    |
 172:Drivers/STM32C0xx_HAL_Driver/Src/stm32c0xx_hal_rcc.c ****      (++)  |                 |  VDD33 2V - 3.6V |
 173:Drivers/STM32C0xx_HAL_Driver/Src/stm32c0xx_hal_rcc.c ****      (++)  |                 |  VDD12 1V - 1.32V|
 174:Drivers/STM32C0xx_HAL_Driver/Src/stm32c0xx_hal_rcc.c ****      (++)  |-----------------|------------------|
 175:Drivers/STM32C0xx_HAL_Driver/Src/stm32c0xx_hal_rcc.c ****      (++)  |0WS(1 CPU cycles)|  HCLK <= 24      |
 176:Drivers/STM32C0xx_HAL_Driver/Src/stm32c0xx_hal_rcc.c ****      (++)  |-----------------|------------------|
 177:Drivers/STM32C0xx_HAL_Driver/Src/stm32c0xx_hal_rcc.c ****      (++)  |1WS(2 CPU cycles)|  HCLK <= 48      |
 178:Drivers/STM32C0xx_HAL_Driver/Src/stm32c0xx_hal_rcc.c ****      (++)  +------------------------------------+
 179:Drivers/STM32C0xx_HAL_Driver/Src/stm32c0xx_hal_rcc.c ****      (++)
 180:Drivers/STM32C0xx_HAL_Driver/Src/stm32c0xx_hal_rcc.c ****    * @{
 181:Drivers/STM32C0xx_HAL_Driver/Src/stm32c0xx_hal_rcc.c ****   */
 182:Drivers/STM32C0xx_HAL_Driver/Src/stm32c0xx_hal_rcc.c **** 
 183:Drivers/STM32C0xx_HAL_Driver/Src/stm32c0xx_hal_rcc.c **** /**
 184:Drivers/STM32C0xx_HAL_Driver/Src/stm32c0xx_hal_rcc.c ****   * @brief  Reset the RCC clock configuration to the default reset state.
 185:Drivers/STM32C0xx_HAL_Driver/Src/stm32c0xx_hal_rcc.c ****   * @note   The default reset state of the clock configuration is given below:
 186:Drivers/STM32C0xx_HAL_Driver/Src/stm32c0xx_hal_rcc.c ****   *            - HSI ON and used as system clock source
 187:Drivers/STM32C0xx_HAL_Driver/Src/stm32c0xx_hal_rcc.c ****   *            - HSE OFF
 188:Drivers/STM32C0xx_HAL_Driver/Src/stm32c0xx_hal_rcc.c ****   *            - AHB and APB prescaler set to 1.
 189:Drivers/STM32C0xx_HAL_Driver/Src/stm32c0xx_hal_rcc.c ****   *            - CSS, MCO1, MCO2 OFF
 190:Drivers/STM32C0xx_HAL_Driver/Src/stm32c0xx_hal_rcc.c ****   *            - All interrupts disabled
 191:Drivers/STM32C0xx_HAL_Driver/Src/stm32c0xx_hal_rcc.c ****   * @note   This function does not modify the configuration of the
 192:Drivers/STM32C0xx_HAL_Driver/Src/stm32c0xx_hal_rcc.c ****   *            - Peripheral clocks
 193:Drivers/STM32C0xx_HAL_Driver/Src/stm32c0xx_hal_rcc.c ****   *            - LSI, LSE and RTC clocks
 194:Drivers/STM32C0xx_HAL_Driver/Src/stm32c0xx_hal_rcc.c ****   * @retval HAL status
 195:Drivers/STM32C0xx_HAL_Driver/Src/stm32c0xx_hal_rcc.c ****   */
 196:Drivers/STM32C0xx_HAL_Driver/Src/stm32c0xx_hal_rcc.c **** HAL_StatusTypeDef HAL_RCC_DeInit(void)
 197:Drivers/STM32C0xx_HAL_Driver/Src/stm32c0xx_hal_rcc.c **** {
  27              		.loc 1 197 1 view -0
  28              		.cfi_startproc
  29              		@ args = 0, pretend = 0, frame = 0
  30              		@ frame_needed = 0, uses_anonymous_args = 0
  31 0000 70B5     		push	{r4, r5, r6, lr}
  32              	.LCFI0:
ARM GAS  /var/folders/nl/kwfz41d55ync1k9vlz8wmkc80000gn/T//ccPpmmCA.s 			page 5


  33              		.cfi_def_cfa_offset 16
  34              		.cfi_offset 4, -16
  35              		.cfi_offset 5, -12
  36              		.cfi_offset 6, -8
  37              		.cfi_offset 14, -4
 198:Drivers/STM32C0xx_HAL_Driver/Src/stm32c0xx_hal_rcc.c ****   uint32_t tickstart;
  38              		.loc 1 198 3 view .LVU1
 199:Drivers/STM32C0xx_HAL_Driver/Src/stm32c0xx_hal_rcc.c **** 
 200:Drivers/STM32C0xx_HAL_Driver/Src/stm32c0xx_hal_rcc.c ****   /* Get Start Tick*/
 201:Drivers/STM32C0xx_HAL_Driver/Src/stm32c0xx_hal_rcc.c ****   tickstart = HAL_GetTick();
  39              		.loc 1 201 3 view .LVU2
  40              		.loc 1 201 15 is_stmt 0 view .LVU3
  41 0002 FFF7FEFF 		bl	HAL_GetTick
  42              	.LVL0:
  43 0006 0400     		movs	r4, r0
  44              	.LVL1:
 202:Drivers/STM32C0xx_HAL_Driver/Src/stm32c0xx_hal_rcc.c **** 
 203:Drivers/STM32C0xx_HAL_Driver/Src/stm32c0xx_hal_rcc.c ****   /* Set HSION bit to the reset value */
 204:Drivers/STM32C0xx_HAL_Driver/Src/stm32c0xx_hal_rcc.c ****   SET_BIT(RCC->CR, RCC_CR_HSION);
  45              		.loc 1 204 3 is_stmt 1 view .LVU4
  46 0008 264A     		ldr	r2, .L15
  47 000a 1168     		ldr	r1, [r2]
  48 000c 8023     		movs	r3, #128
  49 000e 5B00     		lsls	r3, r3, #1
  50 0010 0B43     		orrs	r3, r1
  51 0012 1360     		str	r3, [r2]
 205:Drivers/STM32C0xx_HAL_Driver/Src/stm32c0xx_hal_rcc.c **** 
 206:Drivers/STM32C0xx_HAL_Driver/Src/stm32c0xx_hal_rcc.c ****   /* Wait till HSI is ready */
 207:Drivers/STM32C0xx_HAL_Driver/Src/stm32c0xx_hal_rcc.c ****   while (READ_BIT(RCC->CR, RCC_CR_HSIRDY) == 0U)
  52              		.loc 1 207 3 view .LVU5
  53              	.LVL2:
  54              	.L2:
  55              		.loc 1 207 9 view .LVU6
  56              		.loc 1 207 10 is_stmt 0 view .LVU7
  57 0014 234B     		ldr	r3, .L15
  58 0016 1B68     		ldr	r3, [r3]
  59              		.loc 1 207 9 view .LVU8
  60 0018 5B05     		lsls	r3, r3, #21
  61 001a 06D4     		bmi	.L12
 208:Drivers/STM32C0xx_HAL_Driver/Src/stm32c0xx_hal_rcc.c ****   {
 209:Drivers/STM32C0xx_HAL_Driver/Src/stm32c0xx_hal_rcc.c ****     if ((HAL_GetTick() - tickstart) > RCC_HSI_TIMEOUT_VALUE)
  62              		.loc 1 209 5 is_stmt 1 view .LVU9
  63              		.loc 1 209 10 is_stmt 0 view .LVU10
  64 001c FFF7FEFF 		bl	HAL_GetTick
  65              	.LVL3:
  66              		.loc 1 209 24 view .LVU11
  67 0020 001B     		subs	r0, r0, r4
  68              		.loc 1 209 8 view .LVU12
  69 0022 0228     		cmp	r0, #2
  70 0024 F6D9     		bls	.L2
 210:Drivers/STM32C0xx_HAL_Driver/Src/stm32c0xx_hal_rcc.c ****     {
 211:Drivers/STM32C0xx_HAL_Driver/Src/stm32c0xx_hal_rcc.c ****       return HAL_TIMEOUT;
  71              		.loc 1 211 14 view .LVU13
  72 0026 0320     		movs	r0, #3
  73              	.L3:
 212:Drivers/STM32C0xx_HAL_Driver/Src/stm32c0xx_hal_rcc.c ****     }
 213:Drivers/STM32C0xx_HAL_Driver/Src/stm32c0xx_hal_rcc.c ****   }
ARM GAS  /var/folders/nl/kwfz41d55ync1k9vlz8wmkc80000gn/T//ccPpmmCA.s 			page 6


 214:Drivers/STM32C0xx_HAL_Driver/Src/stm32c0xx_hal_rcc.c **** 
 215:Drivers/STM32C0xx_HAL_Driver/Src/stm32c0xx_hal_rcc.c ****   /* Set HSITRIM[6:0] bits to the reset value */
 216:Drivers/STM32C0xx_HAL_Driver/Src/stm32c0xx_hal_rcc.c ****   RCC->ICSCR = RCC_ICSCR_HSITRIM_6;
 217:Drivers/STM32C0xx_HAL_Driver/Src/stm32c0xx_hal_rcc.c **** 
 218:Drivers/STM32C0xx_HAL_Driver/Src/stm32c0xx_hal_rcc.c ****   /* Get Start Tick*/
 219:Drivers/STM32C0xx_HAL_Driver/Src/stm32c0xx_hal_rcc.c ****   tickstart = HAL_GetTick();
 220:Drivers/STM32C0xx_HAL_Driver/Src/stm32c0xx_hal_rcc.c **** 
 221:Drivers/STM32C0xx_HAL_Driver/Src/stm32c0xx_hal_rcc.c ****   /* Reset CFGR register (HSI is selected as system clock source) */
 222:Drivers/STM32C0xx_HAL_Driver/Src/stm32c0xx_hal_rcc.c ****   RCC->CFGR = 0x00000000u;
 223:Drivers/STM32C0xx_HAL_Driver/Src/stm32c0xx_hal_rcc.c **** 
 224:Drivers/STM32C0xx_HAL_Driver/Src/stm32c0xx_hal_rcc.c ****   /* Wait till HSI is ready */
 225:Drivers/STM32C0xx_HAL_Driver/Src/stm32c0xx_hal_rcc.c ****   while (READ_BIT(RCC->CFGR, RCC_CFGR_SWS) != 0U)
 226:Drivers/STM32C0xx_HAL_Driver/Src/stm32c0xx_hal_rcc.c ****   {
 227:Drivers/STM32C0xx_HAL_Driver/Src/stm32c0xx_hal_rcc.c ****     if ((HAL_GetTick() - tickstart) > RCC_CLOCKSWITCH_TIMEOUT_VALUE)
 228:Drivers/STM32C0xx_HAL_Driver/Src/stm32c0xx_hal_rcc.c ****     {
 229:Drivers/STM32C0xx_HAL_Driver/Src/stm32c0xx_hal_rcc.c ****       return HAL_TIMEOUT;
 230:Drivers/STM32C0xx_HAL_Driver/Src/stm32c0xx_hal_rcc.c ****     }
 231:Drivers/STM32C0xx_HAL_Driver/Src/stm32c0xx_hal_rcc.c ****   }
 232:Drivers/STM32C0xx_HAL_Driver/Src/stm32c0xx_hal_rcc.c **** 
 233:Drivers/STM32C0xx_HAL_Driver/Src/stm32c0xx_hal_rcc.c ****   /* Get Start Tick*/
 234:Drivers/STM32C0xx_HAL_Driver/Src/stm32c0xx_hal_rcc.c ****   tickstart = HAL_GetTick();
 235:Drivers/STM32C0xx_HAL_Driver/Src/stm32c0xx_hal_rcc.c **** 
 236:Drivers/STM32C0xx_HAL_Driver/Src/stm32c0xx_hal_rcc.c ****   /* Clear CR register in 2 steps: first to clear HSEON in case bypass was enabled */
 237:Drivers/STM32C0xx_HAL_Driver/Src/stm32c0xx_hal_rcc.c ****   RCC->CR &= ~RCC_CR_HSEON;
 238:Drivers/STM32C0xx_HAL_Driver/Src/stm32c0xx_hal_rcc.c **** 
 239:Drivers/STM32C0xx_HAL_Driver/Src/stm32c0xx_hal_rcc.c ****   /* Wait till HSEON is disabled */
 240:Drivers/STM32C0xx_HAL_Driver/Src/stm32c0xx_hal_rcc.c ****   while (READ_BIT(RCC->CR, RCC_CR_HSERDY) != 0U)
 241:Drivers/STM32C0xx_HAL_Driver/Src/stm32c0xx_hal_rcc.c ****   {
 242:Drivers/STM32C0xx_HAL_Driver/Src/stm32c0xx_hal_rcc.c ****     if ((HAL_GetTick() - tickstart) > RCC_HSE_TIMEOUT_VALUE)
 243:Drivers/STM32C0xx_HAL_Driver/Src/stm32c0xx_hal_rcc.c ****     {
 244:Drivers/STM32C0xx_HAL_Driver/Src/stm32c0xx_hal_rcc.c ****       return HAL_TIMEOUT;
 245:Drivers/STM32C0xx_HAL_Driver/Src/stm32c0xx_hal_rcc.c ****     }
 246:Drivers/STM32C0xx_HAL_Driver/Src/stm32c0xx_hal_rcc.c ****   }
 247:Drivers/STM32C0xx_HAL_Driver/Src/stm32c0xx_hal_rcc.c **** 
 248:Drivers/STM32C0xx_HAL_Driver/Src/stm32c0xx_hal_rcc.c ****   /* Then again to HSEBYP in case bypass was enabled */
 249:Drivers/STM32C0xx_HAL_Driver/Src/stm32c0xx_hal_rcc.c ****   RCC->CR &= ~RCC_CR_HSEBYP;
 250:Drivers/STM32C0xx_HAL_Driver/Src/stm32c0xx_hal_rcc.c **** 
 251:Drivers/STM32C0xx_HAL_Driver/Src/stm32c0xx_hal_rcc.c ****   /* Disable all interrupts */
 252:Drivers/STM32C0xx_HAL_Driver/Src/stm32c0xx_hal_rcc.c ****   RCC->CIER = 0x00000000u;
 253:Drivers/STM32C0xx_HAL_Driver/Src/stm32c0xx_hal_rcc.c **** 
 254:Drivers/STM32C0xx_HAL_Driver/Src/stm32c0xx_hal_rcc.c ****   /* Clear all flags */
 255:Drivers/STM32C0xx_HAL_Driver/Src/stm32c0xx_hal_rcc.c ****   RCC->CICR = 0xFFFFFFFFu;
 256:Drivers/STM32C0xx_HAL_Driver/Src/stm32c0xx_hal_rcc.c **** 
 257:Drivers/STM32C0xx_HAL_Driver/Src/stm32c0xx_hal_rcc.c ****   /* Update the SystemCoreClock global variable */
 258:Drivers/STM32C0xx_HAL_Driver/Src/stm32c0xx_hal_rcc.c ****   SystemCoreClock = HSI_VALUE;
 259:Drivers/STM32C0xx_HAL_Driver/Src/stm32c0xx_hal_rcc.c **** 
 260:Drivers/STM32C0xx_HAL_Driver/Src/stm32c0xx_hal_rcc.c ****   /* Adapt Systick interrupt period */
 261:Drivers/STM32C0xx_HAL_Driver/Src/stm32c0xx_hal_rcc.c ****   if (HAL_InitTick(uwTickPrio) != HAL_OK)
 262:Drivers/STM32C0xx_HAL_Driver/Src/stm32c0xx_hal_rcc.c ****   {
 263:Drivers/STM32C0xx_HAL_Driver/Src/stm32c0xx_hal_rcc.c ****     return HAL_ERROR;
 264:Drivers/STM32C0xx_HAL_Driver/Src/stm32c0xx_hal_rcc.c ****   }
 265:Drivers/STM32C0xx_HAL_Driver/Src/stm32c0xx_hal_rcc.c ****   else
 266:Drivers/STM32C0xx_HAL_Driver/Src/stm32c0xx_hal_rcc.c ****   {
 267:Drivers/STM32C0xx_HAL_Driver/Src/stm32c0xx_hal_rcc.c ****     return HAL_OK;
 268:Drivers/STM32C0xx_HAL_Driver/Src/stm32c0xx_hal_rcc.c ****   }
 269:Drivers/STM32C0xx_HAL_Driver/Src/stm32c0xx_hal_rcc.c **** }
  74              		.loc 1 269 1 view .LVU14
ARM GAS  /var/folders/nl/kwfz41d55ync1k9vlz8wmkc80000gn/T//ccPpmmCA.s 			page 7


  75              		@ sp needed
  76              	.LVL4:
  77              		.loc 1 269 1 view .LVU15
  78 0028 70BD     		pop	{r4, r5, r6, pc}
  79              	.LVL5:
  80              	.L12:
 216:Drivers/STM32C0xx_HAL_Driver/Src/stm32c0xx_hal_rcc.c **** 
  81              		.loc 1 216 3 is_stmt 1 view .LVU16
 216:Drivers/STM32C0xx_HAL_Driver/Src/stm32c0xx_hal_rcc.c **** 
  82              		.loc 1 216 14 is_stmt 0 view .LVU17
  83 002a 1E4D     		ldr	r5, .L15
  84 002c 8023     		movs	r3, #128
  85 002e DB01     		lsls	r3, r3, #7
  86 0030 6B60     		str	r3, [r5, #4]
 219:Drivers/STM32C0xx_HAL_Driver/Src/stm32c0xx_hal_rcc.c **** 
  87              		.loc 1 219 3 is_stmt 1 view .LVU18
 219:Drivers/STM32C0xx_HAL_Driver/Src/stm32c0xx_hal_rcc.c **** 
  88              		.loc 1 219 15 is_stmt 0 view .LVU19
  89 0032 FFF7FEFF 		bl	HAL_GetTick
  90              	.LVL6:
  91 0036 0400     		movs	r4, r0
  92              	.LVL7:
 222:Drivers/STM32C0xx_HAL_Driver/Src/stm32c0xx_hal_rcc.c **** 
  93              		.loc 1 222 3 is_stmt 1 view .LVU20
 222:Drivers/STM32C0xx_HAL_Driver/Src/stm32c0xx_hal_rcc.c **** 
  94              		.loc 1 222 13 is_stmt 0 view .LVU21
  95 0038 0023     		movs	r3, #0
  96 003a AB60     		str	r3, [r5, #8]
 225:Drivers/STM32C0xx_HAL_Driver/Src/stm32c0xx_hal_rcc.c ****   {
  97              		.loc 1 225 3 is_stmt 1 view .LVU22
  98              	.LVL8:
  99              	.L5:
 225:Drivers/STM32C0xx_HAL_Driver/Src/stm32c0xx_hal_rcc.c ****   {
 100              		.loc 1 225 9 view .LVU23
 225:Drivers/STM32C0xx_HAL_Driver/Src/stm32c0xx_hal_rcc.c ****   {
 101              		.loc 1 225 10 is_stmt 0 view .LVU24
 102 003c 194B     		ldr	r3, .L15
 103 003e 9B68     		ldr	r3, [r3, #8]
 104 0040 3822     		movs	r2, #56
 225:Drivers/STM32C0xx_HAL_Driver/Src/stm32c0xx_hal_rcc.c ****   {
 105              		.loc 1 225 9 view .LVU25
 106 0042 1A42     		tst	r2, r3
 107 0044 07D0     		beq	.L13
 227:Drivers/STM32C0xx_HAL_Driver/Src/stm32c0xx_hal_rcc.c ****     {
 108              		.loc 1 227 5 is_stmt 1 view .LVU26
 227:Drivers/STM32C0xx_HAL_Driver/Src/stm32c0xx_hal_rcc.c ****     {
 109              		.loc 1 227 10 is_stmt 0 view .LVU27
 110 0046 FFF7FEFF 		bl	HAL_GetTick
 111              	.LVL9:
 227:Drivers/STM32C0xx_HAL_Driver/Src/stm32c0xx_hal_rcc.c ****     {
 112              		.loc 1 227 24 view .LVU28
 113 004a 001B     		subs	r0, r0, r4
 227:Drivers/STM32C0xx_HAL_Driver/Src/stm32c0xx_hal_rcc.c ****     {
 114              		.loc 1 227 8 view .LVU29
 115 004c 164B     		ldr	r3, .L15+4
 116 004e 9842     		cmp	r0, r3
 117 0050 F4D9     		bls	.L5
ARM GAS  /var/folders/nl/kwfz41d55ync1k9vlz8wmkc80000gn/T//ccPpmmCA.s 			page 8


 229:Drivers/STM32C0xx_HAL_Driver/Src/stm32c0xx_hal_rcc.c ****     }
 118              		.loc 1 229 14 view .LVU30
 119 0052 0320     		movs	r0, #3
 120 0054 E8E7     		b	.L3
 121              	.L13:
 234:Drivers/STM32C0xx_HAL_Driver/Src/stm32c0xx_hal_rcc.c **** 
 122              		.loc 1 234 3 is_stmt 1 view .LVU31
 234:Drivers/STM32C0xx_HAL_Driver/Src/stm32c0xx_hal_rcc.c **** 
 123              		.loc 1 234 15 is_stmt 0 view .LVU32
 124 0056 FFF7FEFF 		bl	HAL_GetTick
 125              	.LVL10:
 126 005a 0400     		movs	r4, r0
 127              	.LVL11:
 237:Drivers/STM32C0xx_HAL_Driver/Src/stm32c0xx_hal_rcc.c **** 
 128              		.loc 1 237 3 is_stmt 1 view .LVU33
 237:Drivers/STM32C0xx_HAL_Driver/Src/stm32c0xx_hal_rcc.c **** 
 129              		.loc 1 237 11 is_stmt 0 view .LVU34
 130 005c 114A     		ldr	r2, .L15
 131 005e 1368     		ldr	r3, [r2]
 132 0060 1249     		ldr	r1, .L15+8
 133 0062 0B40     		ands	r3, r1
 134 0064 1360     		str	r3, [r2]
 240:Drivers/STM32C0xx_HAL_Driver/Src/stm32c0xx_hal_rcc.c ****   {
 135              		.loc 1 240 3 is_stmt 1 view .LVU35
 136              	.LVL12:
 137              	.L7:
 240:Drivers/STM32C0xx_HAL_Driver/Src/stm32c0xx_hal_rcc.c ****   {
 138              		.loc 1 240 9 view .LVU36
 240:Drivers/STM32C0xx_HAL_Driver/Src/stm32c0xx_hal_rcc.c ****   {
 139              		.loc 1 240 10 is_stmt 0 view .LVU37
 140 0066 0F4B     		ldr	r3, .L15
 141 0068 1B68     		ldr	r3, [r3]
 240:Drivers/STM32C0xx_HAL_Driver/Src/stm32c0xx_hal_rcc.c ****   {
 142              		.loc 1 240 9 view .LVU38
 143 006a 9B03     		lsls	r3, r3, #14
 144 006c 06D5     		bpl	.L14
 242:Drivers/STM32C0xx_HAL_Driver/Src/stm32c0xx_hal_rcc.c ****     {
 145              		.loc 1 242 5 is_stmt 1 view .LVU39
 242:Drivers/STM32C0xx_HAL_Driver/Src/stm32c0xx_hal_rcc.c ****     {
 146              		.loc 1 242 10 is_stmt 0 view .LVU40
 147 006e FFF7FEFF 		bl	HAL_GetTick
 148              	.LVL13:
 242:Drivers/STM32C0xx_HAL_Driver/Src/stm32c0xx_hal_rcc.c ****     {
 149              		.loc 1 242 24 view .LVU41
 150 0072 001B     		subs	r0, r0, r4
 242:Drivers/STM32C0xx_HAL_Driver/Src/stm32c0xx_hal_rcc.c ****     {
 151              		.loc 1 242 8 view .LVU42
 152 0074 6428     		cmp	r0, #100
 153 0076 F6D9     		bls	.L7
 244:Drivers/STM32C0xx_HAL_Driver/Src/stm32c0xx_hal_rcc.c ****     }
 154              		.loc 1 244 14 view .LVU43
 155 0078 0320     		movs	r0, #3
 156 007a D5E7     		b	.L3
 157              	.L14:
 249:Drivers/STM32C0xx_HAL_Driver/Src/stm32c0xx_hal_rcc.c **** 
 158              		.loc 1 249 3 is_stmt 1 view .LVU44
 249:Drivers/STM32C0xx_HAL_Driver/Src/stm32c0xx_hal_rcc.c **** 
ARM GAS  /var/folders/nl/kwfz41d55ync1k9vlz8wmkc80000gn/T//ccPpmmCA.s 			page 9


 159              		.loc 1 249 11 is_stmt 0 view .LVU45
 160 007c 094B     		ldr	r3, .L15
 161 007e 1A68     		ldr	r2, [r3]
 162 0080 0B49     		ldr	r1, .L15+12
 163 0082 0A40     		ands	r2, r1
 164 0084 1A60     		str	r2, [r3]
 252:Drivers/STM32C0xx_HAL_Driver/Src/stm32c0xx_hal_rcc.c **** 
 165              		.loc 1 252 3 is_stmt 1 view .LVU46
 252:Drivers/STM32C0xx_HAL_Driver/Src/stm32c0xx_hal_rcc.c **** 
 166              		.loc 1 252 13 is_stmt 0 view .LVU47
 167 0086 0022     		movs	r2, #0
 168 0088 9A61     		str	r2, [r3, #24]
 255:Drivers/STM32C0xx_HAL_Driver/Src/stm32c0xx_hal_rcc.c **** 
 169              		.loc 1 255 3 is_stmt 1 view .LVU48
 255:Drivers/STM32C0xx_HAL_Driver/Src/stm32c0xx_hal_rcc.c **** 
 170              		.loc 1 255 13 is_stmt 0 view .LVU49
 171 008a 013A     		subs	r2, r2, #1
 172 008c 1A62     		str	r2, [r3, #32]
 258:Drivers/STM32C0xx_HAL_Driver/Src/stm32c0xx_hal_rcc.c **** 
 173              		.loc 1 258 3 is_stmt 1 view .LVU50
 258:Drivers/STM32C0xx_HAL_Driver/Src/stm32c0xx_hal_rcc.c **** 
 174              		.loc 1 258 19 is_stmt 0 view .LVU51
 175 008e 094B     		ldr	r3, .L15+16
 176 0090 094A     		ldr	r2, .L15+20
 177 0092 1A60     		str	r2, [r3]
 261:Drivers/STM32C0xx_HAL_Driver/Src/stm32c0xx_hal_rcc.c ****   {
 178              		.loc 1 261 3 is_stmt 1 view .LVU52
 261:Drivers/STM32C0xx_HAL_Driver/Src/stm32c0xx_hal_rcc.c ****   {
 179              		.loc 1 261 7 is_stmt 0 view .LVU53
 180 0094 094B     		ldr	r3, .L15+24
 181 0096 1868     		ldr	r0, [r3]
 182 0098 FFF7FEFF 		bl	HAL_InitTick
 183              	.LVL14:
 261:Drivers/STM32C0xx_HAL_Driver/Src/stm32c0xx_hal_rcc.c ****   {
 184              		.loc 1 261 6 view .LVU54
 185 009c 0028     		cmp	r0, #0
 186 009e C3D0     		beq	.L3
 263:Drivers/STM32C0xx_HAL_Driver/Src/stm32c0xx_hal_rcc.c ****   }
 187              		.loc 1 263 12 view .LVU55
 188 00a0 0120     		movs	r0, #1
 189 00a2 C1E7     		b	.L3
 190              	.L16:
 191              		.align	2
 192              	.L15:
 193 00a4 00100240 		.word	1073876992
 194 00a8 88130000 		.word	5000
 195 00ac FFFFFEFF 		.word	-65537
 196 00b0 FFFFFBFF 		.word	-262145
 197 00b4 00000000 		.word	SystemCoreClock
 198 00b8 006CDC02 		.word	48000000
 199 00bc 00000000 		.word	uwTickPrio
 200              		.cfi_endproc
 201              	.LFE214:
 203              		.section	.text.HAL_RCC_OscConfig,"ax",%progbits
 204              		.align	1
 205              		.global	HAL_RCC_OscConfig
 206              		.syntax unified
ARM GAS  /var/folders/nl/kwfz41d55ync1k9vlz8wmkc80000gn/T//ccPpmmCA.s 			page 10


 207              		.code	16
 208              		.thumb_func
 210              	HAL_RCC_OscConfig:
 211              	.LVL15:
 212              	.LFB215:
 270:Drivers/STM32C0xx_HAL_Driver/Src/stm32c0xx_hal_rcc.c **** 
 271:Drivers/STM32C0xx_HAL_Driver/Src/stm32c0xx_hal_rcc.c **** /**
 272:Drivers/STM32C0xx_HAL_Driver/Src/stm32c0xx_hal_rcc.c ****   * @brief  Initialize the RCC Oscillators according to the specified parameters in the
 273:Drivers/STM32C0xx_HAL_Driver/Src/stm32c0xx_hal_rcc.c ****   *         @ref RCC_OscInitTypeDef.
 274:Drivers/STM32C0xx_HAL_Driver/Src/stm32c0xx_hal_rcc.c ****   * @param  RCC_OscInitStruct pointer to a @ref RCC_OscInitTypeDef structure that
 275:Drivers/STM32C0xx_HAL_Driver/Src/stm32c0xx_hal_rcc.c ****   *         contains the configuration information for the RCC Oscillators.
 276:Drivers/STM32C0xx_HAL_Driver/Src/stm32c0xx_hal_rcc.c ****   * @note   Transition HSE Bypass to HSE On and HSE On to HSE Bypass are not
 277:Drivers/STM32C0xx_HAL_Driver/Src/stm32c0xx_hal_rcc.c ****   *         supported by this function. User should request a transition to HSE Off
 278:Drivers/STM32C0xx_HAL_Driver/Src/stm32c0xx_hal_rcc.c ****   *         first and then to HSE On or HSE Bypass.
 279:Drivers/STM32C0xx_HAL_Driver/Src/stm32c0xx_hal_rcc.c ****   * @note   Transition LSE Bypass to LSE On and LSE On to LSE Bypass are not
 280:Drivers/STM32C0xx_HAL_Driver/Src/stm32c0xx_hal_rcc.c ****   *         supported by this function. User should request a transition to LSE Off
 281:Drivers/STM32C0xx_HAL_Driver/Src/stm32c0xx_hal_rcc.c ****   *         first and then to LSE On or LSE Bypass.
 282:Drivers/STM32C0xx_HAL_Driver/Src/stm32c0xx_hal_rcc.c ****   * @retval HAL status
 283:Drivers/STM32C0xx_HAL_Driver/Src/stm32c0xx_hal_rcc.c ****   */
 284:Drivers/STM32C0xx_HAL_Driver/Src/stm32c0xx_hal_rcc.c **** HAL_StatusTypeDef HAL_RCC_OscConfig(const RCC_OscInitTypeDef  *RCC_OscInitStruct)
 285:Drivers/STM32C0xx_HAL_Driver/Src/stm32c0xx_hal_rcc.c **** {
 213              		.loc 1 285 1 is_stmt 1 view -0
 214              		.cfi_startproc
 215              		@ args = 0, pretend = 0, frame = 0
 216              		@ frame_needed = 0, uses_anonymous_args = 0
 217              		.loc 1 285 1 is_stmt 0 view .LVU57
 218 0000 70B5     		push	{r4, r5, r6, lr}
 219              	.LCFI1:
 220              		.cfi_def_cfa_offset 16
 221              		.cfi_offset 4, -16
 222              		.cfi_offset 5, -12
 223              		.cfi_offset 6, -8
 224              		.cfi_offset 14, -4
 225 0002 041E     		subs	r4, r0, #0
 286:Drivers/STM32C0xx_HAL_Driver/Src/stm32c0xx_hal_rcc.c ****   uint32_t tickstart;
 226              		.loc 1 286 3 is_stmt 1 view .LVU58
 287:Drivers/STM32C0xx_HAL_Driver/Src/stm32c0xx_hal_rcc.c ****   uint32_t temp_sysclksrc;
 227              		.loc 1 287 3 view .LVU59
 288:Drivers/STM32C0xx_HAL_Driver/Src/stm32c0xx_hal_rcc.c **** 
 289:Drivers/STM32C0xx_HAL_Driver/Src/stm32c0xx_hal_rcc.c ****   /* Check Null pointer */
 290:Drivers/STM32C0xx_HAL_Driver/Src/stm32c0xx_hal_rcc.c ****   if (RCC_OscInitStruct == NULL)
 228              		.loc 1 290 3 view .LVU60
 229              		.loc 1 290 6 is_stmt 0 view .LVU61
 230 0004 00D1     		bne	.LCB182
 231 0006 39E1     		b	.L52	@long jump
 232              	.LCB182:
 291:Drivers/STM32C0xx_HAL_Driver/Src/stm32c0xx_hal_rcc.c ****   {
 292:Drivers/STM32C0xx_HAL_Driver/Src/stm32c0xx_hal_rcc.c ****     return HAL_ERROR;
 293:Drivers/STM32C0xx_HAL_Driver/Src/stm32c0xx_hal_rcc.c ****   }
 294:Drivers/STM32C0xx_HAL_Driver/Src/stm32c0xx_hal_rcc.c **** 
 295:Drivers/STM32C0xx_HAL_Driver/Src/stm32c0xx_hal_rcc.c ****   /* Check the parameters */
 296:Drivers/STM32C0xx_HAL_Driver/Src/stm32c0xx_hal_rcc.c ****   assert_param(IS_RCC_OSCILLATORTYPE(RCC_OscInitStruct->OscillatorType));
 233              		.loc 1 296 3 is_stmt 1 view .LVU62
 297:Drivers/STM32C0xx_HAL_Driver/Src/stm32c0xx_hal_rcc.c **** 
 298:Drivers/STM32C0xx_HAL_Driver/Src/stm32c0xx_hal_rcc.c ****   /*------------------------------- HSE Configuration ------------------------*/
 299:Drivers/STM32C0xx_HAL_Driver/Src/stm32c0xx_hal_rcc.c ****   if (((RCC_OscInitStruct->OscillatorType) & RCC_OSCILLATORTYPE_HSE) == RCC_OSCILLATORTYPE_HSE)
 234              		.loc 1 299 3 view .LVU63
ARM GAS  /var/folders/nl/kwfz41d55ync1k9vlz8wmkc80000gn/T//ccPpmmCA.s 			page 11


 235              		.loc 1 299 6 is_stmt 0 view .LVU64
 236 0008 0368     		ldr	r3, [r0]
 237 000a DB07     		lsls	r3, r3, #31
 238 000c 2CD5     		bpl	.L19
 300:Drivers/STM32C0xx_HAL_Driver/Src/stm32c0xx_hal_rcc.c ****   {
 301:Drivers/STM32C0xx_HAL_Driver/Src/stm32c0xx_hal_rcc.c ****     /* Check the parameters */
 302:Drivers/STM32C0xx_HAL_Driver/Src/stm32c0xx_hal_rcc.c ****     assert_param(IS_RCC_HSE(RCC_OscInitStruct->HSEState));
 239              		.loc 1 302 5 is_stmt 1 view .LVU65
 303:Drivers/STM32C0xx_HAL_Driver/Src/stm32c0xx_hal_rcc.c **** 
 304:Drivers/STM32C0xx_HAL_Driver/Src/stm32c0xx_hal_rcc.c ****     temp_sysclksrc = __HAL_RCC_GET_SYSCLK_SOURCE();
 240              		.loc 1 304 5 view .LVU66
 241              		.loc 1 304 22 is_stmt 0 view .LVU67
 242 000e A14B     		ldr	r3, .L81
 243 0010 9A68     		ldr	r2, [r3, #8]
 244              		.loc 1 304 20 view .LVU68
 245 0012 3823     		movs	r3, #56
 246 0014 1340     		ands	r3, r2
 247              	.LVL16:
 305:Drivers/STM32C0xx_HAL_Driver/Src/stm32c0xx_hal_rcc.c **** 
 306:Drivers/STM32C0xx_HAL_Driver/Src/stm32c0xx_hal_rcc.c ****     /* When the HSE is used as system clock in these cases it is not allowed to be disabled */
 307:Drivers/STM32C0xx_HAL_Driver/Src/stm32c0xx_hal_rcc.c ****     if (temp_sysclksrc == RCC_CFGR_SWS_HSE)
 248              		.loc 1 307 5 is_stmt 1 view .LVU69
 249              		.loc 1 307 8 is_stmt 0 view .LVU70
 250 0016 082B     		cmp	r3, #8
 251 0018 22D0     		beq	.L67
 308:Drivers/STM32C0xx_HAL_Driver/Src/stm32c0xx_hal_rcc.c ****     {
 309:Drivers/STM32C0xx_HAL_Driver/Src/stm32c0xx_hal_rcc.c ****       if (RCC_OscInitStruct->HSEState == RCC_HSE_OFF)
 310:Drivers/STM32C0xx_HAL_Driver/Src/stm32c0xx_hal_rcc.c ****       {
 311:Drivers/STM32C0xx_HAL_Driver/Src/stm32c0xx_hal_rcc.c ****         return HAL_ERROR;
 312:Drivers/STM32C0xx_HAL_Driver/Src/stm32c0xx_hal_rcc.c ****       }
 313:Drivers/STM32C0xx_HAL_Driver/Src/stm32c0xx_hal_rcc.c ****     }
 314:Drivers/STM32C0xx_HAL_Driver/Src/stm32c0xx_hal_rcc.c ****     else
 315:Drivers/STM32C0xx_HAL_Driver/Src/stm32c0xx_hal_rcc.c ****     {
 316:Drivers/STM32C0xx_HAL_Driver/Src/stm32c0xx_hal_rcc.c ****       /* Set the new HSE configuration ---------------------------------------*/
 317:Drivers/STM32C0xx_HAL_Driver/Src/stm32c0xx_hal_rcc.c ****       __HAL_RCC_HSE_CONFIG(RCC_OscInitStruct->HSEState);
 252              		.loc 1 317 7 is_stmt 1 view .LVU71
 253              		.loc 1 317 7 view .LVU72
 254 001a 4368     		ldr	r3, [r0, #4]
 255              	.LVL17:
 256              		.loc 1 317 7 is_stmt 0 view .LVU73
 257 001c 8022     		movs	r2, #128
 258              	.LVL18:
 259              		.loc 1 317 7 view .LVU74
 260 001e 5202     		lsls	r2, r2, #9
 261 0020 9342     		cmp	r3, r2
 262 0022 2ED0     		beq	.L68
 263              		.loc 1 317 7 is_stmt 1 discriminator 2 view .LVU75
 264 0024 A022     		movs	r2, #160
 265 0026 D202     		lsls	r2, r2, #11
 266 0028 9342     		cmp	r3, r2
 267 002a 31D0     		beq	.L69
 268              		.loc 1 317 7 discriminator 5 view .LVU76
 269 002c 994B     		ldr	r3, .L81
 270 002e 1A68     		ldr	r2, [r3]
 271 0030 9949     		ldr	r1, .L81+4
 272 0032 0A40     		ands	r2, r1
 273 0034 1A60     		str	r2, [r3]
ARM GAS  /var/folders/nl/kwfz41d55ync1k9vlz8wmkc80000gn/T//ccPpmmCA.s 			page 12


 274              		.loc 1 317 7 discriminator 5 view .LVU77
 275 0036 1A68     		ldr	r2, [r3]
 276 0038 9849     		ldr	r1, .L81+8
 277 003a 0A40     		ands	r2, r1
 278 003c 1A60     		str	r2, [r3]
 279              	.L22:
 280              		.loc 1 317 7 discriminator 7 view .LVU78
 318:Drivers/STM32C0xx_HAL_Driver/Src/stm32c0xx_hal_rcc.c **** 
 319:Drivers/STM32C0xx_HAL_Driver/Src/stm32c0xx_hal_rcc.c ****       /* Check the HSE State */
 320:Drivers/STM32C0xx_HAL_Driver/Src/stm32c0xx_hal_rcc.c ****       if (RCC_OscInitStruct->HSEState != RCC_HSE_OFF)
 281              		.loc 1 320 7 discriminator 7 view .LVU79
 282              		.loc 1 320 10 is_stmt 0 discriminator 7 view .LVU80
 283 003e 6368     		ldr	r3, [r4, #4]
 284 0040 002B     		cmp	r3, #0
 285 0042 31D0     		beq	.L24
 321:Drivers/STM32C0xx_HAL_Driver/Src/stm32c0xx_hal_rcc.c ****       {
 322:Drivers/STM32C0xx_HAL_Driver/Src/stm32c0xx_hal_rcc.c ****         /* Get Start Tick*/
 323:Drivers/STM32C0xx_HAL_Driver/Src/stm32c0xx_hal_rcc.c ****         tickstart = HAL_GetTick();
 286              		.loc 1 323 9 is_stmt 1 view .LVU81
 287              		.loc 1 323 21 is_stmt 0 view .LVU82
 288 0044 FFF7FEFF 		bl	HAL_GetTick
 289              	.LVL19:
 290              		.loc 1 323 21 view .LVU83
 291 0048 0500     		movs	r5, r0
 292              	.LVL20:
 324:Drivers/STM32C0xx_HAL_Driver/Src/stm32c0xx_hal_rcc.c **** 
 325:Drivers/STM32C0xx_HAL_Driver/Src/stm32c0xx_hal_rcc.c ****         /* Wait till HSE is ready */
 326:Drivers/STM32C0xx_HAL_Driver/Src/stm32c0xx_hal_rcc.c ****         while (READ_BIT(RCC->CR, RCC_CR_HSERDY) == 0U)
 293              		.loc 1 326 9 is_stmt 1 view .LVU84
 294              	.L25:
 295              		.loc 1 326 15 view .LVU85
 296              		.loc 1 326 16 is_stmt 0 view .LVU86
 297 004a 924B     		ldr	r3, .L81
 298 004c 1B68     		ldr	r3, [r3]
 299              		.loc 1 326 15 view .LVU87
 300 004e 9B03     		lsls	r3, r3, #14
 301 0050 0AD4     		bmi	.L19
 327:Drivers/STM32C0xx_HAL_Driver/Src/stm32c0xx_hal_rcc.c ****         {
 328:Drivers/STM32C0xx_HAL_Driver/Src/stm32c0xx_hal_rcc.c ****           if ((HAL_GetTick() - tickstart) > RCC_HSE_TIMEOUT_VALUE)
 302              		.loc 1 328 11 is_stmt 1 view .LVU88
 303              		.loc 1 328 16 is_stmt 0 view .LVU89
 304 0052 FFF7FEFF 		bl	HAL_GetTick
 305              	.LVL21:
 306              		.loc 1 328 30 view .LVU90
 307 0056 401B     		subs	r0, r0, r5
 308              		.loc 1 328 14 view .LVU91
 309 0058 6428     		cmp	r0, #100
 310 005a F6D9     		bls	.L25
 329:Drivers/STM32C0xx_HAL_Driver/Src/stm32c0xx_hal_rcc.c ****           {
 330:Drivers/STM32C0xx_HAL_Driver/Src/stm32c0xx_hal_rcc.c ****             return HAL_TIMEOUT;
 311              		.loc 1 330 20 view .LVU92
 312 005c 0320     		movs	r0, #3
 313 005e 0EE1     		b	.L18
 314              	.LVL22:
 315              	.L67:
 309:Drivers/STM32C0xx_HAL_Driver/Src/stm32c0xx_hal_rcc.c ****       {
 316              		.loc 1 309 7 is_stmt 1 view .LVU93
ARM GAS  /var/folders/nl/kwfz41d55ync1k9vlz8wmkc80000gn/T//ccPpmmCA.s 			page 13


 309:Drivers/STM32C0xx_HAL_Driver/Src/stm32c0xx_hal_rcc.c ****       {
 317              		.loc 1 309 10 is_stmt 0 view .LVU94
 318 0060 4368     		ldr	r3, [r0, #4]
 319              	.LVL23:
 309:Drivers/STM32C0xx_HAL_Driver/Src/stm32c0xx_hal_rcc.c ****       {
 320              		.loc 1 309 10 view .LVU95
 321 0062 002B     		cmp	r3, #0
 322 0064 00D1     		bne	.LCB269
 323 0066 0BE1     		b	.L70	@long jump
 324              	.LCB269:
 325              	.LVL24:
 326              	.L19:
 331:Drivers/STM32C0xx_HAL_Driver/Src/stm32c0xx_hal_rcc.c ****           }
 332:Drivers/STM32C0xx_HAL_Driver/Src/stm32c0xx_hal_rcc.c ****         }
 333:Drivers/STM32C0xx_HAL_Driver/Src/stm32c0xx_hal_rcc.c ****       }
 334:Drivers/STM32C0xx_HAL_Driver/Src/stm32c0xx_hal_rcc.c ****       else
 335:Drivers/STM32C0xx_HAL_Driver/Src/stm32c0xx_hal_rcc.c ****       {
 336:Drivers/STM32C0xx_HAL_Driver/Src/stm32c0xx_hal_rcc.c ****         /* Get Start Tick*/
 337:Drivers/STM32C0xx_HAL_Driver/Src/stm32c0xx_hal_rcc.c ****         tickstart = HAL_GetTick();
 338:Drivers/STM32C0xx_HAL_Driver/Src/stm32c0xx_hal_rcc.c **** 
 339:Drivers/STM32C0xx_HAL_Driver/Src/stm32c0xx_hal_rcc.c ****         /* Wait till HSE is disabled */
 340:Drivers/STM32C0xx_HAL_Driver/Src/stm32c0xx_hal_rcc.c ****         while (READ_BIT(RCC->CR, RCC_CR_HSERDY) != 0U)
 341:Drivers/STM32C0xx_HAL_Driver/Src/stm32c0xx_hal_rcc.c ****         {
 342:Drivers/STM32C0xx_HAL_Driver/Src/stm32c0xx_hal_rcc.c ****           if ((HAL_GetTick() - tickstart) > RCC_HSE_TIMEOUT_VALUE)
 343:Drivers/STM32C0xx_HAL_Driver/Src/stm32c0xx_hal_rcc.c ****           {
 344:Drivers/STM32C0xx_HAL_Driver/Src/stm32c0xx_hal_rcc.c ****             return HAL_TIMEOUT;
 345:Drivers/STM32C0xx_HAL_Driver/Src/stm32c0xx_hal_rcc.c ****           }
 346:Drivers/STM32C0xx_HAL_Driver/Src/stm32c0xx_hal_rcc.c ****         }
 347:Drivers/STM32C0xx_HAL_Driver/Src/stm32c0xx_hal_rcc.c ****       }
 348:Drivers/STM32C0xx_HAL_Driver/Src/stm32c0xx_hal_rcc.c ****     }
 349:Drivers/STM32C0xx_HAL_Driver/Src/stm32c0xx_hal_rcc.c ****   }
 350:Drivers/STM32C0xx_HAL_Driver/Src/stm32c0xx_hal_rcc.c ****   /*----------------------------- HSI Configuration --------------------------*/
 351:Drivers/STM32C0xx_HAL_Driver/Src/stm32c0xx_hal_rcc.c ****   if (((RCC_OscInitStruct->OscillatorType) & RCC_OSCILLATORTYPE_HSI) == RCC_OSCILLATORTYPE_HSI)
 327              		.loc 1 351 3 is_stmt 1 view .LVU96
 328              		.loc 1 351 6 is_stmt 0 view .LVU97
 329 0068 2368     		ldr	r3, [r4]
 330 006a 9B07     		lsls	r3, r3, #30
 331 006c 47D5     		bpl	.L29
 352:Drivers/STM32C0xx_HAL_Driver/Src/stm32c0xx_hal_rcc.c ****   {
 353:Drivers/STM32C0xx_HAL_Driver/Src/stm32c0xx_hal_rcc.c ****     /* Check the parameters */
 354:Drivers/STM32C0xx_HAL_Driver/Src/stm32c0xx_hal_rcc.c ****     assert_param(IS_RCC_HSI(RCC_OscInitStruct->HSIState));
 332              		.loc 1 354 5 is_stmt 1 view .LVU98
 355:Drivers/STM32C0xx_HAL_Driver/Src/stm32c0xx_hal_rcc.c ****     assert_param(IS_RCC_HSI_CALIBRATION_VALUE(RCC_OscInitStruct->HSICalibrationValue));
 333              		.loc 1 355 5 view .LVU99
 356:Drivers/STM32C0xx_HAL_Driver/Src/stm32c0xx_hal_rcc.c ****     assert_param(IS_RCC_HSIDIV(RCC_OscInitStruct->HSIDiv));
 334              		.loc 1 356 5 view .LVU100
 357:Drivers/STM32C0xx_HAL_Driver/Src/stm32c0xx_hal_rcc.c **** 
 358:Drivers/STM32C0xx_HAL_Driver/Src/stm32c0xx_hal_rcc.c ****     /* Check if HSI48 is used as system clock  */
 359:Drivers/STM32C0xx_HAL_Driver/Src/stm32c0xx_hal_rcc.c ****     temp_sysclksrc = __HAL_RCC_GET_SYSCLK_SOURCE();
 335              		.loc 1 359 5 view .LVU101
 336              		.loc 1 359 22 is_stmt 0 view .LVU102
 337 006e 894B     		ldr	r3, .L81
 338 0070 9B68     		ldr	r3, [r3, #8]
 339              		.loc 1 359 20 view .LVU103
 340 0072 3822     		movs	r2, #56
 341              	.LVL25:
 360:Drivers/STM32C0xx_HAL_Driver/Src/stm32c0xx_hal_rcc.c **** 
ARM GAS  /var/folders/nl/kwfz41d55ync1k9vlz8wmkc80000gn/T//ccPpmmCA.s 			page 14


 361:Drivers/STM32C0xx_HAL_Driver/Src/stm32c0xx_hal_rcc.c ****     if (temp_sysclksrc == RCC_CFGR_SWS_HSI)
 342              		.loc 1 361 5 is_stmt 1 view .LVU104
 343              		.loc 1 361 8 is_stmt 0 view .LVU105
 344 0074 1A42     		tst	r2, r3
 345 0076 61D1     		bne	.L30
 362:Drivers/STM32C0xx_HAL_Driver/Src/stm32c0xx_hal_rcc.c ****     {
 363:Drivers/STM32C0xx_HAL_Driver/Src/stm32c0xx_hal_rcc.c ****       /* When HSI is used as system clock it can not be disabled */
 364:Drivers/STM32C0xx_HAL_Driver/Src/stm32c0xx_hal_rcc.c ****       if (RCC_OscInitStruct->HSIState == RCC_HSI_OFF)
 346              		.loc 1 364 7 is_stmt 1 view .LVU106
 347              		.loc 1 364 10 is_stmt 0 view .LVU107
 348 0078 E368     		ldr	r3, [r4, #12]
 349              	.LVL26:
 350              		.loc 1 364 10 view .LVU108
 351 007a 002B     		cmp	r3, #0
 352 007c 22D1     		bne	.L71
 365:Drivers/STM32C0xx_HAL_Driver/Src/stm32c0xx_hal_rcc.c ****       {
 366:Drivers/STM32C0xx_HAL_Driver/Src/stm32c0xx_hal_rcc.c ****         return HAL_ERROR;
 353              		.loc 1 366 16 view .LVU109
 354 007e 0120     		movs	r0, #1
 355 0080 FDE0     		b	.L18
 356              	.LVL27:
 357              	.L68:
 317:Drivers/STM32C0xx_HAL_Driver/Src/stm32c0xx_hal_rcc.c **** 
 358              		.loc 1 317 7 is_stmt 1 discriminator 1 view .LVU110
 359 0082 844A     		ldr	r2, .L81
 360 0084 1168     		ldr	r1, [r2]
 361 0086 8023     		movs	r3, #128
 362 0088 5B02     		lsls	r3, r3, #9
 363 008a 0B43     		orrs	r3, r1
 364 008c 1360     		str	r3, [r2]
 365 008e D6E7     		b	.L22
 366              	.L69:
 317:Drivers/STM32C0xx_HAL_Driver/Src/stm32c0xx_hal_rcc.c **** 
 367              		.loc 1 317 7 discriminator 4 view .LVU111
 368 0090 804B     		ldr	r3, .L81
 369 0092 1968     		ldr	r1, [r3]
 370 0094 8022     		movs	r2, #128
 371 0096 D202     		lsls	r2, r2, #11
 372 0098 0A43     		orrs	r2, r1
 373 009a 1A60     		str	r2, [r3]
 317:Drivers/STM32C0xx_HAL_Driver/Src/stm32c0xx_hal_rcc.c **** 
 374              		.loc 1 317 7 discriminator 4 view .LVU112
 375 009c 1968     		ldr	r1, [r3]
 376 009e 8022     		movs	r2, #128
 377 00a0 5202     		lsls	r2, r2, #9
 378 00a2 0A43     		orrs	r2, r1
 379 00a4 1A60     		str	r2, [r3]
 380 00a6 CAE7     		b	.L22
 381              	.L24:
 337:Drivers/STM32C0xx_HAL_Driver/Src/stm32c0xx_hal_rcc.c **** 
 382              		.loc 1 337 9 view .LVU113
 337:Drivers/STM32C0xx_HAL_Driver/Src/stm32c0xx_hal_rcc.c **** 
 383              		.loc 1 337 21 is_stmt 0 view .LVU114
 384 00a8 FFF7FEFF 		bl	HAL_GetTick
 385              	.LVL28:
 337:Drivers/STM32C0xx_HAL_Driver/Src/stm32c0xx_hal_rcc.c **** 
 386              		.loc 1 337 21 view .LVU115
ARM GAS  /var/folders/nl/kwfz41d55ync1k9vlz8wmkc80000gn/T//ccPpmmCA.s 			page 15


 387 00ac 0500     		movs	r5, r0
 388              	.LVL29:
 340:Drivers/STM32C0xx_HAL_Driver/Src/stm32c0xx_hal_rcc.c ****         {
 389              		.loc 1 340 9 is_stmt 1 view .LVU116
 390              	.L27:
 340:Drivers/STM32C0xx_HAL_Driver/Src/stm32c0xx_hal_rcc.c ****         {
 391              		.loc 1 340 15 view .LVU117
 340:Drivers/STM32C0xx_HAL_Driver/Src/stm32c0xx_hal_rcc.c ****         {
 392              		.loc 1 340 16 is_stmt 0 view .LVU118
 393 00ae 794B     		ldr	r3, .L81
 394 00b0 1B68     		ldr	r3, [r3]
 340:Drivers/STM32C0xx_HAL_Driver/Src/stm32c0xx_hal_rcc.c ****         {
 395              		.loc 1 340 15 view .LVU119
 396 00b2 9B03     		lsls	r3, r3, #14
 397 00b4 D8D5     		bpl	.L19
 342:Drivers/STM32C0xx_HAL_Driver/Src/stm32c0xx_hal_rcc.c ****           {
 398              		.loc 1 342 11 is_stmt 1 view .LVU120
 342:Drivers/STM32C0xx_HAL_Driver/Src/stm32c0xx_hal_rcc.c ****           {
 399              		.loc 1 342 16 is_stmt 0 view .LVU121
 400 00b6 FFF7FEFF 		bl	HAL_GetTick
 401              	.LVL30:
 342:Drivers/STM32C0xx_HAL_Driver/Src/stm32c0xx_hal_rcc.c ****           {
 402              		.loc 1 342 30 view .LVU122
 403 00ba 401B     		subs	r0, r0, r5
 342:Drivers/STM32C0xx_HAL_Driver/Src/stm32c0xx_hal_rcc.c ****           {
 404              		.loc 1 342 14 view .LVU123
 405 00bc 6428     		cmp	r0, #100
 406 00be F6D9     		bls	.L27
 344:Drivers/STM32C0xx_HAL_Driver/Src/stm32c0xx_hal_rcc.c ****           }
 407              		.loc 1 344 20 view .LVU124
 408 00c0 0320     		movs	r0, #3
 409 00c2 DCE0     		b	.L18
 410              	.LVL31:
 411              	.L71:
 367:Drivers/STM32C0xx_HAL_Driver/Src/stm32c0xx_hal_rcc.c ****       }
 368:Drivers/STM32C0xx_HAL_Driver/Src/stm32c0xx_hal_rcc.c ****       /* Otherwise, just the calibration is allowed */
 369:Drivers/STM32C0xx_HAL_Driver/Src/stm32c0xx_hal_rcc.c ****       else
 370:Drivers/STM32C0xx_HAL_Driver/Src/stm32c0xx_hal_rcc.c ****       {
 371:Drivers/STM32C0xx_HAL_Driver/Src/stm32c0xx_hal_rcc.c ****         /* Adjusts the Internal High Speed oscillator (HSI) calibration value.*/
 372:Drivers/STM32C0xx_HAL_Driver/Src/stm32c0xx_hal_rcc.c ****         __HAL_RCC_HSI_CALIBRATIONVALUE_ADJUST(RCC_OscInitStruct->HSICalibrationValue);
 412              		.loc 1 372 9 is_stmt 1 view .LVU125
 413 00c4 734B     		ldr	r3, .L81
 414 00c6 5A68     		ldr	r2, [r3, #4]
 415              		.loc 1 372 9 is_stmt 0 view .LVU126
 416 00c8 7549     		ldr	r1, .L81+12
 417 00ca 0A40     		ands	r2, r1
 418 00cc 6169     		ldr	r1, [r4, #20]
 419 00ce 0902     		lsls	r1, r1, #8
 420 00d0 0A43     		orrs	r2, r1
 421 00d2 5A60     		str	r2, [r3, #4]
 373:Drivers/STM32C0xx_HAL_Driver/Src/stm32c0xx_hal_rcc.c **** 
 374:Drivers/STM32C0xx_HAL_Driver/Src/stm32c0xx_hal_rcc.c ****         if (temp_sysclksrc == RCC_CFGR_SWS_HSI)
 422              		.loc 1 374 9 is_stmt 1 view .LVU127
 375:Drivers/STM32C0xx_HAL_Driver/Src/stm32c0xx_hal_rcc.c ****         {
 376:Drivers/STM32C0xx_HAL_Driver/Src/stm32c0xx_hal_rcc.c ****           /* Adjust the HSI48 division factor */
 377:Drivers/STM32C0xx_HAL_Driver/Src/stm32c0xx_hal_rcc.c ****           __HAL_RCC_HSI_CONFIG(RCC_OscInitStruct->HSIDiv);
 423              		.loc 1 377 11 view .LVU128
ARM GAS  /var/folders/nl/kwfz41d55ync1k9vlz8wmkc80000gn/T//ccPpmmCA.s 			page 16


 424 00d4 1A68     		ldr	r2, [r3]
 425 00d6 7349     		ldr	r1, .L81+16
 426 00d8 0A40     		ands	r2, r1
 427 00da 2169     		ldr	r1, [r4, #16]
 428 00dc 0A43     		orrs	r2, r1
 429 00de 1A60     		str	r2, [r3]
 378:Drivers/STM32C0xx_HAL_Driver/Src/stm32c0xx_hal_rcc.c **** 
 379:Drivers/STM32C0xx_HAL_Driver/Src/stm32c0xx_hal_rcc.c ****           /* Update the SystemCoreClock global variable with HSISYS value  */
 380:Drivers/STM32C0xx_HAL_Driver/Src/stm32c0xx_hal_rcc.c ****           SystemCoreClock = (HSI_VALUE / (1UL << ((READ_BIT(RCC->CR, RCC_CR_HSIDIV)) >> RCC_CR_HSID
 430              		.loc 1 380 11 view .LVU129
 431              		.loc 1 380 52 is_stmt 0 view .LVU130
 432 00e0 1B68     		ldr	r3, [r3]
 433              		.loc 1 380 86 view .LVU131
 434 00e2 DB0A     		lsrs	r3, r3, #11
 435 00e4 0722     		movs	r2, #7
 436 00e6 1A40     		ands	r2, r3
 437              		.loc 1 380 40 view .LVU132
 438 00e8 6F4B     		ldr	r3, .L81+20
 439 00ea D340     		lsrs	r3, r3, r2
 440              		.loc 1 380 27 view .LVU133
 441 00ec 6F4A     		ldr	r2, .L81+24
 442 00ee 1360     		str	r3, [r2]
 381:Drivers/STM32C0xx_HAL_Driver/Src/stm32c0xx_hal_rcc.c ****         }
 382:Drivers/STM32C0xx_HAL_Driver/Src/stm32c0xx_hal_rcc.c **** 
 383:Drivers/STM32C0xx_HAL_Driver/Src/stm32c0xx_hal_rcc.c ****         /* Adapt Systick interrupt period */
 384:Drivers/STM32C0xx_HAL_Driver/Src/stm32c0xx_hal_rcc.c ****         if (HAL_InitTick(uwTickPrio) != HAL_OK)
 443              		.loc 1 384 9 is_stmt 1 view .LVU134
 444              		.loc 1 384 13 is_stmt 0 view .LVU135
 445 00f0 6F4B     		ldr	r3, .L81+28
 446 00f2 1868     		ldr	r0, [r3]
 447 00f4 FFF7FEFF 		bl	HAL_InitTick
 448              	.LVL32:
 449              		.loc 1 384 12 view .LVU136
 450 00f8 0028     		cmp	r0, #0
 451 00fa 00D0     		beq	.LCB399
 452 00fc C2E0     		b	.L72	@long jump
 453              	.LCB399:
 454              	.L29:
 385:Drivers/STM32C0xx_HAL_Driver/Src/stm32c0xx_hal_rcc.c ****         {
 386:Drivers/STM32C0xx_HAL_Driver/Src/stm32c0xx_hal_rcc.c ****           return HAL_ERROR;
 387:Drivers/STM32C0xx_HAL_Driver/Src/stm32c0xx_hal_rcc.c ****         }
 388:Drivers/STM32C0xx_HAL_Driver/Src/stm32c0xx_hal_rcc.c ****       }
 389:Drivers/STM32C0xx_HAL_Driver/Src/stm32c0xx_hal_rcc.c ****     }
 390:Drivers/STM32C0xx_HAL_Driver/Src/stm32c0xx_hal_rcc.c ****     else
 391:Drivers/STM32C0xx_HAL_Driver/Src/stm32c0xx_hal_rcc.c ****     {
 392:Drivers/STM32C0xx_HAL_Driver/Src/stm32c0xx_hal_rcc.c ****       /* Check the HSI State */
 393:Drivers/STM32C0xx_HAL_Driver/Src/stm32c0xx_hal_rcc.c ****       if (RCC_OscInitStruct->HSIState != RCC_HSI_OFF)
 394:Drivers/STM32C0xx_HAL_Driver/Src/stm32c0xx_hal_rcc.c ****       {
 395:Drivers/STM32C0xx_HAL_Driver/Src/stm32c0xx_hal_rcc.c ****         /* Configure the HSI48 division factor */
 396:Drivers/STM32C0xx_HAL_Driver/Src/stm32c0xx_hal_rcc.c ****         __HAL_RCC_HSI_CONFIG(RCC_OscInitStruct->HSIDiv);
 397:Drivers/STM32C0xx_HAL_Driver/Src/stm32c0xx_hal_rcc.c **** 
 398:Drivers/STM32C0xx_HAL_Driver/Src/stm32c0xx_hal_rcc.c ****         /* Enable the Internal High Speed oscillator (HSI48). */
 399:Drivers/STM32C0xx_HAL_Driver/Src/stm32c0xx_hal_rcc.c ****         __HAL_RCC_HSI_ENABLE();
 400:Drivers/STM32C0xx_HAL_Driver/Src/stm32c0xx_hal_rcc.c **** 
 401:Drivers/STM32C0xx_HAL_Driver/Src/stm32c0xx_hal_rcc.c ****         /* Get Start Tick*/
 402:Drivers/STM32C0xx_HAL_Driver/Src/stm32c0xx_hal_rcc.c ****         tickstart = HAL_GetTick();
 403:Drivers/STM32C0xx_HAL_Driver/Src/stm32c0xx_hal_rcc.c **** 
ARM GAS  /var/folders/nl/kwfz41d55ync1k9vlz8wmkc80000gn/T//ccPpmmCA.s 			page 17


 404:Drivers/STM32C0xx_HAL_Driver/Src/stm32c0xx_hal_rcc.c ****         /* Wait till HSI is ready */
 405:Drivers/STM32C0xx_HAL_Driver/Src/stm32c0xx_hal_rcc.c ****         while (READ_BIT(RCC->CR, RCC_CR_HSIRDY) == 0U)
 406:Drivers/STM32C0xx_HAL_Driver/Src/stm32c0xx_hal_rcc.c ****         {
 407:Drivers/STM32C0xx_HAL_Driver/Src/stm32c0xx_hal_rcc.c ****           if ((HAL_GetTick() - tickstart) > RCC_HSI_TIMEOUT_VALUE)
 408:Drivers/STM32C0xx_HAL_Driver/Src/stm32c0xx_hal_rcc.c ****           {
 409:Drivers/STM32C0xx_HAL_Driver/Src/stm32c0xx_hal_rcc.c ****             return HAL_TIMEOUT;
 410:Drivers/STM32C0xx_HAL_Driver/Src/stm32c0xx_hal_rcc.c ****           }
 411:Drivers/STM32C0xx_HAL_Driver/Src/stm32c0xx_hal_rcc.c ****         }
 412:Drivers/STM32C0xx_HAL_Driver/Src/stm32c0xx_hal_rcc.c **** 
 413:Drivers/STM32C0xx_HAL_Driver/Src/stm32c0xx_hal_rcc.c ****         /* Adjusts the Internal High Speed oscillator (HSI) calibration value.*/
 414:Drivers/STM32C0xx_HAL_Driver/Src/stm32c0xx_hal_rcc.c ****         __HAL_RCC_HSI_CALIBRATIONVALUE_ADJUST(RCC_OscInitStruct->HSICalibrationValue);
 415:Drivers/STM32C0xx_HAL_Driver/Src/stm32c0xx_hal_rcc.c ****       }
 416:Drivers/STM32C0xx_HAL_Driver/Src/stm32c0xx_hal_rcc.c ****       else
 417:Drivers/STM32C0xx_HAL_Driver/Src/stm32c0xx_hal_rcc.c ****       {
 418:Drivers/STM32C0xx_HAL_Driver/Src/stm32c0xx_hal_rcc.c ****         /* Disable the Internal High Speed oscillator (HSI48). */
 419:Drivers/STM32C0xx_HAL_Driver/Src/stm32c0xx_hal_rcc.c ****         __HAL_RCC_HSI_DISABLE();
 420:Drivers/STM32C0xx_HAL_Driver/Src/stm32c0xx_hal_rcc.c **** 
 421:Drivers/STM32C0xx_HAL_Driver/Src/stm32c0xx_hal_rcc.c ****         /* Get Start Tick*/
 422:Drivers/STM32C0xx_HAL_Driver/Src/stm32c0xx_hal_rcc.c ****         tickstart = HAL_GetTick();
 423:Drivers/STM32C0xx_HAL_Driver/Src/stm32c0xx_hal_rcc.c **** 
 424:Drivers/STM32C0xx_HAL_Driver/Src/stm32c0xx_hal_rcc.c ****         /* Wait till HSI is disabled */
 425:Drivers/STM32C0xx_HAL_Driver/Src/stm32c0xx_hal_rcc.c ****         while (READ_BIT(RCC->CR, RCC_CR_HSIRDY) != 0U)
 426:Drivers/STM32C0xx_HAL_Driver/Src/stm32c0xx_hal_rcc.c ****         {
 427:Drivers/STM32C0xx_HAL_Driver/Src/stm32c0xx_hal_rcc.c ****           if ((HAL_GetTick() - tickstart) > RCC_HSI_TIMEOUT_VALUE)
 428:Drivers/STM32C0xx_HAL_Driver/Src/stm32c0xx_hal_rcc.c ****           {
 429:Drivers/STM32C0xx_HAL_Driver/Src/stm32c0xx_hal_rcc.c ****             return HAL_TIMEOUT;
 430:Drivers/STM32C0xx_HAL_Driver/Src/stm32c0xx_hal_rcc.c ****           }
 431:Drivers/STM32C0xx_HAL_Driver/Src/stm32c0xx_hal_rcc.c ****         }
 432:Drivers/STM32C0xx_HAL_Driver/Src/stm32c0xx_hal_rcc.c ****       }
 433:Drivers/STM32C0xx_HAL_Driver/Src/stm32c0xx_hal_rcc.c ****     }
 434:Drivers/STM32C0xx_HAL_Driver/Src/stm32c0xx_hal_rcc.c ****   }
 435:Drivers/STM32C0xx_HAL_Driver/Src/stm32c0xx_hal_rcc.c ****   /*------------------------------ LSI Configuration -------------------------*/
 436:Drivers/STM32C0xx_HAL_Driver/Src/stm32c0xx_hal_rcc.c ****   if (((RCC_OscInitStruct->OscillatorType) & RCC_OSCILLATORTYPE_LSI) == RCC_OSCILLATORTYPE_LSI)
 455              		.loc 1 436 3 is_stmt 1 view .LVU137
 456              		.loc 1 436 6 is_stmt 0 view .LVU138
 457 00fe 2368     		ldr	r3, [r4]
 458 0100 1B07     		lsls	r3, r3, #28
 459 0102 57D5     		bpl	.L36
 437:Drivers/STM32C0xx_HAL_Driver/Src/stm32c0xx_hal_rcc.c ****   {
 438:Drivers/STM32C0xx_HAL_Driver/Src/stm32c0xx_hal_rcc.c ****     /* Check the parameters */
 439:Drivers/STM32C0xx_HAL_Driver/Src/stm32c0xx_hal_rcc.c ****     assert_param(IS_RCC_LSI(RCC_OscInitStruct->LSIState));
 460              		.loc 1 439 5 is_stmt 1 view .LVU139
 440:Drivers/STM32C0xx_HAL_Driver/Src/stm32c0xx_hal_rcc.c **** 
 441:Drivers/STM32C0xx_HAL_Driver/Src/stm32c0xx_hal_rcc.c ****     /* Check if LSI is used as system clock */
 442:Drivers/STM32C0xx_HAL_Driver/Src/stm32c0xx_hal_rcc.c ****     if (__HAL_RCC_GET_SYSCLK_SOURCE() == RCC_CFGR_SWS_LSI)
 461              		.loc 1 442 5 view .LVU140
 462              		.loc 1 442 9 is_stmt 0 view .LVU141
 463 0104 634B     		ldr	r3, .L81
 464 0106 9A68     		ldr	r2, [r3, #8]
 465 0108 3823     		movs	r3, #56
 466 010a 1340     		ands	r3, r2
 467              		.loc 1 442 8 view .LVU142
 468 010c 182B     		cmp	r3, #24
 469 010e 4ED0     		beq	.L73
 443:Drivers/STM32C0xx_HAL_Driver/Src/stm32c0xx_hal_rcc.c ****     {
 444:Drivers/STM32C0xx_HAL_Driver/Src/stm32c0xx_hal_rcc.c ****       /* When LSI is used as system clock it will not be disabled */
 445:Drivers/STM32C0xx_HAL_Driver/Src/stm32c0xx_hal_rcc.c ****       if (RCC_OscInitStruct->LSIState == RCC_LSI_OFF)
ARM GAS  /var/folders/nl/kwfz41d55ync1k9vlz8wmkc80000gn/T//ccPpmmCA.s 			page 18


 446:Drivers/STM32C0xx_HAL_Driver/Src/stm32c0xx_hal_rcc.c ****       {
 447:Drivers/STM32C0xx_HAL_Driver/Src/stm32c0xx_hal_rcc.c ****         return HAL_ERROR;
 448:Drivers/STM32C0xx_HAL_Driver/Src/stm32c0xx_hal_rcc.c ****       }
 449:Drivers/STM32C0xx_HAL_Driver/Src/stm32c0xx_hal_rcc.c ****     }
 450:Drivers/STM32C0xx_HAL_Driver/Src/stm32c0xx_hal_rcc.c ****     else
 451:Drivers/STM32C0xx_HAL_Driver/Src/stm32c0xx_hal_rcc.c ****     {
 452:Drivers/STM32C0xx_HAL_Driver/Src/stm32c0xx_hal_rcc.c ****       /* Check the LSI State */
 453:Drivers/STM32C0xx_HAL_Driver/Src/stm32c0xx_hal_rcc.c ****       if (RCC_OscInitStruct->LSIState != RCC_LSI_OFF)
 470              		.loc 1 453 7 is_stmt 1 view .LVU143
 471              		.loc 1 453 10 is_stmt 0 view .LVU144
 472 0110 A369     		ldr	r3, [r4, #24]
 473 0112 002B     		cmp	r3, #0
 474 0114 77D0     		beq	.L38
 454:Drivers/STM32C0xx_HAL_Driver/Src/stm32c0xx_hal_rcc.c ****       {
 455:Drivers/STM32C0xx_HAL_Driver/Src/stm32c0xx_hal_rcc.c ****         /* Enable the Internal Low Speed oscillator (LSI). */
 456:Drivers/STM32C0xx_HAL_Driver/Src/stm32c0xx_hal_rcc.c ****         __HAL_RCC_LSI_ENABLE();
 475              		.loc 1 456 9 is_stmt 1 view .LVU145
 476 0116 5F4A     		ldr	r2, .L81
 477 0118 136E     		ldr	r3, [r2, #96]
 478 011a 0121     		movs	r1, #1
 479 011c 0B43     		orrs	r3, r1
 480 011e 1366     		str	r3, [r2, #96]
 457:Drivers/STM32C0xx_HAL_Driver/Src/stm32c0xx_hal_rcc.c **** 
 458:Drivers/STM32C0xx_HAL_Driver/Src/stm32c0xx_hal_rcc.c ****         /* Get Start Tick*/
 459:Drivers/STM32C0xx_HAL_Driver/Src/stm32c0xx_hal_rcc.c ****         tickstart = HAL_GetTick();
 481              		.loc 1 459 9 view .LVU146
 482              		.loc 1 459 21 is_stmt 0 view .LVU147
 483 0120 FFF7FEFF 		bl	HAL_GetTick
 484              	.LVL33:
 485 0124 0500     		movs	r5, r0
 486              	.LVL34:
 460:Drivers/STM32C0xx_HAL_Driver/Src/stm32c0xx_hal_rcc.c **** 
 461:Drivers/STM32C0xx_HAL_Driver/Src/stm32c0xx_hal_rcc.c ****         /* Wait till LSI is ready */
 462:Drivers/STM32C0xx_HAL_Driver/Src/stm32c0xx_hal_rcc.c ****         while (READ_BIT(RCC->CSR2, RCC_CSR2_LSIRDY) == 0U)
 487              		.loc 1 462 9 is_stmt 1 view .LVU148
 488              	.L39:
 489              		.loc 1 462 15 view .LVU149
 490              		.loc 1 462 16 is_stmt 0 view .LVU150
 491 0126 5B4B     		ldr	r3, .L81
 492 0128 1B6E     		ldr	r3, [r3, #96]
 493              		.loc 1 462 15 view .LVU151
 494 012a 9B07     		lsls	r3, r3, #30
 495 012c 42D4     		bmi	.L36
 463:Drivers/STM32C0xx_HAL_Driver/Src/stm32c0xx_hal_rcc.c ****         {
 464:Drivers/STM32C0xx_HAL_Driver/Src/stm32c0xx_hal_rcc.c ****           if ((HAL_GetTick() - tickstart) > RCC_LSI_TIMEOUT_VALUE)
 496              		.loc 1 464 11 is_stmt 1 view .LVU152
 497              		.loc 1 464 16 is_stmt 0 view .LVU153
 498 012e FFF7FEFF 		bl	HAL_GetTick
 499              	.LVL35:
 500              		.loc 1 464 30 view .LVU154
 501 0132 401B     		subs	r0, r0, r5
 502              		.loc 1 464 14 view .LVU155
 503 0134 0228     		cmp	r0, #2
 504 0136 F6D9     		bls	.L39
 465:Drivers/STM32C0xx_HAL_Driver/Src/stm32c0xx_hal_rcc.c ****           {
 466:Drivers/STM32C0xx_HAL_Driver/Src/stm32c0xx_hal_rcc.c ****             return HAL_TIMEOUT;
 505              		.loc 1 466 20 view .LVU156
ARM GAS  /var/folders/nl/kwfz41d55ync1k9vlz8wmkc80000gn/T//ccPpmmCA.s 			page 19


 506 0138 0320     		movs	r0, #3
 507 013a A0E0     		b	.L18
 508              	.LVL36:
 509              	.L30:
 393:Drivers/STM32C0xx_HAL_Driver/Src/stm32c0xx_hal_rcc.c ****       {
 510              		.loc 1 393 7 is_stmt 1 view .LVU157
 393:Drivers/STM32C0xx_HAL_Driver/Src/stm32c0xx_hal_rcc.c ****       {
 511              		.loc 1 393 10 is_stmt 0 view .LVU158
 512 013c E368     		ldr	r3, [r4, #12]
 513              	.LVL37:
 393:Drivers/STM32C0xx_HAL_Driver/Src/stm32c0xx_hal_rcc.c ****       {
 514              		.loc 1 393 10 view .LVU159
 515 013e 002B     		cmp	r3, #0
 516 0140 22D0     		beq	.L31
 396:Drivers/STM32C0xx_HAL_Driver/Src/stm32c0xx_hal_rcc.c **** 
 517              		.loc 1 396 9 is_stmt 1 view .LVU160
 518 0142 544A     		ldr	r2, .L81
 396:Drivers/STM32C0xx_HAL_Driver/Src/stm32c0xx_hal_rcc.c **** 
 519              		.loc 1 396 9 is_stmt 0 view .LVU161
 520 0144 1368     		ldr	r3, [r2]
 521 0146 5749     		ldr	r1, .L81+16
 522 0148 0B40     		ands	r3, r1
 523 014a 2169     		ldr	r1, [r4, #16]
 524 014c 0B43     		orrs	r3, r1
 525 014e 1360     		str	r3, [r2]
 399:Drivers/STM32C0xx_HAL_Driver/Src/stm32c0xx_hal_rcc.c **** 
 526              		.loc 1 399 9 is_stmt 1 view .LVU162
 527 0150 1168     		ldr	r1, [r2]
 528 0152 8023     		movs	r3, #128
 529 0154 5B00     		lsls	r3, r3, #1
 530 0156 0B43     		orrs	r3, r1
 531 0158 1360     		str	r3, [r2]
 402:Drivers/STM32C0xx_HAL_Driver/Src/stm32c0xx_hal_rcc.c **** 
 532              		.loc 1 402 9 view .LVU163
 402:Drivers/STM32C0xx_HAL_Driver/Src/stm32c0xx_hal_rcc.c **** 
 533              		.loc 1 402 21 is_stmt 0 view .LVU164
 534 015a FFF7FEFF 		bl	HAL_GetTick
 535              	.LVL38:
 536 015e 0500     		movs	r5, r0
 537              	.LVL39:
 405:Drivers/STM32C0xx_HAL_Driver/Src/stm32c0xx_hal_rcc.c ****         {
 538              		.loc 1 405 9 is_stmt 1 view .LVU165
 539              	.L32:
 405:Drivers/STM32C0xx_HAL_Driver/Src/stm32c0xx_hal_rcc.c ****         {
 540              		.loc 1 405 15 view .LVU166
 405:Drivers/STM32C0xx_HAL_Driver/Src/stm32c0xx_hal_rcc.c ****         {
 541              		.loc 1 405 16 is_stmt 0 view .LVU167
 542 0160 4C4B     		ldr	r3, .L81
 543 0162 1B68     		ldr	r3, [r3]
 405:Drivers/STM32C0xx_HAL_Driver/Src/stm32c0xx_hal_rcc.c ****         {
 544              		.loc 1 405 15 view .LVU168
 545 0164 5B05     		lsls	r3, r3, #21
 546 0166 06D4     		bmi	.L74
 407:Drivers/STM32C0xx_HAL_Driver/Src/stm32c0xx_hal_rcc.c ****           {
 547              		.loc 1 407 11 is_stmt 1 view .LVU169
 407:Drivers/STM32C0xx_HAL_Driver/Src/stm32c0xx_hal_rcc.c ****           {
 548              		.loc 1 407 16 is_stmt 0 view .LVU170
ARM GAS  /var/folders/nl/kwfz41d55ync1k9vlz8wmkc80000gn/T//ccPpmmCA.s 			page 20


 549 0168 FFF7FEFF 		bl	HAL_GetTick
 550              	.LVL40:
 407:Drivers/STM32C0xx_HAL_Driver/Src/stm32c0xx_hal_rcc.c ****           {
 551              		.loc 1 407 30 view .LVU171
 552 016c 401B     		subs	r0, r0, r5
 407:Drivers/STM32C0xx_HAL_Driver/Src/stm32c0xx_hal_rcc.c ****           {
 553              		.loc 1 407 14 view .LVU172
 554 016e 0228     		cmp	r0, #2
 555 0170 F6D9     		bls	.L32
 409:Drivers/STM32C0xx_HAL_Driver/Src/stm32c0xx_hal_rcc.c ****           }
 556              		.loc 1 409 20 view .LVU173
 557 0172 0320     		movs	r0, #3
 558 0174 83E0     		b	.L18
 559              	.L74:
 414:Drivers/STM32C0xx_HAL_Driver/Src/stm32c0xx_hal_rcc.c ****       }
 560              		.loc 1 414 9 is_stmt 1 view .LVU174
 561 0176 4749     		ldr	r1, .L81
 562 0178 4B68     		ldr	r3, [r1, #4]
 563 017a 494A     		ldr	r2, .L81+12
 564 017c 1340     		ands	r3, r2
 565 017e 6269     		ldr	r2, [r4, #20]
 566 0180 1202     		lsls	r2, r2, #8
 567 0182 1343     		orrs	r3, r2
 568 0184 4B60     		str	r3, [r1, #4]
 569 0186 BAE7     		b	.L29
 570              	.LVL41:
 571              	.L31:
 419:Drivers/STM32C0xx_HAL_Driver/Src/stm32c0xx_hal_rcc.c **** 
 572              		.loc 1 419 9 view .LVU175
 573 0188 424A     		ldr	r2, .L81
 419:Drivers/STM32C0xx_HAL_Driver/Src/stm32c0xx_hal_rcc.c **** 
 574              		.loc 1 419 9 is_stmt 0 view .LVU176
 575 018a 1368     		ldr	r3, [r2]
 576 018c 4949     		ldr	r1, .L81+32
 577 018e 0B40     		ands	r3, r1
 578 0190 1360     		str	r3, [r2]
 422:Drivers/STM32C0xx_HAL_Driver/Src/stm32c0xx_hal_rcc.c **** 
 579              		.loc 1 422 9 is_stmt 1 view .LVU177
 422:Drivers/STM32C0xx_HAL_Driver/Src/stm32c0xx_hal_rcc.c **** 
 580              		.loc 1 422 21 is_stmt 0 view .LVU178
 581 0192 FFF7FEFF 		bl	HAL_GetTick
 582              	.LVL42:
 583 0196 0500     		movs	r5, r0
 584              	.LVL43:
 425:Drivers/STM32C0xx_HAL_Driver/Src/stm32c0xx_hal_rcc.c ****         {
 585              		.loc 1 425 9 is_stmt 1 view .LVU179
 586              	.L34:
 425:Drivers/STM32C0xx_HAL_Driver/Src/stm32c0xx_hal_rcc.c ****         {
 587              		.loc 1 425 15 view .LVU180
 425:Drivers/STM32C0xx_HAL_Driver/Src/stm32c0xx_hal_rcc.c ****         {
 588              		.loc 1 425 16 is_stmt 0 view .LVU181
 589 0198 3E4B     		ldr	r3, .L81
 590 019a 1B68     		ldr	r3, [r3]
 425:Drivers/STM32C0xx_HAL_Driver/Src/stm32c0xx_hal_rcc.c ****         {
 591              		.loc 1 425 15 view .LVU182
 592 019c 5B05     		lsls	r3, r3, #21
 593 019e AED5     		bpl	.L29
ARM GAS  /var/folders/nl/kwfz41d55ync1k9vlz8wmkc80000gn/T//ccPpmmCA.s 			page 21


 427:Drivers/STM32C0xx_HAL_Driver/Src/stm32c0xx_hal_rcc.c ****           {
 594              		.loc 1 427 11 is_stmt 1 view .LVU183
 427:Drivers/STM32C0xx_HAL_Driver/Src/stm32c0xx_hal_rcc.c ****           {
 595              		.loc 1 427 16 is_stmt 0 view .LVU184
 596 01a0 FFF7FEFF 		bl	HAL_GetTick
 597              	.LVL44:
 427:Drivers/STM32C0xx_HAL_Driver/Src/stm32c0xx_hal_rcc.c ****           {
 598              		.loc 1 427 30 view .LVU185
 599 01a4 401B     		subs	r0, r0, r5
 427:Drivers/STM32C0xx_HAL_Driver/Src/stm32c0xx_hal_rcc.c ****           {
 600              		.loc 1 427 14 view .LVU186
 601 01a6 0228     		cmp	r0, #2
 602 01a8 F6D9     		bls	.L34
 429:Drivers/STM32C0xx_HAL_Driver/Src/stm32c0xx_hal_rcc.c ****           }
 603              		.loc 1 429 20 view .LVU187
 604 01aa 0320     		movs	r0, #3
 605 01ac 67E0     		b	.L18
 606              	.LVL45:
 607              	.L73:
 445:Drivers/STM32C0xx_HAL_Driver/Src/stm32c0xx_hal_rcc.c ****       {
 608              		.loc 1 445 7 is_stmt 1 view .LVU188
 445:Drivers/STM32C0xx_HAL_Driver/Src/stm32c0xx_hal_rcc.c ****       {
 609              		.loc 1 445 10 is_stmt 0 view .LVU189
 610 01ae A369     		ldr	r3, [r4, #24]
 611 01b0 002B     		cmp	r3, #0
 612 01b2 69D0     		beq	.L75
 613              	.L36:
 467:Drivers/STM32C0xx_HAL_Driver/Src/stm32c0xx_hal_rcc.c ****           }
 468:Drivers/STM32C0xx_HAL_Driver/Src/stm32c0xx_hal_rcc.c ****         }
 469:Drivers/STM32C0xx_HAL_Driver/Src/stm32c0xx_hal_rcc.c ****       }
 470:Drivers/STM32C0xx_HAL_Driver/Src/stm32c0xx_hal_rcc.c ****       else
 471:Drivers/STM32C0xx_HAL_Driver/Src/stm32c0xx_hal_rcc.c ****       {
 472:Drivers/STM32C0xx_HAL_Driver/Src/stm32c0xx_hal_rcc.c ****         /* Disable the Internal Low Speed oscillator (LSI). */
 473:Drivers/STM32C0xx_HAL_Driver/Src/stm32c0xx_hal_rcc.c ****         __HAL_RCC_LSI_DISABLE();
 474:Drivers/STM32C0xx_HAL_Driver/Src/stm32c0xx_hal_rcc.c **** 
 475:Drivers/STM32C0xx_HAL_Driver/Src/stm32c0xx_hal_rcc.c ****         /* Get Start Tick*/
 476:Drivers/STM32C0xx_HAL_Driver/Src/stm32c0xx_hal_rcc.c ****         tickstart = HAL_GetTick();
 477:Drivers/STM32C0xx_HAL_Driver/Src/stm32c0xx_hal_rcc.c **** 
 478:Drivers/STM32C0xx_HAL_Driver/Src/stm32c0xx_hal_rcc.c ****         /* Wait till LSI is disabled */
 479:Drivers/STM32C0xx_HAL_Driver/Src/stm32c0xx_hal_rcc.c ****         while (READ_BIT(RCC->CSR2, RCC_CSR2_LSIRDY) != 0U)
 480:Drivers/STM32C0xx_HAL_Driver/Src/stm32c0xx_hal_rcc.c ****         {
 481:Drivers/STM32C0xx_HAL_Driver/Src/stm32c0xx_hal_rcc.c ****           if ((HAL_GetTick() - tickstart) > RCC_LSI_TIMEOUT_VALUE)
 482:Drivers/STM32C0xx_HAL_Driver/Src/stm32c0xx_hal_rcc.c ****           {
 483:Drivers/STM32C0xx_HAL_Driver/Src/stm32c0xx_hal_rcc.c ****             return HAL_TIMEOUT;
 484:Drivers/STM32C0xx_HAL_Driver/Src/stm32c0xx_hal_rcc.c ****           }
 485:Drivers/STM32C0xx_HAL_Driver/Src/stm32c0xx_hal_rcc.c ****         }
 486:Drivers/STM32C0xx_HAL_Driver/Src/stm32c0xx_hal_rcc.c ****       }
 487:Drivers/STM32C0xx_HAL_Driver/Src/stm32c0xx_hal_rcc.c ****     }
 488:Drivers/STM32C0xx_HAL_Driver/Src/stm32c0xx_hal_rcc.c ****   }
 489:Drivers/STM32C0xx_HAL_Driver/Src/stm32c0xx_hal_rcc.c ****   /*------------------------------ LSE Configuration -------------------------*/
 490:Drivers/STM32C0xx_HAL_Driver/Src/stm32c0xx_hal_rcc.c ****   if (((RCC_OscInitStruct->OscillatorType) & RCC_OSCILLATORTYPE_LSE) == RCC_OSCILLATORTYPE_LSE)
 614              		.loc 1 490 3 is_stmt 1 view .LVU190
 615              		.loc 1 490 6 is_stmt 0 view .LVU191
 616 01b4 2368     		ldr	r3, [r4]
 617 01b6 5B07     		lsls	r3, r3, #29
 618 01b8 68D5     		bpl	.L63
 619              	.LBB6:
ARM GAS  /var/folders/nl/kwfz41d55ync1k9vlz8wmkc80000gn/T//ccPpmmCA.s 			page 22


 491:Drivers/STM32C0xx_HAL_Driver/Src/stm32c0xx_hal_rcc.c ****   {
 492:Drivers/STM32C0xx_HAL_Driver/Src/stm32c0xx_hal_rcc.c ****     FlagStatus       pwrclkchanged = RESET;
 620              		.loc 1 492 5 is_stmt 1 view .LVU192
 621              	.LVL46:
 493:Drivers/STM32C0xx_HAL_Driver/Src/stm32c0xx_hal_rcc.c **** 
 494:Drivers/STM32C0xx_HAL_Driver/Src/stm32c0xx_hal_rcc.c ****     /* Check the parameters */
 495:Drivers/STM32C0xx_HAL_Driver/Src/stm32c0xx_hal_rcc.c ****     assert_param(IS_RCC_LSE(RCC_OscInitStruct->LSEState));
 622              		.loc 1 495 5 view .LVU193
 496:Drivers/STM32C0xx_HAL_Driver/Src/stm32c0xx_hal_rcc.c **** 
 497:Drivers/STM32C0xx_HAL_Driver/Src/stm32c0xx_hal_rcc.c ****     /* When the LSE is used as system clock, it is not allowed disable it */
 498:Drivers/STM32C0xx_HAL_Driver/Src/stm32c0xx_hal_rcc.c ****     if (__HAL_RCC_GET_SYSCLK_SOURCE() == RCC_CFGR_SWS_LSE)
 623              		.loc 1 498 5 view .LVU194
 624              		.loc 1 498 9 is_stmt 0 view .LVU195
 625 01ba 364B     		ldr	r3, .L81
 626 01bc 9A68     		ldr	r2, [r3, #8]
 627 01be 3823     		movs	r3, #56
 628 01c0 1340     		ands	r3, r2
 629              		.loc 1 498 8 view .LVU196
 630 01c2 202B     		cmp	r3, #32
 631 01c4 32D0     		beq	.L76
 499:Drivers/STM32C0xx_HAL_Driver/Src/stm32c0xx_hal_rcc.c ****     {
 500:Drivers/STM32C0xx_HAL_Driver/Src/stm32c0xx_hal_rcc.c ****       if (RCC_OscInitStruct->LSEState == RCC_LSE_OFF)
 501:Drivers/STM32C0xx_HAL_Driver/Src/stm32c0xx_hal_rcc.c ****       {
 502:Drivers/STM32C0xx_HAL_Driver/Src/stm32c0xx_hal_rcc.c ****         return HAL_ERROR;
 503:Drivers/STM32C0xx_HAL_Driver/Src/stm32c0xx_hal_rcc.c ****       }
 504:Drivers/STM32C0xx_HAL_Driver/Src/stm32c0xx_hal_rcc.c ****     }
 505:Drivers/STM32C0xx_HAL_Driver/Src/stm32c0xx_hal_rcc.c ****     else
 506:Drivers/STM32C0xx_HAL_Driver/Src/stm32c0xx_hal_rcc.c ****     {
 507:Drivers/STM32C0xx_HAL_Driver/Src/stm32c0xx_hal_rcc.c ****       /* Update LSE configuration in RTC Domain control register    */
 508:Drivers/STM32C0xx_HAL_Driver/Src/stm32c0xx_hal_rcc.c ****       /* Set the new LSE configuration -----------------------------------------*/
 509:Drivers/STM32C0xx_HAL_Driver/Src/stm32c0xx_hal_rcc.c ****       __HAL_RCC_LSE_CONFIG(RCC_OscInitStruct->LSEState);
 632              		.loc 1 509 7 is_stmt 1 view .LVU197
 633              		.loc 1 509 7 view .LVU198
 634 01c6 A368     		ldr	r3, [r4, #8]
 635 01c8 012B     		cmp	r3, #1
 636 01ca 34D0     		beq	.L77
 637              		.loc 1 509 7 discriminator 2 view .LVU199
 638 01cc 052B     		cmp	r3, #5
 639 01ce 38D0     		beq	.L78
 640              		.loc 1 509 7 discriminator 5 view .LVU200
 641 01d0 304B     		ldr	r3, .L81
 642 01d2 DA6D     		ldr	r2, [r3, #92]
 643 01d4 0121     		movs	r1, #1
 644 01d6 8A43     		bics	r2, r1
 645 01d8 DA65     		str	r2, [r3, #92]
 646              		.loc 1 509 7 discriminator 5 view .LVU201
 647 01da DA6D     		ldr	r2, [r3, #92]
 648 01dc 0331     		adds	r1, r1, #3
 649 01de 8A43     		bics	r2, r1
 650 01e0 DA65     		str	r2, [r3, #92]
 651              	.L45:
 652              		.loc 1 509 7 discriminator 7 view .LVU202
 510:Drivers/STM32C0xx_HAL_Driver/Src/stm32c0xx_hal_rcc.c **** 
 511:Drivers/STM32C0xx_HAL_Driver/Src/stm32c0xx_hal_rcc.c ****       /* Check the LSE State */
 512:Drivers/STM32C0xx_HAL_Driver/Src/stm32c0xx_hal_rcc.c ****       if (RCC_OscInitStruct->LSEState != RCC_LSE_OFF)
 653              		.loc 1 512 7 discriminator 7 view .LVU203
 654              		.loc 1 512 28 is_stmt 0 discriminator 7 view .LVU204
ARM GAS  /var/folders/nl/kwfz41d55ync1k9vlz8wmkc80000gn/T//ccPpmmCA.s 			page 23


 655 01e2 A368     		ldr	r3, [r4, #8]
 656              		.loc 1 512 10 discriminator 7 view .LVU205
 657 01e4 002B     		cmp	r3, #0
 658 01e6 38D0     		beq	.L47
 513:Drivers/STM32C0xx_HAL_Driver/Src/stm32c0xx_hal_rcc.c ****       {
 514:Drivers/STM32C0xx_HAL_Driver/Src/stm32c0xx_hal_rcc.c ****         /* Get Start Tick*/
 515:Drivers/STM32C0xx_HAL_Driver/Src/stm32c0xx_hal_rcc.c ****         tickstart = HAL_GetTick();
 659              		.loc 1 515 9 is_stmt 1 view .LVU206
 660              		.loc 1 515 21 is_stmt 0 view .LVU207
 661 01e8 FFF7FEFF 		bl	HAL_GetTick
 662              	.LVL47:
 663 01ec 0400     		movs	r4, r0
 664              	.LVL48:
 516:Drivers/STM32C0xx_HAL_Driver/Src/stm32c0xx_hal_rcc.c **** 
 517:Drivers/STM32C0xx_HAL_Driver/Src/stm32c0xx_hal_rcc.c ****         /* Wait till LSE is ready */
 518:Drivers/STM32C0xx_HAL_Driver/Src/stm32c0xx_hal_rcc.c ****         while (READ_BIT(RCC->CSR1, RCC_CSR1_LSERDY) == 0U)
 665              		.loc 1 518 9 is_stmt 1 view .LVU208
 666              	.L48:
 667              		.loc 1 518 15 view .LVU209
 668              		.loc 1 518 16 is_stmt 0 view .LVU210
 669 01ee 294B     		ldr	r3, .L81
 670 01f0 DB6D     		ldr	r3, [r3, #92]
 671              		.loc 1 518 15 view .LVU211
 672 01f2 9B07     		lsls	r3, r3, #30
 673 01f4 2FD4     		bmi	.L79
 519:Drivers/STM32C0xx_HAL_Driver/Src/stm32c0xx_hal_rcc.c ****         {
 520:Drivers/STM32C0xx_HAL_Driver/Src/stm32c0xx_hal_rcc.c ****           if ((HAL_GetTick() - tickstart) > RCC_LSE_TIMEOUT_VALUE)
 674              		.loc 1 520 11 is_stmt 1 view .LVU212
 675              		.loc 1 520 16 is_stmt 0 view .LVU213
 676 01f6 FFF7FEFF 		bl	HAL_GetTick
 677              	.LVL49:
 678              		.loc 1 520 30 view .LVU214
 679 01fa 001B     		subs	r0, r0, r4
 680              		.loc 1 520 14 view .LVU215
 681 01fc 2E4B     		ldr	r3, .L81+36
 682 01fe 9842     		cmp	r0, r3
 683 0200 F5D9     		bls	.L48
 521:Drivers/STM32C0xx_HAL_Driver/Src/stm32c0xx_hal_rcc.c ****           {
 522:Drivers/STM32C0xx_HAL_Driver/Src/stm32c0xx_hal_rcc.c ****             return HAL_TIMEOUT;
 684              		.loc 1 522 20 view .LVU216
 685 0202 0320     		movs	r0, #3
 686 0204 3BE0     		b	.L18
 687              	.LVL50:
 688              	.L38:
 689              		.loc 1 522 20 view .LVU217
 690              	.LBE6:
 473:Drivers/STM32C0xx_HAL_Driver/Src/stm32c0xx_hal_rcc.c **** 
 691              		.loc 1 473 9 is_stmt 1 view .LVU218
 692 0206 234A     		ldr	r2, .L81
 693 0208 136E     		ldr	r3, [r2, #96]
 694 020a 0121     		movs	r1, #1
 695 020c 8B43     		bics	r3, r1
 696 020e 1366     		str	r3, [r2, #96]
 476:Drivers/STM32C0xx_HAL_Driver/Src/stm32c0xx_hal_rcc.c **** 
 697              		.loc 1 476 9 view .LVU219
 476:Drivers/STM32C0xx_HAL_Driver/Src/stm32c0xx_hal_rcc.c **** 
 698              		.loc 1 476 21 is_stmt 0 view .LVU220
ARM GAS  /var/folders/nl/kwfz41d55ync1k9vlz8wmkc80000gn/T//ccPpmmCA.s 			page 24


 699 0210 FFF7FEFF 		bl	HAL_GetTick
 700              	.LVL51:
 701 0214 0500     		movs	r5, r0
 702              	.LVL52:
 479:Drivers/STM32C0xx_HAL_Driver/Src/stm32c0xx_hal_rcc.c ****         {
 703              		.loc 1 479 9 is_stmt 1 view .LVU221
 704              	.L41:
 479:Drivers/STM32C0xx_HAL_Driver/Src/stm32c0xx_hal_rcc.c ****         {
 705              		.loc 1 479 15 view .LVU222
 479:Drivers/STM32C0xx_HAL_Driver/Src/stm32c0xx_hal_rcc.c ****         {
 706              		.loc 1 479 16 is_stmt 0 view .LVU223
 707 0216 1F4B     		ldr	r3, .L81
 708 0218 1B6E     		ldr	r3, [r3, #96]
 479:Drivers/STM32C0xx_HAL_Driver/Src/stm32c0xx_hal_rcc.c ****         {
 709              		.loc 1 479 15 view .LVU224
 710 021a 9B07     		lsls	r3, r3, #30
 711 021c CAD5     		bpl	.L36
 481:Drivers/STM32C0xx_HAL_Driver/Src/stm32c0xx_hal_rcc.c ****           {
 712              		.loc 1 481 11 is_stmt 1 view .LVU225
 481:Drivers/STM32C0xx_HAL_Driver/Src/stm32c0xx_hal_rcc.c ****           {
 713              		.loc 1 481 16 is_stmt 0 view .LVU226
 714 021e FFF7FEFF 		bl	HAL_GetTick
 715              	.LVL53:
 481:Drivers/STM32C0xx_HAL_Driver/Src/stm32c0xx_hal_rcc.c ****           {
 716              		.loc 1 481 30 view .LVU227
 717 0222 401B     		subs	r0, r0, r5
 481:Drivers/STM32C0xx_HAL_Driver/Src/stm32c0xx_hal_rcc.c ****           {
 718              		.loc 1 481 14 view .LVU228
 719 0224 0228     		cmp	r0, #2
 720 0226 F6D9     		bls	.L41
 483:Drivers/STM32C0xx_HAL_Driver/Src/stm32c0xx_hal_rcc.c ****           }
 721              		.loc 1 483 20 view .LVU229
 722 0228 0320     		movs	r0, #3
 723 022a 28E0     		b	.L18
 724              	.LVL54:
 725              	.L76:
 726              	.LBB7:
 500:Drivers/STM32C0xx_HAL_Driver/Src/stm32c0xx_hal_rcc.c ****       {
 727              		.loc 1 500 7 is_stmt 1 view .LVU230
 500:Drivers/STM32C0xx_HAL_Driver/Src/stm32c0xx_hal_rcc.c ****       {
 728              		.loc 1 500 28 is_stmt 0 view .LVU231
 729 022c A368     		ldr	r3, [r4, #8]
 500:Drivers/STM32C0xx_HAL_Driver/Src/stm32c0xx_hal_rcc.c ****       {
 730              		.loc 1 500 10 view .LVU232
 731 022e 002B     		cmp	r3, #0
 732 0230 2ED0     		beq	.L64
 733              	.LBE7:
 523:Drivers/STM32C0xx_HAL_Driver/Src/stm32c0xx_hal_rcc.c ****           }
 524:Drivers/STM32C0xx_HAL_Driver/Src/stm32c0xx_hal_rcc.c ****         }
 525:Drivers/STM32C0xx_HAL_Driver/Src/stm32c0xx_hal_rcc.c ****       }
 526:Drivers/STM32C0xx_HAL_Driver/Src/stm32c0xx_hal_rcc.c ****       else
 527:Drivers/STM32C0xx_HAL_Driver/Src/stm32c0xx_hal_rcc.c ****       {
 528:Drivers/STM32C0xx_HAL_Driver/Src/stm32c0xx_hal_rcc.c ****         /* Get Start Tick*/
 529:Drivers/STM32C0xx_HAL_Driver/Src/stm32c0xx_hal_rcc.c ****         tickstart = HAL_GetTick();
 530:Drivers/STM32C0xx_HAL_Driver/Src/stm32c0xx_hal_rcc.c **** 
 531:Drivers/STM32C0xx_HAL_Driver/Src/stm32c0xx_hal_rcc.c ****         /* Wait till LSE is disabled */
 532:Drivers/STM32C0xx_HAL_Driver/Src/stm32c0xx_hal_rcc.c ****         while (READ_BIT(RCC->CSR1, RCC_CSR1_LSERDY) != 0U)
ARM GAS  /var/folders/nl/kwfz41d55ync1k9vlz8wmkc80000gn/T//ccPpmmCA.s 			page 25


 533:Drivers/STM32C0xx_HAL_Driver/Src/stm32c0xx_hal_rcc.c ****         {
 534:Drivers/STM32C0xx_HAL_Driver/Src/stm32c0xx_hal_rcc.c ****           if ((HAL_GetTick() - tickstart) > RCC_LSE_TIMEOUT_VALUE)
 535:Drivers/STM32C0xx_HAL_Driver/Src/stm32c0xx_hal_rcc.c ****           {
 536:Drivers/STM32C0xx_HAL_Driver/Src/stm32c0xx_hal_rcc.c ****             return HAL_TIMEOUT;
 537:Drivers/STM32C0xx_HAL_Driver/Src/stm32c0xx_hal_rcc.c ****           }
 538:Drivers/STM32C0xx_HAL_Driver/Src/stm32c0xx_hal_rcc.c ****         }
 539:Drivers/STM32C0xx_HAL_Driver/Src/stm32c0xx_hal_rcc.c ****       }
 540:Drivers/STM32C0xx_HAL_Driver/Src/stm32c0xx_hal_rcc.c **** 
 541:Drivers/STM32C0xx_HAL_Driver/Src/stm32c0xx_hal_rcc.c ****       /* Restore clock configuration if changed */
 542:Drivers/STM32C0xx_HAL_Driver/Src/stm32c0xx_hal_rcc.c ****       if (pwrclkchanged == SET)
 543:Drivers/STM32C0xx_HAL_Driver/Src/stm32c0xx_hal_rcc.c ****       {
 544:Drivers/STM32C0xx_HAL_Driver/Src/stm32c0xx_hal_rcc.c ****         __HAL_RCC_PWR_CLK_DISABLE();
 545:Drivers/STM32C0xx_HAL_Driver/Src/stm32c0xx_hal_rcc.c ****       }
 546:Drivers/STM32C0xx_HAL_Driver/Src/stm32c0xx_hal_rcc.c ****     }
 547:Drivers/STM32C0xx_HAL_Driver/Src/stm32c0xx_hal_rcc.c ****   }
 548:Drivers/STM32C0xx_HAL_Driver/Src/stm32c0xx_hal_rcc.c ****   return HAL_OK;
 734              		.loc 1 548 10 view .LVU233
 735 0232 0020     		movs	r0, #0
 736 0234 23E0     		b	.L18
 737              	.L77:
 738              	.LBB8:
 509:Drivers/STM32C0xx_HAL_Driver/Src/stm32c0xx_hal_rcc.c **** 
 739              		.loc 1 509 7 is_stmt 1 discriminator 1 view .LVU234
 740 0236 174A     		ldr	r2, .L81
 741 0238 D36D     		ldr	r3, [r2, #92]
 742 023a 0121     		movs	r1, #1
 743 023c 0B43     		orrs	r3, r1
 744 023e D365     		str	r3, [r2, #92]
 745 0240 CFE7     		b	.L45
 746              	.L78:
 509:Drivers/STM32C0xx_HAL_Driver/Src/stm32c0xx_hal_rcc.c **** 
 747              		.loc 1 509 7 discriminator 4 view .LVU235
 748 0242 144B     		ldr	r3, .L81
 749 0244 DA6D     		ldr	r2, [r3, #92]
 750 0246 0421     		movs	r1, #4
 751 0248 0A43     		orrs	r2, r1
 752 024a DA65     		str	r2, [r3, #92]
 509:Drivers/STM32C0xx_HAL_Driver/Src/stm32c0xx_hal_rcc.c **** 
 753              		.loc 1 509 7 discriminator 4 view .LVU236
 754 024c DA6D     		ldr	r2, [r3, #92]
 755 024e 0339     		subs	r1, r1, #3
 756 0250 0A43     		orrs	r2, r1
 757 0252 DA65     		str	r2, [r3, #92]
 758 0254 C5E7     		b	.L45
 759              	.LVL55:
 760              	.L79:
 509:Drivers/STM32C0xx_HAL_Driver/Src/stm32c0xx_hal_rcc.c **** 
 761              		.loc 1 509 7 is_stmt 0 discriminator 4 view .LVU237
 762              	.LBE8:
 763              		.loc 1 548 10 view .LVU238
 764 0256 0020     		movs	r0, #0
 765 0258 11E0     		b	.L18
 766              	.LVL56:
 767              	.L47:
 768              	.LBB9:
 529:Drivers/STM32C0xx_HAL_Driver/Src/stm32c0xx_hal_rcc.c **** 
 769              		.loc 1 529 9 is_stmt 1 view .LVU239
ARM GAS  /var/folders/nl/kwfz41d55ync1k9vlz8wmkc80000gn/T//ccPpmmCA.s 			page 26


 529:Drivers/STM32C0xx_HAL_Driver/Src/stm32c0xx_hal_rcc.c **** 
 770              		.loc 1 529 21 is_stmt 0 view .LVU240
 771 025a FFF7FEFF 		bl	HAL_GetTick
 772              	.LVL57:
 773 025e 0400     		movs	r4, r0
 774              	.LVL58:
 532:Drivers/STM32C0xx_HAL_Driver/Src/stm32c0xx_hal_rcc.c ****         {
 775              		.loc 1 532 9 is_stmt 1 view .LVU241
 776              	.L50:
 532:Drivers/STM32C0xx_HAL_Driver/Src/stm32c0xx_hal_rcc.c ****         {
 777              		.loc 1 532 15 view .LVU242
 532:Drivers/STM32C0xx_HAL_Driver/Src/stm32c0xx_hal_rcc.c ****         {
 778              		.loc 1 532 16 is_stmt 0 view .LVU243
 779 0260 0C4B     		ldr	r3, .L81
 780 0262 DB6D     		ldr	r3, [r3, #92]
 532:Drivers/STM32C0xx_HAL_Driver/Src/stm32c0xx_hal_rcc.c ****         {
 781              		.loc 1 532 15 view .LVU244
 782 0264 9B07     		lsls	r3, r3, #30
 783 0266 07D5     		bpl	.L80
 534:Drivers/STM32C0xx_HAL_Driver/Src/stm32c0xx_hal_rcc.c ****           {
 784              		.loc 1 534 11 is_stmt 1 view .LVU245
 534:Drivers/STM32C0xx_HAL_Driver/Src/stm32c0xx_hal_rcc.c ****           {
 785              		.loc 1 534 16 is_stmt 0 view .LVU246
 786 0268 FFF7FEFF 		bl	HAL_GetTick
 787              	.LVL59:
 534:Drivers/STM32C0xx_HAL_Driver/Src/stm32c0xx_hal_rcc.c ****           {
 788              		.loc 1 534 30 view .LVU247
 789 026c 001B     		subs	r0, r0, r4
 534:Drivers/STM32C0xx_HAL_Driver/Src/stm32c0xx_hal_rcc.c ****           {
 790              		.loc 1 534 14 view .LVU248
 791 026e 124B     		ldr	r3, .L81+36
 792 0270 9842     		cmp	r0, r3
 793 0272 F5D9     		bls	.L50
 536:Drivers/STM32C0xx_HAL_Driver/Src/stm32c0xx_hal_rcc.c ****           }
 794              		.loc 1 536 20 view .LVU249
 795 0274 0320     		movs	r0, #3
 796 0276 02E0     		b	.L18
 797              	.L80:
 536:Drivers/STM32C0xx_HAL_Driver/Src/stm32c0xx_hal_rcc.c ****           }
 798              		.loc 1 536 20 view .LVU250
 799              	.LBE9:
 800              		.loc 1 548 10 view .LVU251
 801 0278 0020     		movs	r0, #0
 802              	.LBB10:
 803 027a 00E0     		b	.L18
 804              	.LVL60:
 805              	.L52:
 806              		.loc 1 548 10 view .LVU252
 807              	.LBE10:
 292:Drivers/STM32C0xx_HAL_Driver/Src/stm32c0xx_hal_rcc.c ****   }
 808              		.loc 1 292 12 view .LVU253
 809 027c 0120     		movs	r0, #1
 810              	.LVL61:
 811              	.L18:
 549:Drivers/STM32C0xx_HAL_Driver/Src/stm32c0xx_hal_rcc.c **** }
 812              		.loc 1 549 1 view .LVU254
 813              		@ sp needed
ARM GAS  /var/folders/nl/kwfz41d55ync1k9vlz8wmkc80000gn/T//ccPpmmCA.s 			page 27


 814 027e 70BD     		pop	{r4, r5, r6, pc}
 815              	.LVL62:
 816              	.L70:
 311:Drivers/STM32C0xx_HAL_Driver/Src/stm32c0xx_hal_rcc.c ****       }
 817              		.loc 1 311 16 view .LVU255
 818 0280 0120     		movs	r0, #1
 819              	.LVL63:
 311:Drivers/STM32C0xx_HAL_Driver/Src/stm32c0xx_hal_rcc.c ****       }
 820              		.loc 1 311 16 view .LVU256
 821 0282 FCE7     		b	.L18
 822              	.LVL64:
 823              	.L72:
 386:Drivers/STM32C0xx_HAL_Driver/Src/stm32c0xx_hal_rcc.c ****         }
 824              		.loc 1 386 18 view .LVU257
 825 0284 0120     		movs	r0, #1
 826 0286 FAE7     		b	.L18
 827              	.L75:
 447:Drivers/STM32C0xx_HAL_Driver/Src/stm32c0xx_hal_rcc.c ****       }
 828              		.loc 1 447 16 view .LVU258
 829 0288 0120     		movs	r0, #1
 830 028a F8E7     		b	.L18
 831              	.L63:
 548:Drivers/STM32C0xx_HAL_Driver/Src/stm32c0xx_hal_rcc.c **** }
 832              		.loc 1 548 10 view .LVU259
 833 028c 0020     		movs	r0, #0
 834 028e F6E7     		b	.L18
 835              	.LVL65:
 836              	.L64:
 837              	.LBB11:
 502:Drivers/STM32C0xx_HAL_Driver/Src/stm32c0xx_hal_rcc.c ****       }
 838              		.loc 1 502 16 view .LVU260
 839 0290 0120     		movs	r0, #1
 840 0292 F4E7     		b	.L18
 841              	.L82:
 842              		.align	2
 843              	.L81:
 844 0294 00100240 		.word	1073876992
 845 0298 FFFFFEFF 		.word	-65537
 846 029c FFFFFBFF 		.word	-262145
 847 02a0 FF80FFFF 		.word	-32513
 848 02a4 FFC7FFFF 		.word	-14337
 849 02a8 006CDC02 		.word	48000000
 850 02ac 00000000 		.word	SystemCoreClock
 851 02b0 00000000 		.word	uwTickPrio
 852 02b4 FFFEFFFF 		.word	-257
 853 02b8 88130000 		.word	5000
 854              	.LBE11:
 855              		.cfi_endproc
 856              	.LFE215:
 858              		.section	.text.HAL_RCC_MCOConfig,"ax",%progbits
 859              		.align	1
 860              		.global	HAL_RCC_MCOConfig
 861              		.syntax unified
 862              		.code	16
 863              		.thumb_func
 865              	HAL_RCC_MCOConfig:
 866              	.LVL66:
ARM GAS  /var/folders/nl/kwfz41d55ync1k9vlz8wmkc80000gn/T//ccPpmmCA.s 			page 28


 867              	.LFB217:
 550:Drivers/STM32C0xx_HAL_Driver/Src/stm32c0xx_hal_rcc.c **** 
 551:Drivers/STM32C0xx_HAL_Driver/Src/stm32c0xx_hal_rcc.c **** /**
 552:Drivers/STM32C0xx_HAL_Driver/Src/stm32c0xx_hal_rcc.c ****   * @brief  Initialize the CPU, AHB and APB busses clocks according to the specified
 553:Drivers/STM32C0xx_HAL_Driver/Src/stm32c0xx_hal_rcc.c ****   *         parameters in the RCC_ClkInitStruct.
 554:Drivers/STM32C0xx_HAL_Driver/Src/stm32c0xx_hal_rcc.c ****   * @param  RCC_ClkInitStruct  pointer to a @ref RCC_ClkInitTypeDef structure that
 555:Drivers/STM32C0xx_HAL_Driver/Src/stm32c0xx_hal_rcc.c ****   *         contains the configuration information for the RCC peripheral.
 556:Drivers/STM32C0xx_HAL_Driver/Src/stm32c0xx_hal_rcc.c ****   * @param  FLatency  FLASH Latency
 557:Drivers/STM32C0xx_HAL_Driver/Src/stm32c0xx_hal_rcc.c ****   *          This parameter can be one of the following values:
 558:Drivers/STM32C0xx_HAL_Driver/Src/stm32c0xx_hal_rcc.c ****   *            @arg FLASH_LATENCY_0   FLASH 0 Latency cycle
 559:Drivers/STM32C0xx_HAL_Driver/Src/stm32c0xx_hal_rcc.c ****   *            @arg FLASH_LATENCY_1   FLASH 1 Latency cycle
 560:Drivers/STM32C0xx_HAL_Driver/Src/stm32c0xx_hal_rcc.c ****   *
 561:Drivers/STM32C0xx_HAL_Driver/Src/stm32c0xx_hal_rcc.c ****   * @note   The SystemCoreClock CMSIS variable is used to store System Clock Frequency
 562:Drivers/STM32C0xx_HAL_Driver/Src/stm32c0xx_hal_rcc.c ****   *         and updated by @ref HAL_RCC_GetHCLKFreq() function called within this function
 563:Drivers/STM32C0xx_HAL_Driver/Src/stm32c0xx_hal_rcc.c ****   *
 564:Drivers/STM32C0xx_HAL_Driver/Src/stm32c0xx_hal_rcc.c ****   * @note   The HSI is used by default as system clock source after
 565:Drivers/STM32C0xx_HAL_Driver/Src/stm32c0xx_hal_rcc.c ****   *         startup from Reset, wake-up from STANDBY mode. After restart from Reset,
 566:Drivers/STM32C0xx_HAL_Driver/Src/stm32c0xx_hal_rcc.c ****   *         the HSI frequency is set to 12 Mhz, as HSI divider is set to 4.
 567:Drivers/STM32C0xx_HAL_Driver/Src/stm32c0xx_hal_rcc.c ****   *
 568:Drivers/STM32C0xx_HAL_Driver/Src/stm32c0xx_hal_rcc.c ****   * @note   The HSI can be selected as system clock source after
 569:Drivers/STM32C0xx_HAL_Driver/Src/stm32c0xx_hal_rcc.c ****   *         from STOP modes or in case of failure of the HSE used directly or indirectly
 570:Drivers/STM32C0xx_HAL_Driver/Src/stm32c0xx_hal_rcc.c ****   *         as system clock (if the Clock Security System CSS is enabled).
 571:Drivers/STM32C0xx_HAL_Driver/Src/stm32c0xx_hal_rcc.c ****   *
 572:Drivers/STM32C0xx_HAL_Driver/Src/stm32c0xx_hal_rcc.c ****   * @note   The LSI can be selected as system clock source after
 573:Drivers/STM32C0xx_HAL_Driver/Src/stm32c0xx_hal_rcc.c ****   *         in case of failure of the LSE used directly or indirectly
 574:Drivers/STM32C0xx_HAL_Driver/Src/stm32c0xx_hal_rcc.c ****   *         as system clock (if the Clock Security System LSECSS is enabled).
 575:Drivers/STM32C0xx_HAL_Driver/Src/stm32c0xx_hal_rcc.c ****   *
 576:Drivers/STM32C0xx_HAL_Driver/Src/stm32c0xx_hal_rcc.c ****   * @note   A switch from one clock source to another occurs only if the target
 577:Drivers/STM32C0xx_HAL_Driver/Src/stm32c0xx_hal_rcc.c ****   *         clock source is ready (clock stable after startup delay).
 578:Drivers/STM32C0xx_HAL_Driver/Src/stm32c0xx_hal_rcc.c ****   *         If a clock source which is not yet ready is selected, the switch will
 579:Drivers/STM32C0xx_HAL_Driver/Src/stm32c0xx_hal_rcc.c ****   *         occur when the clock source is ready.
 580:Drivers/STM32C0xx_HAL_Driver/Src/stm32c0xx_hal_rcc.c ****   *
 581:Drivers/STM32C0xx_HAL_Driver/Src/stm32c0xx_hal_rcc.c ****   * @note   You can use @ref HAL_RCC_GetClockConfig() function to know which clock is
 582:Drivers/STM32C0xx_HAL_Driver/Src/stm32c0xx_hal_rcc.c ****   *         currently used as system clock source.
 583:Drivers/STM32C0xx_HAL_Driver/Src/stm32c0xx_hal_rcc.c ****   *
 584:Drivers/STM32C0xx_HAL_Driver/Src/stm32c0xx_hal_rcc.c ****   * @note   Depending on the device voltage range, the software has to set correctly
 585:Drivers/STM32C0xx_HAL_Driver/Src/stm32c0xx_hal_rcc.c ****   *         HPRE[3:0] bits to ensure that HCLK not exceed the maximum allowed frequency
 586:Drivers/STM32C0xx_HAL_Driver/Src/stm32c0xx_hal_rcc.c ****   *         (for more details refer to section above "Initialization/de-initialization functions")
 587:Drivers/STM32C0xx_HAL_Driver/Src/stm32c0xx_hal_rcc.c ****   * @retval None
 588:Drivers/STM32C0xx_HAL_Driver/Src/stm32c0xx_hal_rcc.c ****   */
 589:Drivers/STM32C0xx_HAL_Driver/Src/stm32c0xx_hal_rcc.c **** HAL_StatusTypeDef HAL_RCC_ClockConfig(const RCC_ClkInitTypeDef  *RCC_ClkInitStruct, uint32_t FLaten
 590:Drivers/STM32C0xx_HAL_Driver/Src/stm32c0xx_hal_rcc.c **** {
 591:Drivers/STM32C0xx_HAL_Driver/Src/stm32c0xx_hal_rcc.c ****   uint32_t tickstart;
 592:Drivers/STM32C0xx_HAL_Driver/Src/stm32c0xx_hal_rcc.c **** 
 593:Drivers/STM32C0xx_HAL_Driver/Src/stm32c0xx_hal_rcc.c ****   /* Check Null pointer */
 594:Drivers/STM32C0xx_HAL_Driver/Src/stm32c0xx_hal_rcc.c ****   if (RCC_ClkInitStruct == NULL)
 595:Drivers/STM32C0xx_HAL_Driver/Src/stm32c0xx_hal_rcc.c ****   {
 596:Drivers/STM32C0xx_HAL_Driver/Src/stm32c0xx_hal_rcc.c ****     return HAL_ERROR;
 597:Drivers/STM32C0xx_HAL_Driver/Src/stm32c0xx_hal_rcc.c ****   }
 598:Drivers/STM32C0xx_HAL_Driver/Src/stm32c0xx_hal_rcc.c **** 
 599:Drivers/STM32C0xx_HAL_Driver/Src/stm32c0xx_hal_rcc.c ****   /* Check the parameters */
 600:Drivers/STM32C0xx_HAL_Driver/Src/stm32c0xx_hal_rcc.c ****   assert_param(IS_RCC_CLOCKTYPE(RCC_ClkInitStruct->ClockType));
 601:Drivers/STM32C0xx_HAL_Driver/Src/stm32c0xx_hal_rcc.c ****   assert_param(IS_FLASH_LATENCY(FLatency));
 602:Drivers/STM32C0xx_HAL_Driver/Src/stm32c0xx_hal_rcc.c **** 
 603:Drivers/STM32C0xx_HAL_Driver/Src/stm32c0xx_hal_rcc.c ****   /* To correctly read data from FLASH memory, the number of wait states (LATENCY)
 604:Drivers/STM32C0xx_HAL_Driver/Src/stm32c0xx_hal_rcc.c ****     must be correctly programmed according to the frequency of the FLASH clock
 605:Drivers/STM32C0xx_HAL_Driver/Src/stm32c0xx_hal_rcc.c ****     (HCLK) and the supply voltage of the device. */
ARM GAS  /var/folders/nl/kwfz41d55ync1k9vlz8wmkc80000gn/T//ccPpmmCA.s 			page 29


 606:Drivers/STM32C0xx_HAL_Driver/Src/stm32c0xx_hal_rcc.c **** 
 607:Drivers/STM32C0xx_HAL_Driver/Src/stm32c0xx_hal_rcc.c ****   /* Increasing the number of wait states because of higher CPU frequency */
 608:Drivers/STM32C0xx_HAL_Driver/Src/stm32c0xx_hal_rcc.c ****   if (FLatency > __HAL_FLASH_GET_LATENCY())
 609:Drivers/STM32C0xx_HAL_Driver/Src/stm32c0xx_hal_rcc.c ****   {
 610:Drivers/STM32C0xx_HAL_Driver/Src/stm32c0xx_hal_rcc.c ****     /* Program the new number of wait states to the LATENCY bits in the FLASH_ACR register */
 611:Drivers/STM32C0xx_HAL_Driver/Src/stm32c0xx_hal_rcc.c ****     __HAL_FLASH_SET_LATENCY(FLatency);
 612:Drivers/STM32C0xx_HAL_Driver/Src/stm32c0xx_hal_rcc.c **** 
 613:Drivers/STM32C0xx_HAL_Driver/Src/stm32c0xx_hal_rcc.c ****     /* Check that the new number of wait states is taken into account to access the Flash
 614:Drivers/STM32C0xx_HAL_Driver/Src/stm32c0xx_hal_rcc.c ****     memory by polling the FLASH_ACR register */
 615:Drivers/STM32C0xx_HAL_Driver/Src/stm32c0xx_hal_rcc.c ****     tickstart = HAL_GetTick();
 616:Drivers/STM32C0xx_HAL_Driver/Src/stm32c0xx_hal_rcc.c **** 
 617:Drivers/STM32C0xx_HAL_Driver/Src/stm32c0xx_hal_rcc.c ****     while ((FLASH->ACR & FLASH_ACR_LATENCY) != FLatency)
 618:Drivers/STM32C0xx_HAL_Driver/Src/stm32c0xx_hal_rcc.c ****     {
 619:Drivers/STM32C0xx_HAL_Driver/Src/stm32c0xx_hal_rcc.c ****       if ((HAL_GetTick() - tickstart) > RCC_CLOCKSWITCH_TIMEOUT_VALUE)
 620:Drivers/STM32C0xx_HAL_Driver/Src/stm32c0xx_hal_rcc.c ****       {
 621:Drivers/STM32C0xx_HAL_Driver/Src/stm32c0xx_hal_rcc.c ****         return HAL_TIMEOUT;
 622:Drivers/STM32C0xx_HAL_Driver/Src/stm32c0xx_hal_rcc.c ****       }
 623:Drivers/STM32C0xx_HAL_Driver/Src/stm32c0xx_hal_rcc.c ****     }
 624:Drivers/STM32C0xx_HAL_Driver/Src/stm32c0xx_hal_rcc.c ****   }
 625:Drivers/STM32C0xx_HAL_Driver/Src/stm32c0xx_hal_rcc.c **** 
 626:Drivers/STM32C0xx_HAL_Driver/Src/stm32c0xx_hal_rcc.c ****   /*-------------------------- HCLK Configuration --------------------------*/
 627:Drivers/STM32C0xx_HAL_Driver/Src/stm32c0xx_hal_rcc.c ****   if (((RCC_ClkInitStruct->ClockType) & RCC_CLOCKTYPE_HCLK) == RCC_CLOCKTYPE_HCLK)
 628:Drivers/STM32C0xx_HAL_Driver/Src/stm32c0xx_hal_rcc.c ****   {
 629:Drivers/STM32C0xx_HAL_Driver/Src/stm32c0xx_hal_rcc.c ****     /* Set the highest APB divider in order to ensure that we do not go through
 630:Drivers/STM32C0xx_HAL_Driver/Src/stm32c0xx_hal_rcc.c ****        a non-spec phase whatever we decrease or increase HCLK. */
 631:Drivers/STM32C0xx_HAL_Driver/Src/stm32c0xx_hal_rcc.c ****     if (((RCC_ClkInitStruct->ClockType) & RCC_CLOCKTYPE_PCLK1) == RCC_CLOCKTYPE_PCLK1)
 632:Drivers/STM32C0xx_HAL_Driver/Src/stm32c0xx_hal_rcc.c ****     {
 633:Drivers/STM32C0xx_HAL_Driver/Src/stm32c0xx_hal_rcc.c ****       MODIFY_REG(RCC->CFGR, RCC_CFGR_PPRE, RCC_HCLK_DIV16);
 634:Drivers/STM32C0xx_HAL_Driver/Src/stm32c0xx_hal_rcc.c ****     }
 635:Drivers/STM32C0xx_HAL_Driver/Src/stm32c0xx_hal_rcc.c **** 
 636:Drivers/STM32C0xx_HAL_Driver/Src/stm32c0xx_hal_rcc.c ****     /* Set the new HCLK clock divider */
 637:Drivers/STM32C0xx_HAL_Driver/Src/stm32c0xx_hal_rcc.c ****     assert_param(IS_RCC_HCLK(RCC_ClkInitStruct->AHBCLKDivider));
 638:Drivers/STM32C0xx_HAL_Driver/Src/stm32c0xx_hal_rcc.c ****     MODIFY_REG(RCC->CFGR, RCC_CFGR_HPRE, RCC_ClkInitStruct->AHBCLKDivider);
 639:Drivers/STM32C0xx_HAL_Driver/Src/stm32c0xx_hal_rcc.c ****   }
 640:Drivers/STM32C0xx_HAL_Driver/Src/stm32c0xx_hal_rcc.c **** 
 641:Drivers/STM32C0xx_HAL_Driver/Src/stm32c0xx_hal_rcc.c ****   /*------------------------- SYSCLK Configuration ---------------------------*/
 642:Drivers/STM32C0xx_HAL_Driver/Src/stm32c0xx_hal_rcc.c ****   if (((RCC_ClkInitStruct->ClockType) & RCC_CLOCKTYPE_SYSCLK) == RCC_CLOCKTYPE_SYSCLK)
 643:Drivers/STM32C0xx_HAL_Driver/Src/stm32c0xx_hal_rcc.c ****   {
 644:Drivers/STM32C0xx_HAL_Driver/Src/stm32c0xx_hal_rcc.c ****     assert_param(IS_RCC_SYSCLK(RCC_ClkInitStruct->SYSCLKDivider));
 645:Drivers/STM32C0xx_HAL_Driver/Src/stm32c0xx_hal_rcc.c ****     assert_param(IS_RCC_SYSCLKSOURCE(RCC_ClkInitStruct->SYSCLKSource));
 646:Drivers/STM32C0xx_HAL_Driver/Src/stm32c0xx_hal_rcc.c ****     MODIFY_REG(RCC->CR, RCC_CR_SYSDIV, RCC_ClkInitStruct->SYSCLKDivider);
 647:Drivers/STM32C0xx_HAL_Driver/Src/stm32c0xx_hal_rcc.c **** 
 648:Drivers/STM32C0xx_HAL_Driver/Src/stm32c0xx_hal_rcc.c ****     /* HSE is selected as System Clock Source */
 649:Drivers/STM32C0xx_HAL_Driver/Src/stm32c0xx_hal_rcc.c ****     if (RCC_ClkInitStruct->SYSCLKSource == RCC_SYSCLKSOURCE_HSE)
 650:Drivers/STM32C0xx_HAL_Driver/Src/stm32c0xx_hal_rcc.c ****     {
 651:Drivers/STM32C0xx_HAL_Driver/Src/stm32c0xx_hal_rcc.c ****       /* Check the HSE ready flag */
 652:Drivers/STM32C0xx_HAL_Driver/Src/stm32c0xx_hal_rcc.c ****       if (READ_BIT(RCC->CR, RCC_CR_HSERDY) == 0U)
 653:Drivers/STM32C0xx_HAL_Driver/Src/stm32c0xx_hal_rcc.c ****       {
 654:Drivers/STM32C0xx_HAL_Driver/Src/stm32c0xx_hal_rcc.c ****         return HAL_ERROR;
 655:Drivers/STM32C0xx_HAL_Driver/Src/stm32c0xx_hal_rcc.c ****       }
 656:Drivers/STM32C0xx_HAL_Driver/Src/stm32c0xx_hal_rcc.c ****     }
 657:Drivers/STM32C0xx_HAL_Driver/Src/stm32c0xx_hal_rcc.c ****     /* HSI is selected as System Clock Source */
 658:Drivers/STM32C0xx_HAL_Driver/Src/stm32c0xx_hal_rcc.c ****     else if (RCC_ClkInitStruct->SYSCLKSource == RCC_SYSCLKSOURCE_HSI)
 659:Drivers/STM32C0xx_HAL_Driver/Src/stm32c0xx_hal_rcc.c ****     {
 660:Drivers/STM32C0xx_HAL_Driver/Src/stm32c0xx_hal_rcc.c ****       /* Check the HSI ready flag */
 661:Drivers/STM32C0xx_HAL_Driver/Src/stm32c0xx_hal_rcc.c ****       if (READ_BIT(RCC->CR, RCC_CR_HSIRDY) == 0U)
 662:Drivers/STM32C0xx_HAL_Driver/Src/stm32c0xx_hal_rcc.c ****       {
ARM GAS  /var/folders/nl/kwfz41d55ync1k9vlz8wmkc80000gn/T//ccPpmmCA.s 			page 30


 663:Drivers/STM32C0xx_HAL_Driver/Src/stm32c0xx_hal_rcc.c ****         return HAL_ERROR;
 664:Drivers/STM32C0xx_HAL_Driver/Src/stm32c0xx_hal_rcc.c ****       }
 665:Drivers/STM32C0xx_HAL_Driver/Src/stm32c0xx_hal_rcc.c ****     }
 666:Drivers/STM32C0xx_HAL_Driver/Src/stm32c0xx_hal_rcc.c ****     /* LSI is selected as System Clock Source */
 667:Drivers/STM32C0xx_HAL_Driver/Src/stm32c0xx_hal_rcc.c ****     else if (RCC_ClkInitStruct->SYSCLKSource == RCC_SYSCLKSOURCE_LSI)
 668:Drivers/STM32C0xx_HAL_Driver/Src/stm32c0xx_hal_rcc.c ****     {
 669:Drivers/STM32C0xx_HAL_Driver/Src/stm32c0xx_hal_rcc.c ****       /* Check the LSI ready flag */
 670:Drivers/STM32C0xx_HAL_Driver/Src/stm32c0xx_hal_rcc.c ****       if (READ_BIT(RCC->CSR2, RCC_CSR2_LSIRDY) == 0U)
 671:Drivers/STM32C0xx_HAL_Driver/Src/stm32c0xx_hal_rcc.c ****       {
 672:Drivers/STM32C0xx_HAL_Driver/Src/stm32c0xx_hal_rcc.c ****         return HAL_ERROR;
 673:Drivers/STM32C0xx_HAL_Driver/Src/stm32c0xx_hal_rcc.c ****       }
 674:Drivers/STM32C0xx_HAL_Driver/Src/stm32c0xx_hal_rcc.c ****     }
 675:Drivers/STM32C0xx_HAL_Driver/Src/stm32c0xx_hal_rcc.c ****     /* LSE is selected as System Clock Source */
 676:Drivers/STM32C0xx_HAL_Driver/Src/stm32c0xx_hal_rcc.c ****     else
 677:Drivers/STM32C0xx_HAL_Driver/Src/stm32c0xx_hal_rcc.c ****     {
 678:Drivers/STM32C0xx_HAL_Driver/Src/stm32c0xx_hal_rcc.c ****       /* Check the LSE ready flag */
 679:Drivers/STM32C0xx_HAL_Driver/Src/stm32c0xx_hal_rcc.c ****       if (READ_BIT(RCC->CSR1, RCC_CSR1_LSERDY) == 0U)
 680:Drivers/STM32C0xx_HAL_Driver/Src/stm32c0xx_hal_rcc.c ****       {
 681:Drivers/STM32C0xx_HAL_Driver/Src/stm32c0xx_hal_rcc.c ****         return HAL_ERROR;
 682:Drivers/STM32C0xx_HAL_Driver/Src/stm32c0xx_hal_rcc.c ****       }
 683:Drivers/STM32C0xx_HAL_Driver/Src/stm32c0xx_hal_rcc.c ****     }
 684:Drivers/STM32C0xx_HAL_Driver/Src/stm32c0xx_hal_rcc.c ****     MODIFY_REG(RCC->CFGR, RCC_CFGR_SW, RCC_ClkInitStruct->SYSCLKSource);
 685:Drivers/STM32C0xx_HAL_Driver/Src/stm32c0xx_hal_rcc.c **** 
 686:Drivers/STM32C0xx_HAL_Driver/Src/stm32c0xx_hal_rcc.c ****     /* Get Start Tick*/
 687:Drivers/STM32C0xx_HAL_Driver/Src/stm32c0xx_hal_rcc.c ****     tickstart = HAL_GetTick();
 688:Drivers/STM32C0xx_HAL_Driver/Src/stm32c0xx_hal_rcc.c **** 
 689:Drivers/STM32C0xx_HAL_Driver/Src/stm32c0xx_hal_rcc.c ****     while (__HAL_RCC_GET_SYSCLK_SOURCE() != (RCC_ClkInitStruct->SYSCLKSource << RCC_CFGR_SWS_Pos))
 690:Drivers/STM32C0xx_HAL_Driver/Src/stm32c0xx_hal_rcc.c ****     {
 691:Drivers/STM32C0xx_HAL_Driver/Src/stm32c0xx_hal_rcc.c ****       if ((HAL_GetTick() - tickstart) > RCC_CLOCKSWITCH_TIMEOUT_VALUE)
 692:Drivers/STM32C0xx_HAL_Driver/Src/stm32c0xx_hal_rcc.c ****       {
 693:Drivers/STM32C0xx_HAL_Driver/Src/stm32c0xx_hal_rcc.c ****         return HAL_TIMEOUT;
 694:Drivers/STM32C0xx_HAL_Driver/Src/stm32c0xx_hal_rcc.c ****       }
 695:Drivers/STM32C0xx_HAL_Driver/Src/stm32c0xx_hal_rcc.c ****     }
 696:Drivers/STM32C0xx_HAL_Driver/Src/stm32c0xx_hal_rcc.c ****   }
 697:Drivers/STM32C0xx_HAL_Driver/Src/stm32c0xx_hal_rcc.c **** 
 698:Drivers/STM32C0xx_HAL_Driver/Src/stm32c0xx_hal_rcc.c ****   /* Decreasing the number of wait states because of lower CPU frequency */
 699:Drivers/STM32C0xx_HAL_Driver/Src/stm32c0xx_hal_rcc.c ****   if (FLatency < __HAL_FLASH_GET_LATENCY())
 700:Drivers/STM32C0xx_HAL_Driver/Src/stm32c0xx_hal_rcc.c ****   {
 701:Drivers/STM32C0xx_HAL_Driver/Src/stm32c0xx_hal_rcc.c ****     /* Program the new number of wait states to the LATENCY bits in the FLASH_ACR register */
 702:Drivers/STM32C0xx_HAL_Driver/Src/stm32c0xx_hal_rcc.c ****     __HAL_FLASH_SET_LATENCY(FLatency);
 703:Drivers/STM32C0xx_HAL_Driver/Src/stm32c0xx_hal_rcc.c **** 
 704:Drivers/STM32C0xx_HAL_Driver/Src/stm32c0xx_hal_rcc.c ****     /* Check that the new number of wait states is taken into account to access the Flash
 705:Drivers/STM32C0xx_HAL_Driver/Src/stm32c0xx_hal_rcc.c ****     memory by polling the FLASH_ACR register */
 706:Drivers/STM32C0xx_HAL_Driver/Src/stm32c0xx_hal_rcc.c ****     tickstart = HAL_GetTick();
 707:Drivers/STM32C0xx_HAL_Driver/Src/stm32c0xx_hal_rcc.c **** 
 708:Drivers/STM32C0xx_HAL_Driver/Src/stm32c0xx_hal_rcc.c ****     while ((FLASH->ACR & FLASH_ACR_LATENCY) != FLatency)
 709:Drivers/STM32C0xx_HAL_Driver/Src/stm32c0xx_hal_rcc.c ****     {
 710:Drivers/STM32C0xx_HAL_Driver/Src/stm32c0xx_hal_rcc.c ****       if ((HAL_GetTick() - tickstart) > RCC_CLOCKSWITCH_TIMEOUT_VALUE)
 711:Drivers/STM32C0xx_HAL_Driver/Src/stm32c0xx_hal_rcc.c ****       {
 712:Drivers/STM32C0xx_HAL_Driver/Src/stm32c0xx_hal_rcc.c ****         return HAL_TIMEOUT;
 713:Drivers/STM32C0xx_HAL_Driver/Src/stm32c0xx_hal_rcc.c ****       }
 714:Drivers/STM32C0xx_HAL_Driver/Src/stm32c0xx_hal_rcc.c ****     }
 715:Drivers/STM32C0xx_HAL_Driver/Src/stm32c0xx_hal_rcc.c ****   }
 716:Drivers/STM32C0xx_HAL_Driver/Src/stm32c0xx_hal_rcc.c **** 
 717:Drivers/STM32C0xx_HAL_Driver/Src/stm32c0xx_hal_rcc.c ****   /*-------------------------- PCLK1 Configuration ---------------------------*/
 718:Drivers/STM32C0xx_HAL_Driver/Src/stm32c0xx_hal_rcc.c ****   if (((RCC_ClkInitStruct->ClockType) & RCC_CLOCKTYPE_PCLK1) == RCC_CLOCKTYPE_PCLK1)
 719:Drivers/STM32C0xx_HAL_Driver/Src/stm32c0xx_hal_rcc.c ****   {
ARM GAS  /var/folders/nl/kwfz41d55ync1k9vlz8wmkc80000gn/T//ccPpmmCA.s 			page 31


 720:Drivers/STM32C0xx_HAL_Driver/Src/stm32c0xx_hal_rcc.c ****     assert_param(IS_RCC_PCLK(RCC_ClkInitStruct->APB1CLKDivider));
 721:Drivers/STM32C0xx_HAL_Driver/Src/stm32c0xx_hal_rcc.c ****     MODIFY_REG(RCC->CFGR, RCC_CFGR_PPRE, RCC_ClkInitStruct->APB1CLKDivider);
 722:Drivers/STM32C0xx_HAL_Driver/Src/stm32c0xx_hal_rcc.c ****   }
 723:Drivers/STM32C0xx_HAL_Driver/Src/stm32c0xx_hal_rcc.c **** 
 724:Drivers/STM32C0xx_HAL_Driver/Src/stm32c0xx_hal_rcc.c ****   /* Update the SystemCoreClock global variable */
 725:Drivers/STM32C0xx_HAL_Driver/Src/stm32c0xx_hal_rcc.c ****   SystemCoreClock = (HAL_RCC_GetSysClockFreq() >> ((AHBPrescTable[(RCC->CFGR & RCC_CFGR_HPRE) >> RC
 726:Drivers/STM32C0xx_HAL_Driver/Src/stm32c0xx_hal_rcc.c **** 
 727:Drivers/STM32C0xx_HAL_Driver/Src/stm32c0xx_hal_rcc.c ****   /* Configure the source of time base considering new system clocks settings*/
 728:Drivers/STM32C0xx_HAL_Driver/Src/stm32c0xx_hal_rcc.c ****   return HAL_InitTick(uwTickPrio);
 729:Drivers/STM32C0xx_HAL_Driver/Src/stm32c0xx_hal_rcc.c **** }
 730:Drivers/STM32C0xx_HAL_Driver/Src/stm32c0xx_hal_rcc.c **** 
 731:Drivers/STM32C0xx_HAL_Driver/Src/stm32c0xx_hal_rcc.c **** /**
 732:Drivers/STM32C0xx_HAL_Driver/Src/stm32c0xx_hal_rcc.c ****   * @}
 733:Drivers/STM32C0xx_HAL_Driver/Src/stm32c0xx_hal_rcc.c ****   */
 734:Drivers/STM32C0xx_HAL_Driver/Src/stm32c0xx_hal_rcc.c **** 
 735:Drivers/STM32C0xx_HAL_Driver/Src/stm32c0xx_hal_rcc.c **** /** @defgroup RCC_Exported_Functions_Group2 Peripheral Control functions
 736:Drivers/STM32C0xx_HAL_Driver/Src/stm32c0xx_hal_rcc.c ****   *  @brief   RCC clocks control functions
 737:Drivers/STM32C0xx_HAL_Driver/Src/stm32c0xx_hal_rcc.c ****   *
 738:Drivers/STM32C0xx_HAL_Driver/Src/stm32c0xx_hal_rcc.c **** @verbatim
 739:Drivers/STM32C0xx_HAL_Driver/Src/stm32c0xx_hal_rcc.c ****  ===============================================================================
 740:Drivers/STM32C0xx_HAL_Driver/Src/stm32c0xx_hal_rcc.c ****                       ##### Peripheral Control functions #####
 741:Drivers/STM32C0xx_HAL_Driver/Src/stm32c0xx_hal_rcc.c ****  ===============================================================================
 742:Drivers/STM32C0xx_HAL_Driver/Src/stm32c0xx_hal_rcc.c ****     [..]
 743:Drivers/STM32C0xx_HAL_Driver/Src/stm32c0xx_hal_rcc.c ****     This subsection provides a set of functions allowing to:
 744:Drivers/STM32C0xx_HAL_Driver/Src/stm32c0xx_hal_rcc.c **** 
 745:Drivers/STM32C0xx_HAL_Driver/Src/stm32c0xx_hal_rcc.c ****     (+) output clock to MCO pin.
 746:Drivers/STM32C0xx_HAL_Driver/Src/stm32c0xx_hal_rcc.c ****     (+) Retrieve current clock frequencies.
 747:Drivers/STM32C0xx_HAL_Driver/Src/stm32c0xx_hal_rcc.c ****     (+) Enable the Clock Security System.
 748:Drivers/STM32C0xx_HAL_Driver/Src/stm32c0xx_hal_rcc.c **** 
 749:Drivers/STM32C0xx_HAL_Driver/Src/stm32c0xx_hal_rcc.c **** @endverbatim
 750:Drivers/STM32C0xx_HAL_Driver/Src/stm32c0xx_hal_rcc.c ****   * @{
 751:Drivers/STM32C0xx_HAL_Driver/Src/stm32c0xx_hal_rcc.c ****   */
 752:Drivers/STM32C0xx_HAL_Driver/Src/stm32c0xx_hal_rcc.c **** 
 753:Drivers/STM32C0xx_HAL_Driver/Src/stm32c0xx_hal_rcc.c **** /**
 754:Drivers/STM32C0xx_HAL_Driver/Src/stm32c0xx_hal_rcc.c ****   * @brief  Select the clock source to output on MCOx pin.
 755:Drivers/STM32C0xx_HAL_Driver/Src/stm32c0xx_hal_rcc.c ****   * @note   PA8 for MCO1 and PB2 for MCO2 should be configured in alternate function mode.
 756:Drivers/STM32C0xx_HAL_Driver/Src/stm32c0xx_hal_rcc.c ****   * @param  RCC_MCOx  specifies the output direction for the clock source.
 757:Drivers/STM32C0xx_HAL_Driver/Src/stm32c0xx_hal_rcc.c ****   *            @arg @ref RCC_MCO1  Clock source to output on MCO1 pins.
 758:Drivers/STM32C0xx_HAL_Driver/Src/stm32c0xx_hal_rcc.c ****   *            @arg @ref RCC_MCO2  Clock source to output on MCO2 pins.
 759:Drivers/STM32C0xx_HAL_Driver/Src/stm32c0xx_hal_rcc.c ****   * @param  RCC_MCOSource  specifies the clock source to output.
 760:Drivers/STM32C0xx_HAL_Driver/Src/stm32c0xx_hal_rcc.c ****   *          This parameter can be one of the following values:
 761:Drivers/STM32C0xx_HAL_Driver/Src/stm32c0xx_hal_rcc.c ****   *            @arg @ref RCC_MCO1SOURCE_NOCLOCK  MCO1 output disabled, no clock on MCO1
 762:Drivers/STM32C0xx_HAL_Driver/Src/stm32c0xx_hal_rcc.c ****   *            @arg @ref RCC_MCO1SOURCE_SYSCLK  system  clock selected as MCO1 source
 763:Drivers/STM32C0xx_HAL_Driver/Src/stm32c0xx_hal_rcc.c ****   *            @arg @ref RCC_MCO1SOURCE_HSI  HSI clock selected as MCO1 source
 764:Drivers/STM32C0xx_HAL_Driver/Src/stm32c0xx_hal_rcc.c ****   *            @arg @ref RCC_MCO1SOURCE_HSE  HSE clock selected as MCO1 source
 765:Drivers/STM32C0xx_HAL_Driver/Src/stm32c0xx_hal_rcc.c ****   *            @arg @ref RCC_MCO1SOURCE_LSI  LSI clock selected as MCO1 source
 766:Drivers/STM32C0xx_HAL_Driver/Src/stm32c0xx_hal_rcc.c ****   *            @arg @ref RCC_MCO1SOURCE_LSE  LSE clock selected as MCO1 source
 767:Drivers/STM32C0xx_HAL_Driver/Src/stm32c0xx_hal_rcc.c ****   *            @arg @ref RCC_MCO2SOURCE_NOCLOCK  MCO2 output disabled, no clock on MCO2
 768:Drivers/STM32C0xx_HAL_Driver/Src/stm32c0xx_hal_rcc.c ****   *            @arg @ref RCC_MCO2SOURCE_SYSCLK  system  clock selected as MCO2 source
 769:Drivers/STM32C0xx_HAL_Driver/Src/stm32c0xx_hal_rcc.c ****   *            @arg @ref RCC_MCO2SOURCE_HSI  HSI clock selected as MCO2 source
 770:Drivers/STM32C0xx_HAL_Driver/Src/stm32c0xx_hal_rcc.c ****   *            @arg @ref RCC_MCO2SOURCE_HSE  HSE clock selected as MCO2 source
 771:Drivers/STM32C0xx_HAL_Driver/Src/stm32c0xx_hal_rcc.c ****   *            @arg @ref RCC_MCO2SOURCE_LSI  LSI clock selected as MCO2 source
 772:Drivers/STM32C0xx_HAL_Driver/Src/stm32c0xx_hal_rcc.c ****   *            @arg @ref RCC_MCO2SOURCE_LSE  LSE clock selected as MCO2 source
 773:Drivers/STM32C0xx_HAL_Driver/Src/stm32c0xx_hal_rcc.c ****   * @param  RCC_MCODiv  specifies the MCO prescaler.
 774:Drivers/STM32C0xx_HAL_Driver/Src/stm32c0xx_hal_rcc.c ****   *          This parameter can be one of the following values:
 775:Drivers/STM32C0xx_HAL_Driver/Src/stm32c0xx_hal_rcc.c ****   *            @arg @ref RCC_MCODIV_1  no division applied to MCO clock
 776:Drivers/STM32C0xx_HAL_Driver/Src/stm32c0xx_hal_rcc.c ****   *            @arg @ref RCC_MCODIV_2  division by 2 applied to MCO clock
ARM GAS  /var/folders/nl/kwfz41d55ync1k9vlz8wmkc80000gn/T//ccPpmmCA.s 			page 32


 777:Drivers/STM32C0xx_HAL_Driver/Src/stm32c0xx_hal_rcc.c ****   *            @arg @ref RCC_MCODIV_4  division by 4 applied to MCO clock
 778:Drivers/STM32C0xx_HAL_Driver/Src/stm32c0xx_hal_rcc.c ****   *            @arg @ref RCC_MCODIV_8  division by 8 applied to MCO clock
 779:Drivers/STM32C0xx_HAL_Driver/Src/stm32c0xx_hal_rcc.c ****   *            @arg @ref RCC_MCODIV_16  division by 16 applied to MCO clock
 780:Drivers/STM32C0xx_HAL_Driver/Src/stm32c0xx_hal_rcc.c ****   *            @arg @ref RCC_MCODIV_32  division by 32 applied to MCO clock
 781:Drivers/STM32C0xx_HAL_Driver/Src/stm32c0xx_hal_rcc.c ****   *            @arg @ref RCC_MCODIV_64  division by 64 applied to MCO clock
 782:Drivers/STM32C0xx_HAL_Driver/Src/stm32c0xx_hal_rcc.c ****   *            @arg @ref RCC_MCODIV_128  division by 128 applied to MCO clock
 783:Drivers/STM32C0xx_HAL_Driver/Src/stm32c0xx_hal_rcc.c ****   * @retval None
 784:Drivers/STM32C0xx_HAL_Driver/Src/stm32c0xx_hal_rcc.c ****   */
 785:Drivers/STM32C0xx_HAL_Driver/Src/stm32c0xx_hal_rcc.c **** void HAL_RCC_MCOConfig(uint32_t RCC_MCOx, uint32_t RCC_MCOSource, uint32_t RCC_MCODiv)
 786:Drivers/STM32C0xx_HAL_Driver/Src/stm32c0xx_hal_rcc.c **** {
 868              		.loc 1 786 1 is_stmt 1 view -0
 869              		.cfi_startproc
 870              		@ args = 0, pretend = 0, frame = 24
 871              		@ frame_needed = 0, uses_anonymous_args = 0
 872              		.loc 1 786 1 is_stmt 0 view .LVU262
 873 0000 F0B5     		push	{r4, r5, r6, r7, lr}
 874              	.LCFI2:
 875              		.cfi_def_cfa_offset 20
 876              		.cfi_offset 4, -20
 877              		.cfi_offset 5, -16
 878              		.cfi_offset 6, -12
 879              		.cfi_offset 7, -8
 880              		.cfi_offset 14, -4
 881 0002 C646     		mov	lr, r8
 882 0004 00B5     		push	{lr}
 883              	.LCFI3:
 884              		.cfi_def_cfa_offset 24
 885              		.cfi_offset 8, -24
 886 0006 86B0     		sub	sp, sp, #24
 887              	.LCFI4:
 888              		.cfi_def_cfa_offset 48
 889 0008 0300     		movs	r3, r0
 890 000a 8846     		mov	r8, r1
 891 000c 1500     		movs	r5, r2
 787:Drivers/STM32C0xx_HAL_Driver/Src/stm32c0xx_hal_rcc.c ****   GPIO_InitTypeDef gpio_initstruct;
 892              		.loc 1 787 3 is_stmt 1 view .LVU263
 788:Drivers/STM32C0xx_HAL_Driver/Src/stm32c0xx_hal_rcc.c ****   uint32_t mcoindex;
 893              		.loc 1 788 3 view .LVU264
 789:Drivers/STM32C0xx_HAL_Driver/Src/stm32c0xx_hal_rcc.c ****   uint32_t mco_gpio_index;
 894              		.loc 1 789 3 view .LVU265
 790:Drivers/STM32C0xx_HAL_Driver/Src/stm32c0xx_hal_rcc.c ****   GPIO_TypeDef *mco_gpio_port;
 895              		.loc 1 790 3 view .LVU266
 791:Drivers/STM32C0xx_HAL_Driver/Src/stm32c0xx_hal_rcc.c **** 
 792:Drivers/STM32C0xx_HAL_Driver/Src/stm32c0xx_hal_rcc.c ****   /* Check the parameters */
 793:Drivers/STM32C0xx_HAL_Driver/Src/stm32c0xx_hal_rcc.c ****   assert_param(IS_RCC_MCO(RCC_MCOx));
 896              		.loc 1 793 3 view .LVU267
 794:Drivers/STM32C0xx_HAL_Driver/Src/stm32c0xx_hal_rcc.c **** 
 795:Drivers/STM32C0xx_HAL_Driver/Src/stm32c0xx_hal_rcc.c ****   /* Common GPIO init parameters */
 796:Drivers/STM32C0xx_HAL_Driver/Src/stm32c0xx_hal_rcc.c ****   gpio_initstruct.Mode      = GPIO_MODE_AF_PP;
 897              		.loc 1 796 3 view .LVU268
 898              		.loc 1 796 29 is_stmt 0 view .LVU269
 899 000e 0222     		movs	r2, #2
 900              	.LVL67:
 901              		.loc 1 796 29 view .LVU270
 902 0010 0292     		str	r2, [sp, #8]
 797:Drivers/STM32C0xx_HAL_Driver/Src/stm32c0xx_hal_rcc.c ****   gpio_initstruct.Speed     = GPIO_SPEED_FREQ_VERY_HIGH;
 903              		.loc 1 797 3 is_stmt 1 view .LVU271
ARM GAS  /var/folders/nl/kwfz41d55ync1k9vlz8wmkc80000gn/T//ccPpmmCA.s 			page 33


 904              		.loc 1 797 29 is_stmt 0 view .LVU272
 905 0012 0132     		adds	r2, r2, #1
 906 0014 0492     		str	r2, [sp, #16]
 798:Drivers/STM32C0xx_HAL_Driver/Src/stm32c0xx_hal_rcc.c ****   gpio_initstruct.Pull      = GPIO_NOPULL;
 907              		.loc 1 798 3 is_stmt 1 view .LVU273
 908              		.loc 1 798 29 is_stmt 0 view .LVU274
 909 0016 0022     		movs	r2, #0
 910 0018 0392     		str	r2, [sp, #12]
 799:Drivers/STM32C0xx_HAL_Driver/Src/stm32c0xx_hal_rcc.c **** 
 800:Drivers/STM32C0xx_HAL_Driver/Src/stm32c0xx_hal_rcc.c ****   /* Get MCOx selection */
 801:Drivers/STM32C0xx_HAL_Driver/Src/stm32c0xx_hal_rcc.c ****   mcoindex = RCC_MCOx & RCC_MCO_INDEX_MASK;
 911              		.loc 1 801 3 is_stmt 1 view .LVU275
 912              		.loc 1 801 12 is_stmt 0 view .LVU276
 913 001a 8026     		movs	r6, #128
 914 001c 7605     		lsls	r6, r6, #21
 915 001e 0640     		ands	r6, r0
 916              	.LVL68:
 802:Drivers/STM32C0xx_HAL_Driver/Src/stm32c0xx_hal_rcc.c **** 
 803:Drivers/STM32C0xx_HAL_Driver/Src/stm32c0xx_hal_rcc.c ****   /* Get MCOx GPIO Port */
 804:Drivers/STM32C0xx_HAL_Driver/Src/stm32c0xx_hal_rcc.c ****   mco_gpio_port = (GPIO_TypeDef *) RCC_GET_MCO_GPIO_PORT(RCC_MCOx);
 917              		.loc 1 804 3 is_stmt 1 view .LVU277
 918              		.loc 1 804 36 is_stmt 0 view .LVU278
 919 0020 010C     		lsrs	r1, r0, #16
 920              	.LVL69:
 921              		.loc 1 804 36 view .LVU279
 922 0022 0F32     		adds	r2, r2, #15
 923 0024 0A40     		ands	r2, r1
 924 0026 A021     		movs	r1, #160
 925 0028 4903     		lsls	r1, r1, #13
 926 002a 5018     		adds	r0, r2, r1
 927              	.LVL70:
 928              		.loc 1 804 36 view .LVU280
 929 002c 8002     		lsls	r0, r0, #10
 930              	.LVL71:
 805:Drivers/STM32C0xx_HAL_Driver/Src/stm32c0xx_hal_rcc.c **** 
 806:Drivers/STM32C0xx_HAL_Driver/Src/stm32c0xx_hal_rcc.c ****   /* MCOx Clock Enable */
 807:Drivers/STM32C0xx_HAL_Driver/Src/stm32c0xx_hal_rcc.c ****   mco_gpio_index = RCC_GET_MCO_GPIO_INDEX(RCC_MCOx);
 931              		.loc 1 807 3 is_stmt 1 view .LVU281
 808:Drivers/STM32C0xx_HAL_Driver/Src/stm32c0xx_hal_rcc.c ****   SET_BIT(RCC->IOPENR, (1UL << mco_gpio_index));
 932              		.loc 1 808 3 view .LVU282
 933 002e 144C     		ldr	r4, .L86
 934 0030 616B     		ldr	r1, [r4, #52]
 935 0032 0127     		movs	r7, #1
 936 0034 9740     		lsls	r7, r7, r2
 937 0036 3A00     		movs	r2, r7
 938              	.LVL72:
 939              		.loc 1 808 3 is_stmt 0 view .LVU283
 940 0038 0A43     		orrs	r2, r1
 941 003a 6263     		str	r2, [r4, #52]
 942              	.LVL73:
 809:Drivers/STM32C0xx_HAL_Driver/Src/stm32c0xx_hal_rcc.c **** 
 810:Drivers/STM32C0xx_HAL_Driver/Src/stm32c0xx_hal_rcc.c ****   /* Configure the MCOx pin in alternate function mode */
 811:Drivers/STM32C0xx_HAL_Driver/Src/stm32c0xx_hal_rcc.c ****   gpio_initstruct.Pin = RCC_GET_MCO_GPIO_PIN(RCC_MCOx);
 943              		.loc 1 811 3 is_stmt 1 view .LVU284
 944              		.loc 1 811 25 is_stmt 0 view .LVU285
 945 003c 1A04     		lsls	r2, r3, #16
 946 003e 120C     		lsrs	r2, r2, #16
ARM GAS  /var/folders/nl/kwfz41d55ync1k9vlz8wmkc80000gn/T//ccPpmmCA.s 			page 34


 947              		.loc 1 811 23 view .LVU286
 948 0040 0192     		str	r2, [sp, #4]
 812:Drivers/STM32C0xx_HAL_Driver/Src/stm32c0xx_hal_rcc.c ****   gpio_initstruct.Alternate = RCC_GET_MCO_GPIO_AF(RCC_MCOx);
 949              		.loc 1 812 3 is_stmt 1 view .LVU287
 950              		.loc 1 812 31 is_stmt 0 view .LVU288
 951 0042 1B0D     		lsrs	r3, r3, #20
 952              	.LVL74:
 953              		.loc 1 812 31 view .LVU289
 954 0044 FF22     		movs	r2, #255
 955 0046 1340     		ands	r3, r2
 956              		.loc 1 812 29 view .LVU290
 957 0048 0593     		str	r3, [sp, #20]
 813:Drivers/STM32C0xx_HAL_Driver/Src/stm32c0xx_hal_rcc.c ****   HAL_GPIO_Init(mco_gpio_port, &gpio_initstruct);
 958              		.loc 1 813 3 is_stmt 1 view .LVU291
 959 004a 01A9     		add	r1, sp, #4
 960 004c FFF7FEFF 		bl	HAL_GPIO_Init
 961              	.LVL75:
 814:Drivers/STM32C0xx_HAL_Driver/Src/stm32c0xx_hal_rcc.c **** 
 815:Drivers/STM32C0xx_HAL_Driver/Src/stm32c0xx_hal_rcc.c ****   if (mcoindex == RCC_MCO1_INDEX)
 962              		.loc 1 815 3 view .LVU292
 963              		.loc 1 815 6 is_stmt 0 view .LVU293
 964 0050 002E     		cmp	r6, #0
 965 0052 0BD1     		bne	.L84
 816:Drivers/STM32C0xx_HAL_Driver/Src/stm32c0xx_hal_rcc.c ****   {
 817:Drivers/STM32C0xx_HAL_Driver/Src/stm32c0xx_hal_rcc.c ****     assert_param(IS_RCC_MCODIV(RCC_MCODiv));
 966              		.loc 1 817 5 is_stmt 1 view .LVU294
 818:Drivers/STM32C0xx_HAL_Driver/Src/stm32c0xx_hal_rcc.c ****     assert_param(IS_RCC_MCO1SOURCE(RCC_MCOSource));
 967              		.loc 1 818 5 view .LVU295
 819:Drivers/STM32C0xx_HAL_Driver/Src/stm32c0xx_hal_rcc.c ****     /* Mask MCOSEL[] and MCOPRE[] bits then set MCO clock source and prescaler */
 820:Drivers/STM32C0xx_HAL_Driver/Src/stm32c0xx_hal_rcc.c ****     LL_RCC_ConfigMCO(RCC_MCOSource, RCC_MCODiv);
 968              		.loc 1 820 5 view .LVU296
 969              	.LVL76:
 970              	.LBB12:
 971              	.LBI12:
 972              		.file 2 "Drivers/STM32C0xx_HAL_Driver/Inc/stm32c0xx_ll_rcc.h"
   1:Drivers/STM32C0xx_HAL_Driver/Inc/stm32c0xx_ll_rcc.h **** /**
   2:Drivers/STM32C0xx_HAL_Driver/Inc/stm32c0xx_ll_rcc.h ****   ******************************************************************************
   3:Drivers/STM32C0xx_HAL_Driver/Inc/stm32c0xx_ll_rcc.h ****   * @file    stm32c0xx_ll_rcc.h
   4:Drivers/STM32C0xx_HAL_Driver/Inc/stm32c0xx_ll_rcc.h ****   * @author  MCD Application Team
   5:Drivers/STM32C0xx_HAL_Driver/Inc/stm32c0xx_ll_rcc.h ****   * @brief   Header file of RCC LL module.
   6:Drivers/STM32C0xx_HAL_Driver/Inc/stm32c0xx_ll_rcc.h ****   ******************************************************************************
   7:Drivers/STM32C0xx_HAL_Driver/Inc/stm32c0xx_ll_rcc.h ****   * @attention
   8:Drivers/STM32C0xx_HAL_Driver/Inc/stm32c0xx_ll_rcc.h ****   *
   9:Drivers/STM32C0xx_HAL_Driver/Inc/stm32c0xx_ll_rcc.h ****   * Copyright (c) 2022 STMicroelectronics.
  10:Drivers/STM32C0xx_HAL_Driver/Inc/stm32c0xx_ll_rcc.h ****   * All rights reserved.
  11:Drivers/STM32C0xx_HAL_Driver/Inc/stm32c0xx_ll_rcc.h ****   *
  12:Drivers/STM32C0xx_HAL_Driver/Inc/stm32c0xx_ll_rcc.h ****   * This software is licensed under terms that can be found in the LICENSE file
  13:Drivers/STM32C0xx_HAL_Driver/Inc/stm32c0xx_ll_rcc.h ****   * in the root directory of this software component.
  14:Drivers/STM32C0xx_HAL_Driver/Inc/stm32c0xx_ll_rcc.h ****   * If no LICENSE file comes with this software, it is provided AS-IS.
  15:Drivers/STM32C0xx_HAL_Driver/Inc/stm32c0xx_ll_rcc.h ****   *
  16:Drivers/STM32C0xx_HAL_Driver/Inc/stm32c0xx_ll_rcc.h ****   ******************************************************************************
  17:Drivers/STM32C0xx_HAL_Driver/Inc/stm32c0xx_ll_rcc.h ****   */
  18:Drivers/STM32C0xx_HAL_Driver/Inc/stm32c0xx_ll_rcc.h **** 
  19:Drivers/STM32C0xx_HAL_Driver/Inc/stm32c0xx_ll_rcc.h **** /* Define to prevent recursive inclusion -------------------------------------*/
  20:Drivers/STM32C0xx_HAL_Driver/Inc/stm32c0xx_ll_rcc.h **** #ifndef STM32C0xx_LL_RCC_H
  21:Drivers/STM32C0xx_HAL_Driver/Inc/stm32c0xx_ll_rcc.h **** #define STM32C0xx_LL_RCC_H
  22:Drivers/STM32C0xx_HAL_Driver/Inc/stm32c0xx_ll_rcc.h **** 
ARM GAS  /var/folders/nl/kwfz41d55ync1k9vlz8wmkc80000gn/T//ccPpmmCA.s 			page 35


  23:Drivers/STM32C0xx_HAL_Driver/Inc/stm32c0xx_ll_rcc.h **** #ifdef __cplusplus
  24:Drivers/STM32C0xx_HAL_Driver/Inc/stm32c0xx_ll_rcc.h **** extern "C" {
  25:Drivers/STM32C0xx_HAL_Driver/Inc/stm32c0xx_ll_rcc.h **** #endif
  26:Drivers/STM32C0xx_HAL_Driver/Inc/stm32c0xx_ll_rcc.h **** 
  27:Drivers/STM32C0xx_HAL_Driver/Inc/stm32c0xx_ll_rcc.h **** /* Includes ------------------------------------------------------------------*/
  28:Drivers/STM32C0xx_HAL_Driver/Inc/stm32c0xx_ll_rcc.h **** #include "stm32c0xx.h"
  29:Drivers/STM32C0xx_HAL_Driver/Inc/stm32c0xx_ll_rcc.h **** 
  30:Drivers/STM32C0xx_HAL_Driver/Inc/stm32c0xx_ll_rcc.h **** /** @addtogroup STM32C0xx_LL_Driver
  31:Drivers/STM32C0xx_HAL_Driver/Inc/stm32c0xx_ll_rcc.h ****   * @{
  32:Drivers/STM32C0xx_HAL_Driver/Inc/stm32c0xx_ll_rcc.h ****   */
  33:Drivers/STM32C0xx_HAL_Driver/Inc/stm32c0xx_ll_rcc.h **** 
  34:Drivers/STM32C0xx_HAL_Driver/Inc/stm32c0xx_ll_rcc.h **** #if defined(RCC)
  35:Drivers/STM32C0xx_HAL_Driver/Inc/stm32c0xx_ll_rcc.h **** 
  36:Drivers/STM32C0xx_HAL_Driver/Inc/stm32c0xx_ll_rcc.h **** /** @defgroup RCC_LL RCC
  37:Drivers/STM32C0xx_HAL_Driver/Inc/stm32c0xx_ll_rcc.h ****   * @{
  38:Drivers/STM32C0xx_HAL_Driver/Inc/stm32c0xx_ll_rcc.h ****   */
  39:Drivers/STM32C0xx_HAL_Driver/Inc/stm32c0xx_ll_rcc.h **** 
  40:Drivers/STM32C0xx_HAL_Driver/Inc/stm32c0xx_ll_rcc.h **** /* Private types -------------------------------------------------------------*/
  41:Drivers/STM32C0xx_HAL_Driver/Inc/stm32c0xx_ll_rcc.h **** /* Private variables ---------------------------------------------------------*/
  42:Drivers/STM32C0xx_HAL_Driver/Inc/stm32c0xx_ll_rcc.h **** /** @defgroup RCC_LL_Private_Variables RCC Private Variables
  43:Drivers/STM32C0xx_HAL_Driver/Inc/stm32c0xx_ll_rcc.h ****   * @{
  44:Drivers/STM32C0xx_HAL_Driver/Inc/stm32c0xx_ll_rcc.h ****   */
  45:Drivers/STM32C0xx_HAL_Driver/Inc/stm32c0xx_ll_rcc.h **** 
  46:Drivers/STM32C0xx_HAL_Driver/Inc/stm32c0xx_ll_rcc.h **** 
  47:Drivers/STM32C0xx_HAL_Driver/Inc/stm32c0xx_ll_rcc.h **** /**
  48:Drivers/STM32C0xx_HAL_Driver/Inc/stm32c0xx_ll_rcc.h ****   * @}
  49:Drivers/STM32C0xx_HAL_Driver/Inc/stm32c0xx_ll_rcc.h ****   */
  50:Drivers/STM32C0xx_HAL_Driver/Inc/stm32c0xx_ll_rcc.h **** 
  51:Drivers/STM32C0xx_HAL_Driver/Inc/stm32c0xx_ll_rcc.h **** /* Private constants ---------------------------------------------------------*/
  52:Drivers/STM32C0xx_HAL_Driver/Inc/stm32c0xx_ll_rcc.h **** /* Private macros ------------------------------------------------------------*/
  53:Drivers/STM32C0xx_HAL_Driver/Inc/stm32c0xx_ll_rcc.h **** #if defined(USE_FULL_LL_DRIVER)
  54:Drivers/STM32C0xx_HAL_Driver/Inc/stm32c0xx_ll_rcc.h **** /** @defgroup RCC_LL_Private_Macros RCC Private Macros
  55:Drivers/STM32C0xx_HAL_Driver/Inc/stm32c0xx_ll_rcc.h ****   * @{
  56:Drivers/STM32C0xx_HAL_Driver/Inc/stm32c0xx_ll_rcc.h ****   */
  57:Drivers/STM32C0xx_HAL_Driver/Inc/stm32c0xx_ll_rcc.h **** /**
  58:Drivers/STM32C0xx_HAL_Driver/Inc/stm32c0xx_ll_rcc.h ****   * @}
  59:Drivers/STM32C0xx_HAL_Driver/Inc/stm32c0xx_ll_rcc.h ****   */
  60:Drivers/STM32C0xx_HAL_Driver/Inc/stm32c0xx_ll_rcc.h **** #endif /*USE_FULL_LL_DRIVER*/
  61:Drivers/STM32C0xx_HAL_Driver/Inc/stm32c0xx_ll_rcc.h **** 
  62:Drivers/STM32C0xx_HAL_Driver/Inc/stm32c0xx_ll_rcc.h **** /* Exported types ------------------------------------------------------------*/
  63:Drivers/STM32C0xx_HAL_Driver/Inc/stm32c0xx_ll_rcc.h **** #if defined(USE_FULL_LL_DRIVER)
  64:Drivers/STM32C0xx_HAL_Driver/Inc/stm32c0xx_ll_rcc.h **** /** @defgroup RCC_LL_Exported_Types RCC Exported Types
  65:Drivers/STM32C0xx_HAL_Driver/Inc/stm32c0xx_ll_rcc.h ****   * @{
  66:Drivers/STM32C0xx_HAL_Driver/Inc/stm32c0xx_ll_rcc.h ****   */
  67:Drivers/STM32C0xx_HAL_Driver/Inc/stm32c0xx_ll_rcc.h **** 
  68:Drivers/STM32C0xx_HAL_Driver/Inc/stm32c0xx_ll_rcc.h **** /** @defgroup LL_ES_CLOCK_FREQ Clocks Frequency Structure
  69:Drivers/STM32C0xx_HAL_Driver/Inc/stm32c0xx_ll_rcc.h ****   * @{
  70:Drivers/STM32C0xx_HAL_Driver/Inc/stm32c0xx_ll_rcc.h ****   */
  71:Drivers/STM32C0xx_HAL_Driver/Inc/stm32c0xx_ll_rcc.h **** 
  72:Drivers/STM32C0xx_HAL_Driver/Inc/stm32c0xx_ll_rcc.h **** /**
  73:Drivers/STM32C0xx_HAL_Driver/Inc/stm32c0xx_ll_rcc.h ****   * @brief  RCC Clocks Frequency Structure
  74:Drivers/STM32C0xx_HAL_Driver/Inc/stm32c0xx_ll_rcc.h ****   */
  75:Drivers/STM32C0xx_HAL_Driver/Inc/stm32c0xx_ll_rcc.h **** typedef struct
  76:Drivers/STM32C0xx_HAL_Driver/Inc/stm32c0xx_ll_rcc.h **** {
  77:Drivers/STM32C0xx_HAL_Driver/Inc/stm32c0xx_ll_rcc.h ****   uint32_t SYSCLK_Frequency;        /*!< SYSCLK clock frequency */
  78:Drivers/STM32C0xx_HAL_Driver/Inc/stm32c0xx_ll_rcc.h ****   uint32_t HCLK_Frequency;          /*!< HCLK clock frequency */
  79:Drivers/STM32C0xx_HAL_Driver/Inc/stm32c0xx_ll_rcc.h ****   uint32_t PCLK1_Frequency;         /*!< PCLK1 clock frequency */
ARM GAS  /var/folders/nl/kwfz41d55ync1k9vlz8wmkc80000gn/T//ccPpmmCA.s 			page 36


  80:Drivers/STM32C0xx_HAL_Driver/Inc/stm32c0xx_ll_rcc.h **** } LL_RCC_ClocksTypeDef;
  81:Drivers/STM32C0xx_HAL_Driver/Inc/stm32c0xx_ll_rcc.h **** 
  82:Drivers/STM32C0xx_HAL_Driver/Inc/stm32c0xx_ll_rcc.h **** /**
  83:Drivers/STM32C0xx_HAL_Driver/Inc/stm32c0xx_ll_rcc.h ****   * @}
  84:Drivers/STM32C0xx_HAL_Driver/Inc/stm32c0xx_ll_rcc.h ****   */
  85:Drivers/STM32C0xx_HAL_Driver/Inc/stm32c0xx_ll_rcc.h **** 
  86:Drivers/STM32C0xx_HAL_Driver/Inc/stm32c0xx_ll_rcc.h **** /**
  87:Drivers/STM32C0xx_HAL_Driver/Inc/stm32c0xx_ll_rcc.h ****   * @}
  88:Drivers/STM32C0xx_HAL_Driver/Inc/stm32c0xx_ll_rcc.h ****   */
  89:Drivers/STM32C0xx_HAL_Driver/Inc/stm32c0xx_ll_rcc.h **** #endif /* USE_FULL_LL_DRIVER */
  90:Drivers/STM32C0xx_HAL_Driver/Inc/stm32c0xx_ll_rcc.h **** 
  91:Drivers/STM32C0xx_HAL_Driver/Inc/stm32c0xx_ll_rcc.h **** /* Exported constants --------------------------------------------------------*/
  92:Drivers/STM32C0xx_HAL_Driver/Inc/stm32c0xx_ll_rcc.h **** /** @defgroup RCC_LL_Exported_Constants RCC Exported Constants
  93:Drivers/STM32C0xx_HAL_Driver/Inc/stm32c0xx_ll_rcc.h ****   * @{
  94:Drivers/STM32C0xx_HAL_Driver/Inc/stm32c0xx_ll_rcc.h ****   */
  95:Drivers/STM32C0xx_HAL_Driver/Inc/stm32c0xx_ll_rcc.h **** 
  96:Drivers/STM32C0xx_HAL_Driver/Inc/stm32c0xx_ll_rcc.h **** /** @defgroup RCC_LL_EC_OSC_VALUES Oscillator Values adaptation
  97:Drivers/STM32C0xx_HAL_Driver/Inc/stm32c0xx_ll_rcc.h ****   * @brief    Defines used to adapt values of different oscillators
  98:Drivers/STM32C0xx_HAL_Driver/Inc/stm32c0xx_ll_rcc.h ****   * @note     These values could be modified in the user environment according to
  99:Drivers/STM32C0xx_HAL_Driver/Inc/stm32c0xx_ll_rcc.h ****   *           HW set-up.
 100:Drivers/STM32C0xx_HAL_Driver/Inc/stm32c0xx_ll_rcc.h ****   * @{
 101:Drivers/STM32C0xx_HAL_Driver/Inc/stm32c0xx_ll_rcc.h ****   */
 102:Drivers/STM32C0xx_HAL_Driver/Inc/stm32c0xx_ll_rcc.h **** #if !defined  (HSE_VALUE)
 103:Drivers/STM32C0xx_HAL_Driver/Inc/stm32c0xx_ll_rcc.h **** #define HSE_VALUE    48000000U   /*!< Value of the HSE oscillator in Hz */
 104:Drivers/STM32C0xx_HAL_Driver/Inc/stm32c0xx_ll_rcc.h **** #endif /* HSE_VALUE */
 105:Drivers/STM32C0xx_HAL_Driver/Inc/stm32c0xx_ll_rcc.h **** 
 106:Drivers/STM32C0xx_HAL_Driver/Inc/stm32c0xx_ll_rcc.h **** #if !defined  (HSI_VALUE)
 107:Drivers/STM32C0xx_HAL_Driver/Inc/stm32c0xx_ll_rcc.h **** #define HSI_VALUE    48000000U  /*!< Value of the HSI oscillator in Hz */
 108:Drivers/STM32C0xx_HAL_Driver/Inc/stm32c0xx_ll_rcc.h **** #endif /* HSI_VALUE */
 109:Drivers/STM32C0xx_HAL_Driver/Inc/stm32c0xx_ll_rcc.h **** 
 110:Drivers/STM32C0xx_HAL_Driver/Inc/stm32c0xx_ll_rcc.h **** #if !defined  (LSE_VALUE)
 111:Drivers/STM32C0xx_HAL_Driver/Inc/stm32c0xx_ll_rcc.h **** #define LSE_VALUE    32768U     /*!< Value of the LSE oscillator in Hz */
 112:Drivers/STM32C0xx_HAL_Driver/Inc/stm32c0xx_ll_rcc.h **** #endif /* LSE_VALUE */
 113:Drivers/STM32C0xx_HAL_Driver/Inc/stm32c0xx_ll_rcc.h **** 
 114:Drivers/STM32C0xx_HAL_Driver/Inc/stm32c0xx_ll_rcc.h **** #if !defined  (LSI_VALUE)
 115:Drivers/STM32C0xx_HAL_Driver/Inc/stm32c0xx_ll_rcc.h **** #define LSI_VALUE    32000U     /*!< Value of the LSI oscillator in Hz */
 116:Drivers/STM32C0xx_HAL_Driver/Inc/stm32c0xx_ll_rcc.h **** #endif /* LSI_VALUE */
 117:Drivers/STM32C0xx_HAL_Driver/Inc/stm32c0xx_ll_rcc.h **** #if !defined  (EXTERNAL_CLOCK_VALUE)
 118:Drivers/STM32C0xx_HAL_Driver/Inc/stm32c0xx_ll_rcc.h **** #define EXTERNAL_CLOCK_VALUE    48000000U /*!< Value of the I2S_CKIN external oscillator in Hz */
 119:Drivers/STM32C0xx_HAL_Driver/Inc/stm32c0xx_ll_rcc.h **** #endif /* EXTERNAL_CLOCK_VALUE */
 120:Drivers/STM32C0xx_HAL_Driver/Inc/stm32c0xx_ll_rcc.h **** /**
 121:Drivers/STM32C0xx_HAL_Driver/Inc/stm32c0xx_ll_rcc.h ****   * @}
 122:Drivers/STM32C0xx_HAL_Driver/Inc/stm32c0xx_ll_rcc.h ****   */
 123:Drivers/STM32C0xx_HAL_Driver/Inc/stm32c0xx_ll_rcc.h **** 
 124:Drivers/STM32C0xx_HAL_Driver/Inc/stm32c0xx_ll_rcc.h **** /** @defgroup RCC_LL_EC_CLEAR_FLAG Clear Flags Defines
 125:Drivers/STM32C0xx_HAL_Driver/Inc/stm32c0xx_ll_rcc.h ****   * @brief    Flags defines which can be used with LL_RCC_WriteReg function
 126:Drivers/STM32C0xx_HAL_Driver/Inc/stm32c0xx_ll_rcc.h ****   * @{
 127:Drivers/STM32C0xx_HAL_Driver/Inc/stm32c0xx_ll_rcc.h ****   */
 128:Drivers/STM32C0xx_HAL_Driver/Inc/stm32c0xx_ll_rcc.h **** #define LL_RCC_CICR_LSIRDYC                RCC_CICR_LSIRDYC     /*!< LSI Ready Interrupt Clear */
 129:Drivers/STM32C0xx_HAL_Driver/Inc/stm32c0xx_ll_rcc.h **** #define LL_RCC_CICR_LSERDYC                RCC_CICR_LSERDYC     /*!< LSE Ready Interrupt Clear */
 130:Drivers/STM32C0xx_HAL_Driver/Inc/stm32c0xx_ll_rcc.h **** #define LL_RCC_CICR_HSIRDYC                RCC_CICR_HSIRDYC     /*!< HSI Ready Interrupt Clear */
 131:Drivers/STM32C0xx_HAL_Driver/Inc/stm32c0xx_ll_rcc.h **** #define LL_RCC_CICR_HSERDYC                RCC_CICR_HSERDYC     /*!< HSE Ready Interrupt Clear */
 132:Drivers/STM32C0xx_HAL_Driver/Inc/stm32c0xx_ll_rcc.h **** #define LL_RCC_CICR_LSECSSC                RCC_CICR_LSECSSC     /*!< LSE Clock Security System Inte
 133:Drivers/STM32C0xx_HAL_Driver/Inc/stm32c0xx_ll_rcc.h **** #define LL_RCC_CICR_CSSC                   RCC_CICR_CSSC        /*!< Clock Security System Interrup
 134:Drivers/STM32C0xx_HAL_Driver/Inc/stm32c0xx_ll_rcc.h **** /**
 135:Drivers/STM32C0xx_HAL_Driver/Inc/stm32c0xx_ll_rcc.h ****   * @}
 136:Drivers/STM32C0xx_HAL_Driver/Inc/stm32c0xx_ll_rcc.h ****   */
ARM GAS  /var/folders/nl/kwfz41d55ync1k9vlz8wmkc80000gn/T//ccPpmmCA.s 			page 37


 137:Drivers/STM32C0xx_HAL_Driver/Inc/stm32c0xx_ll_rcc.h **** 
 138:Drivers/STM32C0xx_HAL_Driver/Inc/stm32c0xx_ll_rcc.h **** /** @defgroup RCC_LL_EC_GET_FLAG Get Flags Defines
 139:Drivers/STM32C0xx_HAL_Driver/Inc/stm32c0xx_ll_rcc.h ****   * @brief    Flags defines which can be used with LL_RCC_ReadReg function
 140:Drivers/STM32C0xx_HAL_Driver/Inc/stm32c0xx_ll_rcc.h ****   * @{
 141:Drivers/STM32C0xx_HAL_Driver/Inc/stm32c0xx_ll_rcc.h ****   */
 142:Drivers/STM32C0xx_HAL_Driver/Inc/stm32c0xx_ll_rcc.h **** #define LL_RCC_CIFR_LSIRDYF                RCC_CIFR_LSIRDYF     /*!< LSI Ready Interrupt flag */
 143:Drivers/STM32C0xx_HAL_Driver/Inc/stm32c0xx_ll_rcc.h **** #define LL_RCC_CIFR_LSERDYF                RCC_CIFR_LSERDYF     /*!< LSE Ready Interrupt flag */
 144:Drivers/STM32C0xx_HAL_Driver/Inc/stm32c0xx_ll_rcc.h **** #define LL_RCC_CIFR_HSIRDYF                RCC_CIFR_HSIRDYF     /*!< HSI Ready Interrupt flag */
 145:Drivers/STM32C0xx_HAL_Driver/Inc/stm32c0xx_ll_rcc.h **** #define LL_RCC_CIFR_HSERDYF                RCC_CIFR_HSERDYF     /*!< HSE Ready Interrupt flag */
 146:Drivers/STM32C0xx_HAL_Driver/Inc/stm32c0xx_ll_rcc.h **** #define LL_RCC_CIFR_LSECSSF                RCC_CIFR_LSECSSF     /*!< LSE Clock Security System Inte
 147:Drivers/STM32C0xx_HAL_Driver/Inc/stm32c0xx_ll_rcc.h **** #define LL_RCC_CIFR_CSSF                   RCC_CIFR_CSSF        /*!< Clock Security System Interrup
 148:Drivers/STM32C0xx_HAL_Driver/Inc/stm32c0xx_ll_rcc.h **** #define LL_RCC_CSR_LPWRRSTF                RCC_CSR_LPWRRSTF     /*!< Low-Power reset flag */
 149:Drivers/STM32C0xx_HAL_Driver/Inc/stm32c0xx_ll_rcc.h **** #define LL_RCC_CSR_OBLRSTF                 RCC_CSR_OBLRSTF      /*!< OBL reset flag */
 150:Drivers/STM32C0xx_HAL_Driver/Inc/stm32c0xx_ll_rcc.h **** #define LL_RCC_CSR_PINRSTF                 RCC_CSR_PINRSTF      /*!< PIN reset flag */
 151:Drivers/STM32C0xx_HAL_Driver/Inc/stm32c0xx_ll_rcc.h **** #define LL_RCC_CSR_SFTRSTF                 RCC_CSR_SFTRSTF      /*!< Software Reset flag */
 152:Drivers/STM32C0xx_HAL_Driver/Inc/stm32c0xx_ll_rcc.h **** #define LL_RCC_CSR_IWDGRSTF                RCC_CSR_IWDGRSTF     /*!< Independent Watchdog reset fla
 153:Drivers/STM32C0xx_HAL_Driver/Inc/stm32c0xx_ll_rcc.h **** #define LL_RCC_CSR_WWDGRSTF                RCC_CSR_WWDGRSTF     /*!< Window watchdog reset flag */
 154:Drivers/STM32C0xx_HAL_Driver/Inc/stm32c0xx_ll_rcc.h **** #define LL_RCC_CSR_PWRRSTF                 RCC_CSR_PWRRSTF      /*!< BOR or POR/PDR reset flag */
 155:Drivers/STM32C0xx_HAL_Driver/Inc/stm32c0xx_ll_rcc.h **** /**
 156:Drivers/STM32C0xx_HAL_Driver/Inc/stm32c0xx_ll_rcc.h ****   * @}
 157:Drivers/STM32C0xx_HAL_Driver/Inc/stm32c0xx_ll_rcc.h ****   */
 158:Drivers/STM32C0xx_HAL_Driver/Inc/stm32c0xx_ll_rcc.h **** 
 159:Drivers/STM32C0xx_HAL_Driver/Inc/stm32c0xx_ll_rcc.h **** /** @defgroup RCC_LL_EC_IT IT Defines
 160:Drivers/STM32C0xx_HAL_Driver/Inc/stm32c0xx_ll_rcc.h ****   * @brief    IT defines which can be used with LL_RCC_ReadReg and  LL_RCC_WriteReg functions
 161:Drivers/STM32C0xx_HAL_Driver/Inc/stm32c0xx_ll_rcc.h ****   * @{
 162:Drivers/STM32C0xx_HAL_Driver/Inc/stm32c0xx_ll_rcc.h ****   */
 163:Drivers/STM32C0xx_HAL_Driver/Inc/stm32c0xx_ll_rcc.h **** #define LL_RCC_CIER_LSIRDYIE               RCC_CIER_LSIRDYIE      /*!< LSI Ready Interrupt Enable *
 164:Drivers/STM32C0xx_HAL_Driver/Inc/stm32c0xx_ll_rcc.h **** #define LL_RCC_CIER_LSERDYIE               RCC_CIER_LSERDYIE      /*!< LSE Ready Interrupt Enable *
 165:Drivers/STM32C0xx_HAL_Driver/Inc/stm32c0xx_ll_rcc.h **** #define LL_RCC_CIER_HSIRDYIE               RCC_CIER_HSIRDYIE      /*!< HSI Ready Interrupt Enable *
 166:Drivers/STM32C0xx_HAL_Driver/Inc/stm32c0xx_ll_rcc.h **** #define LL_RCC_CIER_HSERDYIE               RCC_CIER_HSERDYIE      /*!< HSE Ready Interrupt Enable *
 167:Drivers/STM32C0xx_HAL_Driver/Inc/stm32c0xx_ll_rcc.h **** /**
 168:Drivers/STM32C0xx_HAL_Driver/Inc/stm32c0xx_ll_rcc.h ****   * @}
 169:Drivers/STM32C0xx_HAL_Driver/Inc/stm32c0xx_ll_rcc.h ****   */
 170:Drivers/STM32C0xx_HAL_Driver/Inc/stm32c0xx_ll_rcc.h **** 
 171:Drivers/STM32C0xx_HAL_Driver/Inc/stm32c0xx_ll_rcc.h **** /** @defgroup RCC_LL_EC_LSEDRIVE  LSE oscillator drive capability
 172:Drivers/STM32C0xx_HAL_Driver/Inc/stm32c0xx_ll_rcc.h ****   * @{
 173:Drivers/STM32C0xx_HAL_Driver/Inc/stm32c0xx_ll_rcc.h ****   */
 174:Drivers/STM32C0xx_HAL_Driver/Inc/stm32c0xx_ll_rcc.h **** #define LL_RCC_LSEDRIVE_LOW                0x00000000U             /*!< Xtal mode lower driving cap
 175:Drivers/STM32C0xx_HAL_Driver/Inc/stm32c0xx_ll_rcc.h **** #define LL_RCC_LSEDRIVE_MEDIUMLOW          RCC_CSR1_LSEDRV_0       /*!< Xtal mode medium low drivin
 176:Drivers/STM32C0xx_HAL_Driver/Inc/stm32c0xx_ll_rcc.h **** #define LL_RCC_LSEDRIVE_MEDIUMHIGH         RCC_CSR1_LSEDRV_1       /*!< Xtal mode medium high drivi
 177:Drivers/STM32C0xx_HAL_Driver/Inc/stm32c0xx_ll_rcc.h **** #define LL_RCC_LSEDRIVE_HIGH               RCC_CSR1_LSEDRV         /*!< Xtal mode higher driving ca
 178:Drivers/STM32C0xx_HAL_Driver/Inc/stm32c0xx_ll_rcc.h **** /**
 179:Drivers/STM32C0xx_HAL_Driver/Inc/stm32c0xx_ll_rcc.h ****   * @}
 180:Drivers/STM32C0xx_HAL_Driver/Inc/stm32c0xx_ll_rcc.h ****   */
 181:Drivers/STM32C0xx_HAL_Driver/Inc/stm32c0xx_ll_rcc.h **** 
 182:Drivers/STM32C0xx_HAL_Driver/Inc/stm32c0xx_ll_rcc.h **** /** @defgroup RCC_LL_EC_LSCO_CLKSOURCE  LSCO Selection
 183:Drivers/STM32C0xx_HAL_Driver/Inc/stm32c0xx_ll_rcc.h ****   * @{
 184:Drivers/STM32C0xx_HAL_Driver/Inc/stm32c0xx_ll_rcc.h ****   */
 185:Drivers/STM32C0xx_HAL_Driver/Inc/stm32c0xx_ll_rcc.h **** #define LL_RCC_LSCO_CLKSOURCE_LSI          0x00000000U                 /*!< LSI selection for low s
 186:Drivers/STM32C0xx_HAL_Driver/Inc/stm32c0xx_ll_rcc.h **** #define LL_RCC_LSCO_CLKSOURCE_LSE          RCC_CSR1_LSCOSEL            /*!< LSE selection for low s
 187:Drivers/STM32C0xx_HAL_Driver/Inc/stm32c0xx_ll_rcc.h **** /**
 188:Drivers/STM32C0xx_HAL_Driver/Inc/stm32c0xx_ll_rcc.h ****   * @}
 189:Drivers/STM32C0xx_HAL_Driver/Inc/stm32c0xx_ll_rcc.h ****   */
 190:Drivers/STM32C0xx_HAL_Driver/Inc/stm32c0xx_ll_rcc.h **** 
 191:Drivers/STM32C0xx_HAL_Driver/Inc/stm32c0xx_ll_rcc.h **** /** @defgroup RCC_LL_EC_SYS_CLKSOURCE  System clock switch
 192:Drivers/STM32C0xx_HAL_Driver/Inc/stm32c0xx_ll_rcc.h ****   * @{
 193:Drivers/STM32C0xx_HAL_Driver/Inc/stm32c0xx_ll_rcc.h ****   */
ARM GAS  /var/folders/nl/kwfz41d55ync1k9vlz8wmkc80000gn/T//ccPpmmCA.s 			page 38


 194:Drivers/STM32C0xx_HAL_Driver/Inc/stm32c0xx_ll_rcc.h **** #define LL_RCC_SYS_CLKSOURCE_HSI           0x00000000U                        /*!< HSI selection as
 195:Drivers/STM32C0xx_HAL_Driver/Inc/stm32c0xx_ll_rcc.h **** #define LL_RCC_SYS_CLKSOURCE_HSE           RCC_CFGR_SW_0                      /*!< HSE selection as
 196:Drivers/STM32C0xx_HAL_Driver/Inc/stm32c0xx_ll_rcc.h **** #define LL_RCC_SYS_CLKSOURCE_LSI           (RCC_CFGR_SW_1 | RCC_CFGR_SW_0)    /*!< LSI selection us
 197:Drivers/STM32C0xx_HAL_Driver/Inc/stm32c0xx_ll_rcc.h **** #define LL_RCC_SYS_CLKSOURCE_LSE           RCC_CFGR_SW_2                      /*!< LSE selection us
 198:Drivers/STM32C0xx_HAL_Driver/Inc/stm32c0xx_ll_rcc.h **** /**
 199:Drivers/STM32C0xx_HAL_Driver/Inc/stm32c0xx_ll_rcc.h ****   * @}
 200:Drivers/STM32C0xx_HAL_Driver/Inc/stm32c0xx_ll_rcc.h ****   */
 201:Drivers/STM32C0xx_HAL_Driver/Inc/stm32c0xx_ll_rcc.h **** 
 202:Drivers/STM32C0xx_HAL_Driver/Inc/stm32c0xx_ll_rcc.h **** /** @defgroup RCC_LL_EC_SYS_CLKSOURCE_STATUS  System clock switch status
 203:Drivers/STM32C0xx_HAL_Driver/Inc/stm32c0xx_ll_rcc.h ****   * @{
 204:Drivers/STM32C0xx_HAL_Driver/Inc/stm32c0xx_ll_rcc.h ****   */
 205:Drivers/STM32C0xx_HAL_Driver/Inc/stm32c0xx_ll_rcc.h **** #define LL_RCC_SYS_CLKSOURCE_STATUS_HSI    0x00000000U                         /*!< HSI used as sys
 206:Drivers/STM32C0xx_HAL_Driver/Inc/stm32c0xx_ll_rcc.h **** #define LL_RCC_SYS_CLKSOURCE_STATUS_HSE    RCC_CFGR_SWS_0                      /*!< HSE used as sys
 207:Drivers/STM32C0xx_HAL_Driver/Inc/stm32c0xx_ll_rcc.h **** #define LL_RCC_SYS_CLKSOURCE_STATUS_LSI    (RCC_CFGR_SWS_1 | RCC_CFGR_SWS_0)   /*!< LSI used as sys
 208:Drivers/STM32C0xx_HAL_Driver/Inc/stm32c0xx_ll_rcc.h **** #define LL_RCC_SYS_CLKSOURCE_STATUS_LSE    RCC_CFGR_SWS_2                      /*!< LSE used as sys
 209:Drivers/STM32C0xx_HAL_Driver/Inc/stm32c0xx_ll_rcc.h **** /**
 210:Drivers/STM32C0xx_HAL_Driver/Inc/stm32c0xx_ll_rcc.h ****   * @}
 211:Drivers/STM32C0xx_HAL_Driver/Inc/stm32c0xx_ll_rcc.h ****   */
 212:Drivers/STM32C0xx_HAL_Driver/Inc/stm32c0xx_ll_rcc.h **** 
 213:Drivers/STM32C0xx_HAL_Driver/Inc/stm32c0xx_ll_rcc.h **** /** @defgroup RCC_LL_EC_SYSCLK_DIV  AHB prescaler
 214:Drivers/STM32C0xx_HAL_Driver/Inc/stm32c0xx_ll_rcc.h ****   * @{
 215:Drivers/STM32C0xx_HAL_Driver/Inc/stm32c0xx_ll_rcc.h ****   */
 216:Drivers/STM32C0xx_HAL_Driver/Inc/stm32c0xx_ll_rcc.h **** #define LL_RCC_SYSCLK_DIV_1                0x00000000U                                             
 217:Drivers/STM32C0xx_HAL_Driver/Inc/stm32c0xx_ll_rcc.h **** /**
 218:Drivers/STM32C0xx_HAL_Driver/Inc/stm32c0xx_ll_rcc.h ****   * @}
 219:Drivers/STM32C0xx_HAL_Driver/Inc/stm32c0xx_ll_rcc.h ****   */
 220:Drivers/STM32C0xx_HAL_Driver/Inc/stm32c0xx_ll_rcc.h **** 
 221:Drivers/STM32C0xx_HAL_Driver/Inc/stm32c0xx_ll_rcc.h **** /** @defgroup RCC_HCLK_Clock_Source  RCC HCLK Clock Source
 222:Drivers/STM32C0xx_HAL_Driver/Inc/stm32c0xx_ll_rcc.h ****   * @{
 223:Drivers/STM32C0xx_HAL_Driver/Inc/stm32c0xx_ll_rcc.h ****   */
 224:Drivers/STM32C0xx_HAL_Driver/Inc/stm32c0xx_ll_rcc.h **** #define LL_RCC_HCLK_DIV_1                  0x00000000U                                             
 225:Drivers/STM32C0xx_HAL_Driver/Inc/stm32c0xx_ll_rcc.h **** #define LL_RCC_HCLK_DIV_2                  RCC_CFGR_HPRE_3                                         
 226:Drivers/STM32C0xx_HAL_Driver/Inc/stm32c0xx_ll_rcc.h **** #define LL_RCC_HCLK_DIV_4                  (RCC_CFGR_HPRE_3 | RCC_CFGR_HPRE_0)                     
 227:Drivers/STM32C0xx_HAL_Driver/Inc/stm32c0xx_ll_rcc.h **** #define LL_RCC_HCLK_DIV_8                  (RCC_CFGR_HPRE_3 | RCC_CFGR_HPRE_1)                     
 228:Drivers/STM32C0xx_HAL_Driver/Inc/stm32c0xx_ll_rcc.h **** #define LL_RCC_HCLK_DIV_16                 (RCC_CFGR_HPRE_3 | RCC_CFGR_HPRE_1 | RCC_CFGR_HPRE_0)   
 229:Drivers/STM32C0xx_HAL_Driver/Inc/stm32c0xx_ll_rcc.h **** #define LL_RCC_HCLK_DIV_64                 (RCC_CFGR_HPRE_3 | RCC_CFGR_HPRE_2)                     
 230:Drivers/STM32C0xx_HAL_Driver/Inc/stm32c0xx_ll_rcc.h **** #define LL_RCC_HCLK_DIV_128                (RCC_CFGR_HPRE_3 | RCC_CFGR_HPRE_2 | RCC_CFGR_HPRE_0)   
 231:Drivers/STM32C0xx_HAL_Driver/Inc/stm32c0xx_ll_rcc.h **** #define LL_RCC_HCLK_DIV_256                (RCC_CFGR_HPRE_3 | RCC_CFGR_HPRE_2 | RCC_CFGR_HPRE_1)   
 232:Drivers/STM32C0xx_HAL_Driver/Inc/stm32c0xx_ll_rcc.h **** #define LL_RCC_HCLK_DIV_512                (RCC_CFGR_HPRE_3 | RCC_CFGR_HPRE_2 | RCC_CFGR_HPRE_1 | R
 233:Drivers/STM32C0xx_HAL_Driver/Inc/stm32c0xx_ll_rcc.h **** /**
 234:Drivers/STM32C0xx_HAL_Driver/Inc/stm32c0xx_ll_rcc.h ****   * @}
 235:Drivers/STM32C0xx_HAL_Driver/Inc/stm32c0xx_ll_rcc.h ****   */
 236:Drivers/STM32C0xx_HAL_Driver/Inc/stm32c0xx_ll_rcc.h **** 
 237:Drivers/STM32C0xx_HAL_Driver/Inc/stm32c0xx_ll_rcc.h **** /** @defgroup RCC_LL_EC_APB1_DIV  APB low-speed prescaler (APB1)
 238:Drivers/STM32C0xx_HAL_Driver/Inc/stm32c0xx_ll_rcc.h ****   * @{
 239:Drivers/STM32C0xx_HAL_Driver/Inc/stm32c0xx_ll_rcc.h ****   */
 240:Drivers/STM32C0xx_HAL_Driver/Inc/stm32c0xx_ll_rcc.h **** #define LL_RCC_APB1_DIV_1                  0x00000000U                                           /*
 241:Drivers/STM32C0xx_HAL_Driver/Inc/stm32c0xx_ll_rcc.h **** #define LL_RCC_APB1_DIV_2                  RCC_CFGR_PPRE_2                                       /*
 242:Drivers/STM32C0xx_HAL_Driver/Inc/stm32c0xx_ll_rcc.h **** #define LL_RCC_APB1_DIV_4                  (RCC_CFGR_PPRE_2 | RCC_CFGR_PPRE_0)                   /*
 243:Drivers/STM32C0xx_HAL_Driver/Inc/stm32c0xx_ll_rcc.h **** #define LL_RCC_APB1_DIV_8                  (RCC_CFGR_PPRE_2 | RCC_CFGR_PPRE_1)                   /*
 244:Drivers/STM32C0xx_HAL_Driver/Inc/stm32c0xx_ll_rcc.h **** #define LL_RCC_APB1_DIV_16                 (RCC_CFGR_PPRE_2 | RCC_CFGR_PPRE_1 | RCC_CFGR_PPRE_0) /*
 245:Drivers/STM32C0xx_HAL_Driver/Inc/stm32c0xx_ll_rcc.h **** /**
 246:Drivers/STM32C0xx_HAL_Driver/Inc/stm32c0xx_ll_rcc.h ****   * @}
 247:Drivers/STM32C0xx_HAL_Driver/Inc/stm32c0xx_ll_rcc.h ****   */
 248:Drivers/STM32C0xx_HAL_Driver/Inc/stm32c0xx_ll_rcc.h **** 
 249:Drivers/STM32C0xx_HAL_Driver/Inc/stm32c0xx_ll_rcc.h **** /** @defgroup RCC_LL_EC_HSI_DIV  HSI division factor
 250:Drivers/STM32C0xx_HAL_Driver/Inc/stm32c0xx_ll_rcc.h ****   * @{
ARM GAS  /var/folders/nl/kwfz41d55ync1k9vlz8wmkc80000gn/T//ccPpmmCA.s 			page 39


 251:Drivers/STM32C0xx_HAL_Driver/Inc/stm32c0xx_ll_rcc.h ****   */
 252:Drivers/STM32C0xx_HAL_Driver/Inc/stm32c0xx_ll_rcc.h **** #define LL_RCC_HSI_DIV_1                  0x00000000U                                /*!< HSI not d
 253:Drivers/STM32C0xx_HAL_Driver/Inc/stm32c0xx_ll_rcc.h **** #define LL_RCC_HSI_DIV_2                  RCC_CR_HSIDIV_0                            /*!< HSI divid
 254:Drivers/STM32C0xx_HAL_Driver/Inc/stm32c0xx_ll_rcc.h **** #define LL_RCC_HSI_DIV_4                  RCC_CR_HSIDIV_1                            /*!< HSI divid
 255:Drivers/STM32C0xx_HAL_Driver/Inc/stm32c0xx_ll_rcc.h **** #define LL_RCC_HSI_DIV_8                  (RCC_CR_HSIDIV_1 | RCC_CR_HSIDIV_0)        /*!< HSI divid
 256:Drivers/STM32C0xx_HAL_Driver/Inc/stm32c0xx_ll_rcc.h **** #define LL_RCC_HSI_DIV_16                 RCC_CR_HSIDIV_2                            /*!< HSI divid
 257:Drivers/STM32C0xx_HAL_Driver/Inc/stm32c0xx_ll_rcc.h **** #define LL_RCC_HSI_DIV_32                 (RCC_CR_HSIDIV_2 | RCC_CR_HSIDIV_0)        /*!< HSI divid
 258:Drivers/STM32C0xx_HAL_Driver/Inc/stm32c0xx_ll_rcc.h **** #define LL_RCC_HSI_DIV_64                 (RCC_CR_HSIDIV_2 | RCC_CR_HSIDIV_1)        /*!< HSI divid
 259:Drivers/STM32C0xx_HAL_Driver/Inc/stm32c0xx_ll_rcc.h **** #define LL_RCC_HSI_DIV_128                RCC_CR_HSIDIV                              /*!< HSI divid
 260:Drivers/STM32C0xx_HAL_Driver/Inc/stm32c0xx_ll_rcc.h **** /**
 261:Drivers/STM32C0xx_HAL_Driver/Inc/stm32c0xx_ll_rcc.h ****   * @}
 262:Drivers/STM32C0xx_HAL_Driver/Inc/stm32c0xx_ll_rcc.h ****   */
 263:Drivers/STM32C0xx_HAL_Driver/Inc/stm32c0xx_ll_rcc.h **** 
 264:Drivers/STM32C0xx_HAL_Driver/Inc/stm32c0xx_ll_rcc.h **** /** @defgroup RCC_LL_EC_HSIKER_DIV  HSI Kernel division factor
 265:Drivers/STM32C0xx_HAL_Driver/Inc/stm32c0xx_ll_rcc.h ****   * @{
 266:Drivers/STM32C0xx_HAL_Driver/Inc/stm32c0xx_ll_rcc.h ****   */
 267:Drivers/STM32C0xx_HAL_Driver/Inc/stm32c0xx_ll_rcc.h **** #define LL_RCC_HSIKER_DIV_1                  0x00000000U                                /*!< HSI ke
 268:Drivers/STM32C0xx_HAL_Driver/Inc/stm32c0xx_ll_rcc.h **** #define LL_RCC_HSIKER_DIV_2                  RCC_CR_HSIKERDIV_0                         /*!< HSI ke
 269:Drivers/STM32C0xx_HAL_Driver/Inc/stm32c0xx_ll_rcc.h **** #define LL_RCC_HSIKER_DIV_3                  RCC_CR_HSIKERDIV_1                         /*!< HSI ke
 270:Drivers/STM32C0xx_HAL_Driver/Inc/stm32c0xx_ll_rcc.h **** #define LL_RCC_HSIKER_DIV_4                  (RCC_CR_HSIKERDIV_1 | RCC_CR_HSIKERDIV_0)  /*!< HSI ke
 271:Drivers/STM32C0xx_HAL_Driver/Inc/stm32c0xx_ll_rcc.h **** #define LL_RCC_HSIKER_DIV_5                  RCC_CR_HSIKERDIV_2                         /*!< HSI ke
 272:Drivers/STM32C0xx_HAL_Driver/Inc/stm32c0xx_ll_rcc.h **** #define LL_RCC_HSIKER_DIV_6                  (RCC_CR_HSIKERDIV_2 | RCC_CR_HSIKERDIV_0)  /*!< HSI ke
 273:Drivers/STM32C0xx_HAL_Driver/Inc/stm32c0xx_ll_rcc.h **** #define LL_RCC_HSIKER_DIV_7                  (RCC_CR_HSIKERDIV_2 | RCC_CR_HSIKERDIV_1)  /*!< HSI ke
 274:Drivers/STM32C0xx_HAL_Driver/Inc/stm32c0xx_ll_rcc.h **** #define LL_RCC_HSIKER_DIV_8                  RCC_CR_HSIKERDIV                           /*!< HSI ke
 275:Drivers/STM32C0xx_HAL_Driver/Inc/stm32c0xx_ll_rcc.h **** /**
 276:Drivers/STM32C0xx_HAL_Driver/Inc/stm32c0xx_ll_rcc.h ****   * @}
 277:Drivers/STM32C0xx_HAL_Driver/Inc/stm32c0xx_ll_rcc.h ****   */
 278:Drivers/STM32C0xx_HAL_Driver/Inc/stm32c0xx_ll_rcc.h **** 
 279:Drivers/STM32C0xx_HAL_Driver/Inc/stm32c0xx_ll_rcc.h **** /** @defgroup RCC_LL_EC_MCO1SOURCE  MCO1 SOURCE selection
 280:Drivers/STM32C0xx_HAL_Driver/Inc/stm32c0xx_ll_rcc.h ****   * @{
 281:Drivers/STM32C0xx_HAL_Driver/Inc/stm32c0xx_ll_rcc.h ****   */
 282:Drivers/STM32C0xx_HAL_Driver/Inc/stm32c0xx_ll_rcc.h **** #define LL_RCC_MCO1SOURCE_NOCLOCK          0x00000000U                            /*!< MCO output d
 283:Drivers/STM32C0xx_HAL_Driver/Inc/stm32c0xx_ll_rcc.h **** #define LL_RCC_MCO1SOURCE_SYSCLK           RCC_CFGR_MCOSEL_0                      /*!< SYSCLK selec
 284:Drivers/STM32C0xx_HAL_Driver/Inc/stm32c0xx_ll_rcc.h **** #define LL_RCC_MCO1SOURCE_HSI              (RCC_CFGR_MCOSEL_0| RCC_CFGR_MCOSEL_1) /*!< HSI16 select
 285:Drivers/STM32C0xx_HAL_Driver/Inc/stm32c0xx_ll_rcc.h **** #define LL_RCC_MCO1SOURCE_HSE              RCC_CFGR_MCOSEL_2                      /*!< HSE selectio
 286:Drivers/STM32C0xx_HAL_Driver/Inc/stm32c0xx_ll_rcc.h **** #define LL_RCC_MCO1SOURCE_LSI              (RCC_CFGR_MCOSEL_1|RCC_CFGR_MCOSEL_2)  /*!< LSI selectio
 287:Drivers/STM32C0xx_HAL_Driver/Inc/stm32c0xx_ll_rcc.h **** #define LL_RCC_MCO1SOURCE_LSE              (RCC_CFGR_MCOSEL_0|RCC_CFGR_MCOSEL_1|RCC_CFGR_MCOSEL_2) 
 288:Drivers/STM32C0xx_HAL_Driver/Inc/stm32c0xx_ll_rcc.h **** /**
 289:Drivers/STM32C0xx_HAL_Driver/Inc/stm32c0xx_ll_rcc.h ****   * @}
 290:Drivers/STM32C0xx_HAL_Driver/Inc/stm32c0xx_ll_rcc.h ****   */
 291:Drivers/STM32C0xx_HAL_Driver/Inc/stm32c0xx_ll_rcc.h **** 
 292:Drivers/STM32C0xx_HAL_Driver/Inc/stm32c0xx_ll_rcc.h **** /** @defgroup RCC_LL_EC_MCO1_DIV  MCO1 prescaler
 293:Drivers/STM32C0xx_HAL_Driver/Inc/stm32c0xx_ll_rcc.h ****   * @{
 294:Drivers/STM32C0xx_HAL_Driver/Inc/stm32c0xx_ll_rcc.h ****   */
 295:Drivers/STM32C0xx_HAL_Driver/Inc/stm32c0xx_ll_rcc.h **** #define LL_RCC_MCO1_DIV_1                  0x00000000U                                             
 296:Drivers/STM32C0xx_HAL_Driver/Inc/stm32c0xx_ll_rcc.h **** #define LL_RCC_MCO1_DIV_2                  RCC_CFGR_MCOPRE_0                                       
 297:Drivers/STM32C0xx_HAL_Driver/Inc/stm32c0xx_ll_rcc.h **** #define LL_RCC_MCO1_DIV_4                  RCC_CFGR_MCOPRE_1                                       
 298:Drivers/STM32C0xx_HAL_Driver/Inc/stm32c0xx_ll_rcc.h **** #define LL_RCC_MCO1_DIV_8                  (RCC_CFGR_MCOPRE_1 | RCC_CFGR_MCOPRE_0)                 
 299:Drivers/STM32C0xx_HAL_Driver/Inc/stm32c0xx_ll_rcc.h **** #define LL_RCC_MCO1_DIV_16                 RCC_CFGR_MCOPRE_2                                       
 300:Drivers/STM32C0xx_HAL_Driver/Inc/stm32c0xx_ll_rcc.h **** #define LL_RCC_MCO1_DIV_32                 (RCC_CFGR_MCOPRE_2 | RCC_CFGR_MCOPRE_0)                 
 301:Drivers/STM32C0xx_HAL_Driver/Inc/stm32c0xx_ll_rcc.h **** #define LL_RCC_MCO1_DIV_64                 (RCC_CFGR_MCOPRE_2 | RCC_CFGR_MCOPRE_1)                 
 302:Drivers/STM32C0xx_HAL_Driver/Inc/stm32c0xx_ll_rcc.h **** #define LL_RCC_MCO1_DIV_128                (RCC_CFGR_MCOPRE_2 | RCC_CFGR_MCOPRE_1 | RCC_CFGR_MCOPRE
 303:Drivers/STM32C0xx_HAL_Driver/Inc/stm32c0xx_ll_rcc.h **** /**
 304:Drivers/STM32C0xx_HAL_Driver/Inc/stm32c0xx_ll_rcc.h ****   * @}
 305:Drivers/STM32C0xx_HAL_Driver/Inc/stm32c0xx_ll_rcc.h ****   */
 306:Drivers/STM32C0xx_HAL_Driver/Inc/stm32c0xx_ll_rcc.h **** 
 307:Drivers/STM32C0xx_HAL_Driver/Inc/stm32c0xx_ll_rcc.h **** /** @defgroup RCC_LL_EC_MCO2SOURCE  MCO2 SOURCE selection
ARM GAS  /var/folders/nl/kwfz41d55ync1k9vlz8wmkc80000gn/T//ccPpmmCA.s 			page 40


 308:Drivers/STM32C0xx_HAL_Driver/Inc/stm32c0xx_ll_rcc.h ****   * @{
 309:Drivers/STM32C0xx_HAL_Driver/Inc/stm32c0xx_ll_rcc.h ****   */
 310:Drivers/STM32C0xx_HAL_Driver/Inc/stm32c0xx_ll_rcc.h **** #define LL_RCC_MCO2SOURCE_NOCLOCK          0x00000000U                               /*!< MCO2 outp
 311:Drivers/STM32C0xx_HAL_Driver/Inc/stm32c0xx_ll_rcc.h **** #define LL_RCC_MCO2SOURCE_SYSCLK           RCC_CFGR_MCO2SEL_0                        /*!< SYSCLK se
 312:Drivers/STM32C0xx_HAL_Driver/Inc/stm32c0xx_ll_rcc.h **** #define LL_RCC_MCO2SOURCE_HSI              (RCC_CFGR_MCO2SEL_0| RCC_CFGR_MCO2SEL_1)  /*!< HSI16 sel
 313:Drivers/STM32C0xx_HAL_Driver/Inc/stm32c0xx_ll_rcc.h **** #define LL_RCC_MCO2SOURCE_HSE              RCC_CFGR_MCO2SEL_2                        /*!< HSE selec
 314:Drivers/STM32C0xx_HAL_Driver/Inc/stm32c0xx_ll_rcc.h **** #define LL_RCC_MCO2SOURCE_LSI              (RCC_CFGR_MCO2SEL_1|RCC_CFGR_MCO2SEL_2)   /*!< LSI selec
 315:Drivers/STM32C0xx_HAL_Driver/Inc/stm32c0xx_ll_rcc.h **** #define LL_RCC_MCO2SOURCE_LSE              (RCC_CFGR_MCO2SEL_0|RCC_CFGR_MCO2SEL_1|RCC_CFGR_MCO2SEL_
 316:Drivers/STM32C0xx_HAL_Driver/Inc/stm32c0xx_ll_rcc.h **** /**
 317:Drivers/STM32C0xx_HAL_Driver/Inc/stm32c0xx_ll_rcc.h ****   * @}
 318:Drivers/STM32C0xx_HAL_Driver/Inc/stm32c0xx_ll_rcc.h ****   */
 319:Drivers/STM32C0xx_HAL_Driver/Inc/stm32c0xx_ll_rcc.h **** 
 320:Drivers/STM32C0xx_HAL_Driver/Inc/stm32c0xx_ll_rcc.h **** /** @defgroup RCC_LL_EC_MCO2_DIV  MCO2 prescaler
 321:Drivers/STM32C0xx_HAL_Driver/Inc/stm32c0xx_ll_rcc.h ****   * @{
 322:Drivers/STM32C0xx_HAL_Driver/Inc/stm32c0xx_ll_rcc.h ****   */
 323:Drivers/STM32C0xx_HAL_Driver/Inc/stm32c0xx_ll_rcc.h **** #define LL_RCC_MCO2_DIV_1                  0x00000000U                                             
 324:Drivers/STM32C0xx_HAL_Driver/Inc/stm32c0xx_ll_rcc.h **** #define LL_RCC_MCO2_DIV_2                  RCC_CFGR_MCO2PRE_0                                      
 325:Drivers/STM32C0xx_HAL_Driver/Inc/stm32c0xx_ll_rcc.h **** #define LL_RCC_MCO2_DIV_4                  RCC_CFGR_MCO2PRE_1                                      
 326:Drivers/STM32C0xx_HAL_Driver/Inc/stm32c0xx_ll_rcc.h **** #define LL_RCC_MCO2_DIV_8                  (RCC_CFGR_MCO2PRE_1 | RCC_CFGR_MCO2PRE_0)               
 327:Drivers/STM32C0xx_HAL_Driver/Inc/stm32c0xx_ll_rcc.h **** #define LL_RCC_MCO2_DIV_16                 RCC_CFGR_MCO2PRE_2                                      
 328:Drivers/STM32C0xx_HAL_Driver/Inc/stm32c0xx_ll_rcc.h **** #define LL_RCC_MCO2_DIV_32                 (RCC_CFGR_MCO2PRE_2 | RCC_CFGR_MCO2PRE_0)               
 329:Drivers/STM32C0xx_HAL_Driver/Inc/stm32c0xx_ll_rcc.h **** #define LL_RCC_MCO2_DIV_64                 (RCC_CFGR_MCO2PRE_2 | RCC_CFGR_MCO2PRE_1)               
 330:Drivers/STM32C0xx_HAL_Driver/Inc/stm32c0xx_ll_rcc.h **** #define LL_RCC_MCO2_DIV_128                (RCC_CFGR_MCO2PRE_2 | RCC_CFGR_MCO2PRE_1 | RCC_CFGR_MCO2
 331:Drivers/STM32C0xx_HAL_Driver/Inc/stm32c0xx_ll_rcc.h **** /**
 332:Drivers/STM32C0xx_HAL_Driver/Inc/stm32c0xx_ll_rcc.h ****   * @}
 333:Drivers/STM32C0xx_HAL_Driver/Inc/stm32c0xx_ll_rcc.h ****   */
 334:Drivers/STM32C0xx_HAL_Driver/Inc/stm32c0xx_ll_rcc.h **** #if defined(USE_FULL_LL_DRIVER)
 335:Drivers/STM32C0xx_HAL_Driver/Inc/stm32c0xx_ll_rcc.h **** /** @defgroup RCC_LL_EC_PERIPH_FREQUENCY Peripheral clock frequency
 336:Drivers/STM32C0xx_HAL_Driver/Inc/stm32c0xx_ll_rcc.h ****   * @{
 337:Drivers/STM32C0xx_HAL_Driver/Inc/stm32c0xx_ll_rcc.h ****   */
 338:Drivers/STM32C0xx_HAL_Driver/Inc/stm32c0xx_ll_rcc.h **** #define LL_RCC_PERIPH_FREQUENCY_NO        0x00000000U                 /*!< No clock enabled for the
 339:Drivers/STM32C0xx_HAL_Driver/Inc/stm32c0xx_ll_rcc.h **** #define LL_RCC_PERIPH_FREQUENCY_NA        0xFFFFFFFFU                 /*!< Frequency cannot be prov
 340:Drivers/STM32C0xx_HAL_Driver/Inc/stm32c0xx_ll_rcc.h **** /**
 341:Drivers/STM32C0xx_HAL_Driver/Inc/stm32c0xx_ll_rcc.h ****   * @}
 342:Drivers/STM32C0xx_HAL_Driver/Inc/stm32c0xx_ll_rcc.h ****   */
 343:Drivers/STM32C0xx_HAL_Driver/Inc/stm32c0xx_ll_rcc.h **** #endif /* USE_FULL_LL_DRIVER */
 344:Drivers/STM32C0xx_HAL_Driver/Inc/stm32c0xx_ll_rcc.h **** 
 345:Drivers/STM32C0xx_HAL_Driver/Inc/stm32c0xx_ll_rcc.h **** /** @defgroup RCC_LL_EC_USARTx_CLKSOURCE  Peripheral USART clock source selection
 346:Drivers/STM32C0xx_HAL_Driver/Inc/stm32c0xx_ll_rcc.h ****   * @{
 347:Drivers/STM32C0xx_HAL_Driver/Inc/stm32c0xx_ll_rcc.h ****   */
 348:Drivers/STM32C0xx_HAL_Driver/Inc/stm32c0xx_ll_rcc.h **** #define LL_RCC_USART1_CLKSOURCE_PCLK1      ((RCC_CCIPR_USART1SEL << 16U) | 0x00000000U)            
 349:Drivers/STM32C0xx_HAL_Driver/Inc/stm32c0xx_ll_rcc.h **** #define LL_RCC_USART1_CLKSOURCE_SYSCLK     ((RCC_CCIPR_USART1SEL << 16U) | RCC_CCIPR_USART1SEL_0)  
 350:Drivers/STM32C0xx_HAL_Driver/Inc/stm32c0xx_ll_rcc.h **** #define LL_RCC_USART1_CLKSOURCE_HSIKER     ((RCC_CCIPR_USART1SEL << 16U) | RCC_CCIPR_USART1SEL_1)  
 351:Drivers/STM32C0xx_HAL_Driver/Inc/stm32c0xx_ll_rcc.h **** #define LL_RCC_USART1_CLKSOURCE_LSE        ((RCC_CCIPR_USART1SEL << 16U) | RCC_CCIPR_USART1SEL)    
 352:Drivers/STM32C0xx_HAL_Driver/Inc/stm32c0xx_ll_rcc.h **** 
 353:Drivers/STM32C0xx_HAL_Driver/Inc/stm32c0xx_ll_rcc.h **** /**
 354:Drivers/STM32C0xx_HAL_Driver/Inc/stm32c0xx_ll_rcc.h ****   * @}
 355:Drivers/STM32C0xx_HAL_Driver/Inc/stm32c0xx_ll_rcc.h ****   */
 356:Drivers/STM32C0xx_HAL_Driver/Inc/stm32c0xx_ll_rcc.h **** 
 357:Drivers/STM32C0xx_HAL_Driver/Inc/stm32c0xx_ll_rcc.h **** 
 358:Drivers/STM32C0xx_HAL_Driver/Inc/stm32c0xx_ll_rcc.h **** /** @defgroup RCC_LL_EC_I2C1_CLKSOURCE Peripheral I2C clock source selection
 359:Drivers/STM32C0xx_HAL_Driver/Inc/stm32c0xx_ll_rcc.h ****   * @{
 360:Drivers/STM32C0xx_HAL_Driver/Inc/stm32c0xx_ll_rcc.h ****   */
 361:Drivers/STM32C0xx_HAL_Driver/Inc/stm32c0xx_ll_rcc.h **** #define LL_RCC_I2C1_CLKSOURCE_PCLK1        0x00000000U                  /*!< PCLK1 clock used as I2
 362:Drivers/STM32C0xx_HAL_Driver/Inc/stm32c0xx_ll_rcc.h **** #define LL_RCC_I2C1_CLKSOURCE_SYSCLK       RCC_CCIPR_I2C1SEL_0          /*!< SYSCLK clock used as I
 363:Drivers/STM32C0xx_HAL_Driver/Inc/stm32c0xx_ll_rcc.h **** #define LL_RCC_I2C1_CLKSOURCE_HSIKER       RCC_CCIPR_I2C1SEL_1          /*!< HSIKER clock used as I
 364:Drivers/STM32C0xx_HAL_Driver/Inc/stm32c0xx_ll_rcc.h **** /**
ARM GAS  /var/folders/nl/kwfz41d55ync1k9vlz8wmkc80000gn/T//ccPpmmCA.s 			page 41


 365:Drivers/STM32C0xx_HAL_Driver/Inc/stm32c0xx_ll_rcc.h ****   * @}
 366:Drivers/STM32C0xx_HAL_Driver/Inc/stm32c0xx_ll_rcc.h ****   */
 367:Drivers/STM32C0xx_HAL_Driver/Inc/stm32c0xx_ll_rcc.h **** 
 368:Drivers/STM32C0xx_HAL_Driver/Inc/stm32c0xx_ll_rcc.h **** /** @defgroup RCC_LL_EC_I2S1_CLKSOURCE Peripheral I2S clock source selection
 369:Drivers/STM32C0xx_HAL_Driver/Inc/stm32c0xx_ll_rcc.h ****   * @{
 370:Drivers/STM32C0xx_HAL_Driver/Inc/stm32c0xx_ll_rcc.h ****   */
 371:Drivers/STM32C0xx_HAL_Driver/Inc/stm32c0xx_ll_rcc.h **** #define LL_RCC_I2S1_CLKSOURCE_SYSCLK      0x00000000U                  /*!< SYSCLK clock used as I2
 372:Drivers/STM32C0xx_HAL_Driver/Inc/stm32c0xx_ll_rcc.h **** #define LL_RCC_I2S1_CLKSOURCE_HSIKER      RCC_CCIPR_I2S1SEL_1          /*!< HSIKER clock used as I2
 373:Drivers/STM32C0xx_HAL_Driver/Inc/stm32c0xx_ll_rcc.h **** #define LL_RCC_I2S1_CLKSOURCE_PIN         RCC_CCIPR_I2S1SEL            /*!< External clock used as 
 374:Drivers/STM32C0xx_HAL_Driver/Inc/stm32c0xx_ll_rcc.h **** /**
 375:Drivers/STM32C0xx_HAL_Driver/Inc/stm32c0xx_ll_rcc.h ****   * @}
 376:Drivers/STM32C0xx_HAL_Driver/Inc/stm32c0xx_ll_rcc.h ****   */
 377:Drivers/STM32C0xx_HAL_Driver/Inc/stm32c0xx_ll_rcc.h **** 
 378:Drivers/STM32C0xx_HAL_Driver/Inc/stm32c0xx_ll_rcc.h **** /** @defgroup RCC_LL_EC_ADC_CLKSOURCE Peripheral ADC clock source selection
 379:Drivers/STM32C0xx_HAL_Driver/Inc/stm32c0xx_ll_rcc.h ****   * @{
 380:Drivers/STM32C0xx_HAL_Driver/Inc/stm32c0xx_ll_rcc.h ****   */
 381:Drivers/STM32C0xx_HAL_Driver/Inc/stm32c0xx_ll_rcc.h **** #define LL_RCC_ADC_CLKSOURCE_SYSCLK        0x00000000U                   /*!< SYSCLK used as ADC cl
 382:Drivers/STM32C0xx_HAL_Driver/Inc/stm32c0xx_ll_rcc.h **** #define LL_RCC_ADC_CLKSOURCE_HSIKER        RCC_CCIPR_ADCSEL_1            /*!< HSIKER kernel used as
 383:Drivers/STM32C0xx_HAL_Driver/Inc/stm32c0xx_ll_rcc.h **** /**
 384:Drivers/STM32C0xx_HAL_Driver/Inc/stm32c0xx_ll_rcc.h ****   * @}
 385:Drivers/STM32C0xx_HAL_Driver/Inc/stm32c0xx_ll_rcc.h ****   */
 386:Drivers/STM32C0xx_HAL_Driver/Inc/stm32c0xx_ll_rcc.h **** 
 387:Drivers/STM32C0xx_HAL_Driver/Inc/stm32c0xx_ll_rcc.h **** /** @defgroup RCC_LL_EC_USARTx Peripheral USARTx get clock source
 388:Drivers/STM32C0xx_HAL_Driver/Inc/stm32c0xx_ll_rcc.h ****   * @{
 389:Drivers/STM32C0xx_HAL_Driver/Inc/stm32c0xx_ll_rcc.h ****   */
 390:Drivers/STM32C0xx_HAL_Driver/Inc/stm32c0xx_ll_rcc.h **** #define LL_RCC_USART1_CLKSOURCE            RCC_CCIPR_USART1SEL /*!< USART1 Clock source selection *
 391:Drivers/STM32C0xx_HAL_Driver/Inc/stm32c0xx_ll_rcc.h **** /**
 392:Drivers/STM32C0xx_HAL_Driver/Inc/stm32c0xx_ll_rcc.h ****   * @}
 393:Drivers/STM32C0xx_HAL_Driver/Inc/stm32c0xx_ll_rcc.h ****   */
 394:Drivers/STM32C0xx_HAL_Driver/Inc/stm32c0xx_ll_rcc.h **** 
 395:Drivers/STM32C0xx_HAL_Driver/Inc/stm32c0xx_ll_rcc.h **** /** @defgroup RCC_LL_EC_I2C1 Peripheral I2C get clock source
 396:Drivers/STM32C0xx_HAL_Driver/Inc/stm32c0xx_ll_rcc.h ****   * @{
 397:Drivers/STM32C0xx_HAL_Driver/Inc/stm32c0xx_ll_rcc.h ****   */
 398:Drivers/STM32C0xx_HAL_Driver/Inc/stm32c0xx_ll_rcc.h **** #define LL_RCC_I2C1_CLKSOURCE              RCC_CCIPR_I2C1SEL /*!< I2C1 Clock source selection */
 399:Drivers/STM32C0xx_HAL_Driver/Inc/stm32c0xx_ll_rcc.h **** /**
 400:Drivers/STM32C0xx_HAL_Driver/Inc/stm32c0xx_ll_rcc.h ****   * @}
 401:Drivers/STM32C0xx_HAL_Driver/Inc/stm32c0xx_ll_rcc.h ****   */
 402:Drivers/STM32C0xx_HAL_Driver/Inc/stm32c0xx_ll_rcc.h **** 
 403:Drivers/STM32C0xx_HAL_Driver/Inc/stm32c0xx_ll_rcc.h **** /** @defgroup RCC_LL_EC_I2S1 Peripheral I2S get clock source
 404:Drivers/STM32C0xx_HAL_Driver/Inc/stm32c0xx_ll_rcc.h ****   * @{
 405:Drivers/STM32C0xx_HAL_Driver/Inc/stm32c0xx_ll_rcc.h ****   */
 406:Drivers/STM32C0xx_HAL_Driver/Inc/stm32c0xx_ll_rcc.h **** #define LL_RCC_I2S1_CLKSOURCE              RCC_CCIPR_I2S1SEL /*!< I2S1 Clock source selection */
 407:Drivers/STM32C0xx_HAL_Driver/Inc/stm32c0xx_ll_rcc.h **** /**
 408:Drivers/STM32C0xx_HAL_Driver/Inc/stm32c0xx_ll_rcc.h ****   * @}
 409:Drivers/STM32C0xx_HAL_Driver/Inc/stm32c0xx_ll_rcc.h ****   */
 410:Drivers/STM32C0xx_HAL_Driver/Inc/stm32c0xx_ll_rcc.h **** 
 411:Drivers/STM32C0xx_HAL_Driver/Inc/stm32c0xx_ll_rcc.h **** /** @defgroup RCC_LL_EC_ADC Peripheral ADC get clock source
 412:Drivers/STM32C0xx_HAL_Driver/Inc/stm32c0xx_ll_rcc.h ****   * @{
 413:Drivers/STM32C0xx_HAL_Driver/Inc/stm32c0xx_ll_rcc.h ****   */
 414:Drivers/STM32C0xx_HAL_Driver/Inc/stm32c0xx_ll_rcc.h **** #define LL_RCC_ADC_CLKSOURCE               RCC_CCIPR_ADCSEL        /*!< ADC Clock source selection 
 415:Drivers/STM32C0xx_HAL_Driver/Inc/stm32c0xx_ll_rcc.h **** /**
 416:Drivers/STM32C0xx_HAL_Driver/Inc/stm32c0xx_ll_rcc.h ****   * @}
 417:Drivers/STM32C0xx_HAL_Driver/Inc/stm32c0xx_ll_rcc.h ****   */
 418:Drivers/STM32C0xx_HAL_Driver/Inc/stm32c0xx_ll_rcc.h **** 
 419:Drivers/STM32C0xx_HAL_Driver/Inc/stm32c0xx_ll_rcc.h **** /** @defgroup RCC_LL_EC_RTC_CLKSOURCE  RTC clock source selection
 420:Drivers/STM32C0xx_HAL_Driver/Inc/stm32c0xx_ll_rcc.h ****   * @{
 421:Drivers/STM32C0xx_HAL_Driver/Inc/stm32c0xx_ll_rcc.h ****   */
ARM GAS  /var/folders/nl/kwfz41d55ync1k9vlz8wmkc80000gn/T//ccPpmmCA.s 			page 42


 422:Drivers/STM32C0xx_HAL_Driver/Inc/stm32c0xx_ll_rcc.h **** #define LL_RCC_RTC_CLKSOURCE_NONE          0x00000000U             /*!< No clock used as RTC clock 
 423:Drivers/STM32C0xx_HAL_Driver/Inc/stm32c0xx_ll_rcc.h **** #define LL_RCC_RTC_CLKSOURCE_LSE           RCC_CSR1_RTCSEL_0       /*!< LSE oscillator clock used a
 424:Drivers/STM32C0xx_HAL_Driver/Inc/stm32c0xx_ll_rcc.h **** #define LL_RCC_RTC_CLKSOURCE_LSI           RCC_CSR1_RTCSEL_1       /*!< LSI oscillator clock used a
 425:Drivers/STM32C0xx_HAL_Driver/Inc/stm32c0xx_ll_rcc.h **** #define LL_RCC_RTC_CLKSOURCE_HSE_DIV32     RCC_CSR1_RTCSEL         /*!< HSE oscillator clock divide
 426:Drivers/STM32C0xx_HAL_Driver/Inc/stm32c0xx_ll_rcc.h **** /**
 427:Drivers/STM32C0xx_HAL_Driver/Inc/stm32c0xx_ll_rcc.h ****   * @}
 428:Drivers/STM32C0xx_HAL_Driver/Inc/stm32c0xx_ll_rcc.h ****   */
 429:Drivers/STM32C0xx_HAL_Driver/Inc/stm32c0xx_ll_rcc.h **** 
 430:Drivers/STM32C0xx_HAL_Driver/Inc/stm32c0xx_ll_rcc.h **** /**
 431:Drivers/STM32C0xx_HAL_Driver/Inc/stm32c0xx_ll_rcc.h ****   * @}
 432:Drivers/STM32C0xx_HAL_Driver/Inc/stm32c0xx_ll_rcc.h ****   */
 433:Drivers/STM32C0xx_HAL_Driver/Inc/stm32c0xx_ll_rcc.h **** 
 434:Drivers/STM32C0xx_HAL_Driver/Inc/stm32c0xx_ll_rcc.h **** /* Exported macro ------------------------------------------------------------*/
 435:Drivers/STM32C0xx_HAL_Driver/Inc/stm32c0xx_ll_rcc.h **** /** @defgroup RCC_LL_Exported_Macros RCC Exported Macros
 436:Drivers/STM32C0xx_HAL_Driver/Inc/stm32c0xx_ll_rcc.h ****   * @{
 437:Drivers/STM32C0xx_HAL_Driver/Inc/stm32c0xx_ll_rcc.h ****   */
 438:Drivers/STM32C0xx_HAL_Driver/Inc/stm32c0xx_ll_rcc.h **** 
 439:Drivers/STM32C0xx_HAL_Driver/Inc/stm32c0xx_ll_rcc.h **** /** @defgroup RCC_LL_EM_WRITE_READ Common Write and read registers Macros
 440:Drivers/STM32C0xx_HAL_Driver/Inc/stm32c0xx_ll_rcc.h ****   * @{
 441:Drivers/STM32C0xx_HAL_Driver/Inc/stm32c0xx_ll_rcc.h ****   */
 442:Drivers/STM32C0xx_HAL_Driver/Inc/stm32c0xx_ll_rcc.h **** 
 443:Drivers/STM32C0xx_HAL_Driver/Inc/stm32c0xx_ll_rcc.h **** /**
 444:Drivers/STM32C0xx_HAL_Driver/Inc/stm32c0xx_ll_rcc.h ****   * @brief  Write a value in RCC register
 445:Drivers/STM32C0xx_HAL_Driver/Inc/stm32c0xx_ll_rcc.h ****   * @param  __REG__ Register to be written
 446:Drivers/STM32C0xx_HAL_Driver/Inc/stm32c0xx_ll_rcc.h ****   * @param  __VALUE__ Value to be written in the register
 447:Drivers/STM32C0xx_HAL_Driver/Inc/stm32c0xx_ll_rcc.h ****   * @retval None
 448:Drivers/STM32C0xx_HAL_Driver/Inc/stm32c0xx_ll_rcc.h ****   */
 449:Drivers/STM32C0xx_HAL_Driver/Inc/stm32c0xx_ll_rcc.h **** #define LL_RCC_WriteReg(__REG__, __VALUE__) WRITE_REG((RCC->__REG__), (__VALUE__))
 450:Drivers/STM32C0xx_HAL_Driver/Inc/stm32c0xx_ll_rcc.h **** 
 451:Drivers/STM32C0xx_HAL_Driver/Inc/stm32c0xx_ll_rcc.h **** /**
 452:Drivers/STM32C0xx_HAL_Driver/Inc/stm32c0xx_ll_rcc.h ****   * @brief  Read a value in RCC register
 453:Drivers/STM32C0xx_HAL_Driver/Inc/stm32c0xx_ll_rcc.h ****   * @param  __REG__ Register to be read
 454:Drivers/STM32C0xx_HAL_Driver/Inc/stm32c0xx_ll_rcc.h ****   * @retval Register value
 455:Drivers/STM32C0xx_HAL_Driver/Inc/stm32c0xx_ll_rcc.h ****   */
 456:Drivers/STM32C0xx_HAL_Driver/Inc/stm32c0xx_ll_rcc.h **** #define LL_RCC_ReadReg(__REG__) READ_REG(RCC->__REG__)
 457:Drivers/STM32C0xx_HAL_Driver/Inc/stm32c0xx_ll_rcc.h **** /**
 458:Drivers/STM32C0xx_HAL_Driver/Inc/stm32c0xx_ll_rcc.h ****   * @}
 459:Drivers/STM32C0xx_HAL_Driver/Inc/stm32c0xx_ll_rcc.h ****   */
 460:Drivers/STM32C0xx_HAL_Driver/Inc/stm32c0xx_ll_rcc.h **** 
 461:Drivers/STM32C0xx_HAL_Driver/Inc/stm32c0xx_ll_rcc.h **** /**
 462:Drivers/STM32C0xx_HAL_Driver/Inc/stm32c0xx_ll_rcc.h ****   * @brief  Helper macro to calculate the HCLK frequency
 463:Drivers/STM32C0xx_HAL_Driver/Inc/stm32c0xx_ll_rcc.h ****   * @param  __SYSCLKFREQ__ SYSCLK frequency (based on HSE/HSI/PLLCLK)
 464:Drivers/STM32C0xx_HAL_Driver/Inc/stm32c0xx_ll_rcc.h ****   * @param  __AHBPRESCALER__ This parameter can be one of the following values:
 465:Drivers/STM32C0xx_HAL_Driver/Inc/stm32c0xx_ll_rcc.h ****   *         @arg @ref LL_RCC_HCLK_DIV_1
 466:Drivers/STM32C0xx_HAL_Driver/Inc/stm32c0xx_ll_rcc.h ****   *         @arg @ref LL_RCC_HCLK_DIV_2
 467:Drivers/STM32C0xx_HAL_Driver/Inc/stm32c0xx_ll_rcc.h ****   *         @arg @ref LL_RCC_HCLK_DIV_4 
 468:Drivers/STM32C0xx_HAL_Driver/Inc/stm32c0xx_ll_rcc.h ****   *         @arg @ref LL_RCC_HCLK_DIV_8 
 469:Drivers/STM32C0xx_HAL_Driver/Inc/stm32c0xx_ll_rcc.h ****   *         @arg @ref LL_RCC_HCLK_DIV_16
 470:Drivers/STM32C0xx_HAL_Driver/Inc/stm32c0xx_ll_rcc.h ****   *         @arg @ref LL_RCC_HCLK_DIV_64
 471:Drivers/STM32C0xx_HAL_Driver/Inc/stm32c0xx_ll_rcc.h ****   *         @arg @ref LL_RCC_HCLK_DIV_128
 472:Drivers/STM32C0xx_HAL_Driver/Inc/stm32c0xx_ll_rcc.h ****   *         @arg @ref LL_RCC_HCLK_DIV_256
 473:Drivers/STM32C0xx_HAL_Driver/Inc/stm32c0xx_ll_rcc.h ****   *         @arg @ref LL_RCC_HCLK_DIV_512
 474:Drivers/STM32C0xx_HAL_Driver/Inc/stm32c0xx_ll_rcc.h ****   * @retval HCLK clock frequency (in Hz)
 475:Drivers/STM32C0xx_HAL_Driver/Inc/stm32c0xx_ll_rcc.h ****   */
 476:Drivers/STM32C0xx_HAL_Driver/Inc/stm32c0xx_ll_rcc.h **** #define __LL_RCC_CALC_HCLK_FREQ(__SYSCLKFREQ__,__AHBPRESCALER__) ((__SYSCLKFREQ__) >> (AHBPrescTabl
 477:Drivers/STM32C0xx_HAL_Driver/Inc/stm32c0xx_ll_rcc.h ****                                                                   & RCC_CFGR_HPRE) >>  RCC_CFGR_HPR
 478:Drivers/STM32C0xx_HAL_Driver/Inc/stm32c0xx_ll_rcc.h **** 
ARM GAS  /var/folders/nl/kwfz41d55ync1k9vlz8wmkc80000gn/T//ccPpmmCA.s 			page 43


 479:Drivers/STM32C0xx_HAL_Driver/Inc/stm32c0xx_ll_rcc.h **** /**
 480:Drivers/STM32C0xx_HAL_Driver/Inc/stm32c0xx_ll_rcc.h ****   * @brief  Helper macro to calculate the PCLK1 frequency (ABP1)
 481:Drivers/STM32C0xx_HAL_Driver/Inc/stm32c0xx_ll_rcc.h ****   * @param  __HCLKFREQ__ HCLK frequency
 482:Drivers/STM32C0xx_HAL_Driver/Inc/stm32c0xx_ll_rcc.h ****   * @param  __APB1PRESCALER__ This parameter can be one of the following values:
 483:Drivers/STM32C0xx_HAL_Driver/Inc/stm32c0xx_ll_rcc.h ****   *         @arg @ref LL_RCC_APB1_DIV_1
 484:Drivers/STM32C0xx_HAL_Driver/Inc/stm32c0xx_ll_rcc.h ****   *         @arg @ref LL_RCC_APB1_DIV_2
 485:Drivers/STM32C0xx_HAL_Driver/Inc/stm32c0xx_ll_rcc.h ****   *         @arg @ref LL_RCC_APB1_DIV_4
 486:Drivers/STM32C0xx_HAL_Driver/Inc/stm32c0xx_ll_rcc.h ****   *         @arg @ref LL_RCC_APB1_DIV_8
 487:Drivers/STM32C0xx_HAL_Driver/Inc/stm32c0xx_ll_rcc.h ****   *         @arg @ref LL_RCC_APB1_DIV_16
 488:Drivers/STM32C0xx_HAL_Driver/Inc/stm32c0xx_ll_rcc.h ****   * @retval PCLK1 clock frequency (in Hz)
 489:Drivers/STM32C0xx_HAL_Driver/Inc/stm32c0xx_ll_rcc.h ****   */
 490:Drivers/STM32C0xx_HAL_Driver/Inc/stm32c0xx_ll_rcc.h **** #define __LL_RCC_CALC_PCLK1_FREQ(__HCLKFREQ__, __APB1PRESCALER__) ((__HCLKFREQ__) >> (APBPrescTable
 491:Drivers/STM32C0xx_HAL_Driver/Inc/stm32c0xx_ll_rcc.h ****                                                                    & 0x1FU))
 492:Drivers/STM32C0xx_HAL_Driver/Inc/stm32c0xx_ll_rcc.h **** 
 493:Drivers/STM32C0xx_HAL_Driver/Inc/stm32c0xx_ll_rcc.h **** /**
 494:Drivers/STM32C0xx_HAL_Driver/Inc/stm32c0xx_ll_rcc.h ****   * @brief  Helper macro to calculate the HSISYS frequency
 495:Drivers/STM32C0xx_HAL_Driver/Inc/stm32c0xx_ll_rcc.h ****   * @param  __HSIDIV__ This parameter can be one of the following values:
 496:Drivers/STM32C0xx_HAL_Driver/Inc/stm32c0xx_ll_rcc.h ****   *         @arg @ref LL_RCC_HSI_DIV_1
 497:Drivers/STM32C0xx_HAL_Driver/Inc/stm32c0xx_ll_rcc.h ****   *         @arg @ref LL_RCC_HSI_DIV_2
 498:Drivers/STM32C0xx_HAL_Driver/Inc/stm32c0xx_ll_rcc.h ****   *         @arg @ref LL_RCC_HSI_DIV_4
 499:Drivers/STM32C0xx_HAL_Driver/Inc/stm32c0xx_ll_rcc.h ****   *         @arg @ref LL_RCC_HSI_DIV_8
 500:Drivers/STM32C0xx_HAL_Driver/Inc/stm32c0xx_ll_rcc.h ****   *         @arg @ref LL_RCC_HSI_DIV_16
 501:Drivers/STM32C0xx_HAL_Driver/Inc/stm32c0xx_ll_rcc.h ****   *         @arg @ref LL_RCC_HSI_DIV_32
 502:Drivers/STM32C0xx_HAL_Driver/Inc/stm32c0xx_ll_rcc.h ****   *         @arg @ref LL_RCC_HSI_DIV_64
 503:Drivers/STM32C0xx_HAL_Driver/Inc/stm32c0xx_ll_rcc.h ****   *         @arg @ref LL_RCC_HSI_DIV_128
 504:Drivers/STM32C0xx_HAL_Driver/Inc/stm32c0xx_ll_rcc.h ****   * @retval HSISYS clock frequency (in Hz)
 505:Drivers/STM32C0xx_HAL_Driver/Inc/stm32c0xx_ll_rcc.h ****   */
 506:Drivers/STM32C0xx_HAL_Driver/Inc/stm32c0xx_ll_rcc.h **** #define __LL_RCC_CALC_HSI_FREQ(__HSIDIV__) (HSI_VALUE / (1U << ((__HSIDIV__)>> RCC_CR_HSIDIV_Pos)))
 507:Drivers/STM32C0xx_HAL_Driver/Inc/stm32c0xx_ll_rcc.h **** 
 508:Drivers/STM32C0xx_HAL_Driver/Inc/stm32c0xx_ll_rcc.h **** /**
 509:Drivers/STM32C0xx_HAL_Driver/Inc/stm32c0xx_ll_rcc.h ****   * @brief  Helper macro to calculate the HSI Kernel frequency
 510:Drivers/STM32C0xx_HAL_Driver/Inc/stm32c0xx_ll_rcc.h ****   * @param  __HSIKERDIV__ This parameter can be one of the following values:
 511:Drivers/STM32C0xx_HAL_Driver/Inc/stm32c0xx_ll_rcc.h ****   *         @arg @ref LL_RCC_HSIKER_DIV_1
 512:Drivers/STM32C0xx_HAL_Driver/Inc/stm32c0xx_ll_rcc.h ****   *         @arg @ref LL_RCC_HSIKER_DIV_2
 513:Drivers/STM32C0xx_HAL_Driver/Inc/stm32c0xx_ll_rcc.h ****   *         @arg @ref LL_RCC_HSIKER_DIV_3
 514:Drivers/STM32C0xx_HAL_Driver/Inc/stm32c0xx_ll_rcc.h ****   *         @arg @ref LL_RCC_HSIKER_DIV_4
 515:Drivers/STM32C0xx_HAL_Driver/Inc/stm32c0xx_ll_rcc.h ****   *         @arg @ref LL_RCC_HSIKER_DIV_5
 516:Drivers/STM32C0xx_HAL_Driver/Inc/stm32c0xx_ll_rcc.h ****   *         @arg @ref LL_RCC_HSIKER_DIV_6
 517:Drivers/STM32C0xx_HAL_Driver/Inc/stm32c0xx_ll_rcc.h ****   *         @arg @ref LL_RCC_HSIKER_DIV_7
 518:Drivers/STM32C0xx_HAL_Driver/Inc/stm32c0xx_ll_rcc.h ****   *         @arg @ref LL_RCC_HSIKER_DIV_8
 519:Drivers/STM32C0xx_HAL_Driver/Inc/stm32c0xx_ll_rcc.h ****   * @retval HSIKER clock frequency (in Hz)
 520:Drivers/STM32C0xx_HAL_Driver/Inc/stm32c0xx_ll_rcc.h ****   */
 521:Drivers/STM32C0xx_HAL_Driver/Inc/stm32c0xx_ll_rcc.h **** #define __LL_RCC_CALC_HSIKER_FREQ(__HSIKERDIV__) (HSI_VALUE / (((__HSIKERDIV__)>> RCC_CR_HSIKERDIV_
 522:Drivers/STM32C0xx_HAL_Driver/Inc/stm32c0xx_ll_rcc.h **** /**
 523:Drivers/STM32C0xx_HAL_Driver/Inc/stm32c0xx_ll_rcc.h ****   * @}
 524:Drivers/STM32C0xx_HAL_Driver/Inc/stm32c0xx_ll_rcc.h ****   */
 525:Drivers/STM32C0xx_HAL_Driver/Inc/stm32c0xx_ll_rcc.h **** 
 526:Drivers/STM32C0xx_HAL_Driver/Inc/stm32c0xx_ll_rcc.h **** 
 527:Drivers/STM32C0xx_HAL_Driver/Inc/stm32c0xx_ll_rcc.h **** /* Exported functions --------------------------------------------------------*/
 528:Drivers/STM32C0xx_HAL_Driver/Inc/stm32c0xx_ll_rcc.h **** /** @defgroup RCC_LL_Exported_Functions RCC Exported Functions
 529:Drivers/STM32C0xx_HAL_Driver/Inc/stm32c0xx_ll_rcc.h ****   * @{
 530:Drivers/STM32C0xx_HAL_Driver/Inc/stm32c0xx_ll_rcc.h ****   */
 531:Drivers/STM32C0xx_HAL_Driver/Inc/stm32c0xx_ll_rcc.h **** 
 532:Drivers/STM32C0xx_HAL_Driver/Inc/stm32c0xx_ll_rcc.h **** /** @defgroup RCC_LL_EF_HSE HSE
 533:Drivers/STM32C0xx_HAL_Driver/Inc/stm32c0xx_ll_rcc.h ****   * @{
 534:Drivers/STM32C0xx_HAL_Driver/Inc/stm32c0xx_ll_rcc.h ****   */
 535:Drivers/STM32C0xx_HAL_Driver/Inc/stm32c0xx_ll_rcc.h **** 
ARM GAS  /var/folders/nl/kwfz41d55ync1k9vlz8wmkc80000gn/T//ccPpmmCA.s 			page 44


 536:Drivers/STM32C0xx_HAL_Driver/Inc/stm32c0xx_ll_rcc.h **** /**
 537:Drivers/STM32C0xx_HAL_Driver/Inc/stm32c0xx_ll_rcc.h ****   * @brief  Enable the Clock Security System.
 538:Drivers/STM32C0xx_HAL_Driver/Inc/stm32c0xx_ll_rcc.h ****   * @rmtoll CR           CSSON         LL_RCC_HSE_EnableCSS
 539:Drivers/STM32C0xx_HAL_Driver/Inc/stm32c0xx_ll_rcc.h ****   * @retval None
 540:Drivers/STM32C0xx_HAL_Driver/Inc/stm32c0xx_ll_rcc.h ****   */
 541:Drivers/STM32C0xx_HAL_Driver/Inc/stm32c0xx_ll_rcc.h **** __STATIC_INLINE void LL_RCC_HSE_EnableCSS(void)
 542:Drivers/STM32C0xx_HAL_Driver/Inc/stm32c0xx_ll_rcc.h **** {
 543:Drivers/STM32C0xx_HAL_Driver/Inc/stm32c0xx_ll_rcc.h ****   SET_BIT(RCC->CR, RCC_CR_CSSON);
 544:Drivers/STM32C0xx_HAL_Driver/Inc/stm32c0xx_ll_rcc.h **** }
 545:Drivers/STM32C0xx_HAL_Driver/Inc/stm32c0xx_ll_rcc.h **** 
 546:Drivers/STM32C0xx_HAL_Driver/Inc/stm32c0xx_ll_rcc.h **** /**
 547:Drivers/STM32C0xx_HAL_Driver/Inc/stm32c0xx_ll_rcc.h ****   * @brief  Enable HSE external oscillator (HSE Bypass)
 548:Drivers/STM32C0xx_HAL_Driver/Inc/stm32c0xx_ll_rcc.h ****   * @rmtoll CR           HSEBYP        LL_RCC_HSE_EnableBypass
 549:Drivers/STM32C0xx_HAL_Driver/Inc/stm32c0xx_ll_rcc.h ****   * @retval None
 550:Drivers/STM32C0xx_HAL_Driver/Inc/stm32c0xx_ll_rcc.h ****   */
 551:Drivers/STM32C0xx_HAL_Driver/Inc/stm32c0xx_ll_rcc.h **** __STATIC_INLINE void LL_RCC_HSE_EnableBypass(void)
 552:Drivers/STM32C0xx_HAL_Driver/Inc/stm32c0xx_ll_rcc.h **** {
 553:Drivers/STM32C0xx_HAL_Driver/Inc/stm32c0xx_ll_rcc.h ****   SET_BIT(RCC->CR, RCC_CR_HSEBYP);
 554:Drivers/STM32C0xx_HAL_Driver/Inc/stm32c0xx_ll_rcc.h **** }
 555:Drivers/STM32C0xx_HAL_Driver/Inc/stm32c0xx_ll_rcc.h **** 
 556:Drivers/STM32C0xx_HAL_Driver/Inc/stm32c0xx_ll_rcc.h **** /**
 557:Drivers/STM32C0xx_HAL_Driver/Inc/stm32c0xx_ll_rcc.h ****   * @brief  Disable HSE external oscillator (HSE Bypass)
 558:Drivers/STM32C0xx_HAL_Driver/Inc/stm32c0xx_ll_rcc.h ****   * @rmtoll CR           HSEBYP        LL_RCC_HSE_DisableBypass
 559:Drivers/STM32C0xx_HAL_Driver/Inc/stm32c0xx_ll_rcc.h ****   * @retval None
 560:Drivers/STM32C0xx_HAL_Driver/Inc/stm32c0xx_ll_rcc.h ****   */
 561:Drivers/STM32C0xx_HAL_Driver/Inc/stm32c0xx_ll_rcc.h **** __STATIC_INLINE void LL_RCC_HSE_DisableBypass(void)
 562:Drivers/STM32C0xx_HAL_Driver/Inc/stm32c0xx_ll_rcc.h **** {
 563:Drivers/STM32C0xx_HAL_Driver/Inc/stm32c0xx_ll_rcc.h ****   CLEAR_BIT(RCC->CR, RCC_CR_HSEBYP);
 564:Drivers/STM32C0xx_HAL_Driver/Inc/stm32c0xx_ll_rcc.h **** }
 565:Drivers/STM32C0xx_HAL_Driver/Inc/stm32c0xx_ll_rcc.h **** 
 566:Drivers/STM32C0xx_HAL_Driver/Inc/stm32c0xx_ll_rcc.h **** /**
 567:Drivers/STM32C0xx_HAL_Driver/Inc/stm32c0xx_ll_rcc.h ****   * @brief  Enable HSE crystal oscillator (HSE ON)
 568:Drivers/STM32C0xx_HAL_Driver/Inc/stm32c0xx_ll_rcc.h ****   * @rmtoll CR           HSEON         LL_RCC_HSE_Enable
 569:Drivers/STM32C0xx_HAL_Driver/Inc/stm32c0xx_ll_rcc.h ****   * @retval None
 570:Drivers/STM32C0xx_HAL_Driver/Inc/stm32c0xx_ll_rcc.h ****   */
 571:Drivers/STM32C0xx_HAL_Driver/Inc/stm32c0xx_ll_rcc.h **** __STATIC_INLINE void LL_RCC_HSE_Enable(void)
 572:Drivers/STM32C0xx_HAL_Driver/Inc/stm32c0xx_ll_rcc.h **** {
 573:Drivers/STM32C0xx_HAL_Driver/Inc/stm32c0xx_ll_rcc.h ****   SET_BIT(RCC->CR, RCC_CR_HSEON);
 574:Drivers/STM32C0xx_HAL_Driver/Inc/stm32c0xx_ll_rcc.h **** }
 575:Drivers/STM32C0xx_HAL_Driver/Inc/stm32c0xx_ll_rcc.h **** 
 576:Drivers/STM32C0xx_HAL_Driver/Inc/stm32c0xx_ll_rcc.h **** /**
 577:Drivers/STM32C0xx_HAL_Driver/Inc/stm32c0xx_ll_rcc.h ****   * @brief  Disable HSE crystal oscillator (HSE ON)
 578:Drivers/STM32C0xx_HAL_Driver/Inc/stm32c0xx_ll_rcc.h ****   * @rmtoll CR           HSEON         LL_RCC_HSE_Disable
 579:Drivers/STM32C0xx_HAL_Driver/Inc/stm32c0xx_ll_rcc.h ****   * @retval None
 580:Drivers/STM32C0xx_HAL_Driver/Inc/stm32c0xx_ll_rcc.h ****   */
 581:Drivers/STM32C0xx_HAL_Driver/Inc/stm32c0xx_ll_rcc.h **** __STATIC_INLINE void LL_RCC_HSE_Disable(void)
 582:Drivers/STM32C0xx_HAL_Driver/Inc/stm32c0xx_ll_rcc.h **** {
 583:Drivers/STM32C0xx_HAL_Driver/Inc/stm32c0xx_ll_rcc.h ****   CLEAR_BIT(RCC->CR, RCC_CR_HSEON);
 584:Drivers/STM32C0xx_HAL_Driver/Inc/stm32c0xx_ll_rcc.h **** }
 585:Drivers/STM32C0xx_HAL_Driver/Inc/stm32c0xx_ll_rcc.h **** 
 586:Drivers/STM32C0xx_HAL_Driver/Inc/stm32c0xx_ll_rcc.h **** /**
 587:Drivers/STM32C0xx_HAL_Driver/Inc/stm32c0xx_ll_rcc.h ****   * @brief  Check if HSE oscillator Ready
 588:Drivers/STM32C0xx_HAL_Driver/Inc/stm32c0xx_ll_rcc.h ****   * @rmtoll CR           HSERDY        LL_RCC_HSE_IsReady
 589:Drivers/STM32C0xx_HAL_Driver/Inc/stm32c0xx_ll_rcc.h ****   * @retval State of bit (1 or 0).
 590:Drivers/STM32C0xx_HAL_Driver/Inc/stm32c0xx_ll_rcc.h ****   */
 591:Drivers/STM32C0xx_HAL_Driver/Inc/stm32c0xx_ll_rcc.h **** __STATIC_INLINE uint32_t LL_RCC_HSE_IsReady(void)
 592:Drivers/STM32C0xx_HAL_Driver/Inc/stm32c0xx_ll_rcc.h **** {
ARM GAS  /var/folders/nl/kwfz41d55ync1k9vlz8wmkc80000gn/T//ccPpmmCA.s 			page 45


 593:Drivers/STM32C0xx_HAL_Driver/Inc/stm32c0xx_ll_rcc.h ****   return ((READ_BIT(RCC->CR, RCC_CR_HSERDY) == (RCC_CR_HSERDY)) ? 1UL : 0UL);
 594:Drivers/STM32C0xx_HAL_Driver/Inc/stm32c0xx_ll_rcc.h **** }
 595:Drivers/STM32C0xx_HAL_Driver/Inc/stm32c0xx_ll_rcc.h **** 
 596:Drivers/STM32C0xx_HAL_Driver/Inc/stm32c0xx_ll_rcc.h **** /**
 597:Drivers/STM32C0xx_HAL_Driver/Inc/stm32c0xx_ll_rcc.h ****   * @}
 598:Drivers/STM32C0xx_HAL_Driver/Inc/stm32c0xx_ll_rcc.h ****   */
 599:Drivers/STM32C0xx_HAL_Driver/Inc/stm32c0xx_ll_rcc.h **** 
 600:Drivers/STM32C0xx_HAL_Driver/Inc/stm32c0xx_ll_rcc.h **** /** @defgroup RCC_LL_EF_HSI HSI
 601:Drivers/STM32C0xx_HAL_Driver/Inc/stm32c0xx_ll_rcc.h ****   * @{
 602:Drivers/STM32C0xx_HAL_Driver/Inc/stm32c0xx_ll_rcc.h ****   */
 603:Drivers/STM32C0xx_HAL_Driver/Inc/stm32c0xx_ll_rcc.h **** 
 604:Drivers/STM32C0xx_HAL_Driver/Inc/stm32c0xx_ll_rcc.h **** /**
 605:Drivers/STM32C0xx_HAL_Driver/Inc/stm32c0xx_ll_rcc.h ****   * @brief  Enable HSI even in stop mode
 606:Drivers/STM32C0xx_HAL_Driver/Inc/stm32c0xx_ll_rcc.h ****   * @note HSI oscillator is forced ON even in Stop mode
 607:Drivers/STM32C0xx_HAL_Driver/Inc/stm32c0xx_ll_rcc.h ****   * @rmtoll CR           HSIKERON      LL_RCC_HSI_EnableInStopMode
 608:Drivers/STM32C0xx_HAL_Driver/Inc/stm32c0xx_ll_rcc.h ****   * @retval None
 609:Drivers/STM32C0xx_HAL_Driver/Inc/stm32c0xx_ll_rcc.h ****   */
 610:Drivers/STM32C0xx_HAL_Driver/Inc/stm32c0xx_ll_rcc.h **** __STATIC_INLINE void LL_RCC_HSI_EnableInStopMode(void)
 611:Drivers/STM32C0xx_HAL_Driver/Inc/stm32c0xx_ll_rcc.h **** {
 612:Drivers/STM32C0xx_HAL_Driver/Inc/stm32c0xx_ll_rcc.h ****   SET_BIT(RCC->CR, RCC_CR_HSIKERON);
 613:Drivers/STM32C0xx_HAL_Driver/Inc/stm32c0xx_ll_rcc.h **** }
 614:Drivers/STM32C0xx_HAL_Driver/Inc/stm32c0xx_ll_rcc.h **** 
 615:Drivers/STM32C0xx_HAL_Driver/Inc/stm32c0xx_ll_rcc.h **** /**
 616:Drivers/STM32C0xx_HAL_Driver/Inc/stm32c0xx_ll_rcc.h ****   * @brief  Disable HSI in stop mode
 617:Drivers/STM32C0xx_HAL_Driver/Inc/stm32c0xx_ll_rcc.h ****   * @rmtoll CR           HSIKERON      LL_RCC_HSI_DisableInStopMode
 618:Drivers/STM32C0xx_HAL_Driver/Inc/stm32c0xx_ll_rcc.h ****   * @retval None
 619:Drivers/STM32C0xx_HAL_Driver/Inc/stm32c0xx_ll_rcc.h ****   */
 620:Drivers/STM32C0xx_HAL_Driver/Inc/stm32c0xx_ll_rcc.h **** __STATIC_INLINE void LL_RCC_HSI_DisableInStopMode(void)
 621:Drivers/STM32C0xx_HAL_Driver/Inc/stm32c0xx_ll_rcc.h **** {
 622:Drivers/STM32C0xx_HAL_Driver/Inc/stm32c0xx_ll_rcc.h ****   CLEAR_BIT(RCC->CR, RCC_CR_HSIKERON);
 623:Drivers/STM32C0xx_HAL_Driver/Inc/stm32c0xx_ll_rcc.h **** }
 624:Drivers/STM32C0xx_HAL_Driver/Inc/stm32c0xx_ll_rcc.h **** 
 625:Drivers/STM32C0xx_HAL_Driver/Inc/stm32c0xx_ll_rcc.h **** /**
 626:Drivers/STM32C0xx_HAL_Driver/Inc/stm32c0xx_ll_rcc.h ****   * @brief  Check if HSI in stop mode is enabled
 627:Drivers/STM32C0xx_HAL_Driver/Inc/stm32c0xx_ll_rcc.h ****   * @rmtoll CR           HSIKERON        LL_RCC_HSI_IsEnabledInStopMode
 628:Drivers/STM32C0xx_HAL_Driver/Inc/stm32c0xx_ll_rcc.h ****   * @retval State of bit (1 or 0).
 629:Drivers/STM32C0xx_HAL_Driver/Inc/stm32c0xx_ll_rcc.h ****   */
 630:Drivers/STM32C0xx_HAL_Driver/Inc/stm32c0xx_ll_rcc.h **** __STATIC_INLINE uint32_t LL_RCC_HSI_IsEnabledInStopMode(void)
 631:Drivers/STM32C0xx_HAL_Driver/Inc/stm32c0xx_ll_rcc.h **** {
 632:Drivers/STM32C0xx_HAL_Driver/Inc/stm32c0xx_ll_rcc.h ****   return ((READ_BIT(RCC->CR, RCC_CR_HSIKERON) == (RCC_CR_HSIKERON)) ? 1UL : 0UL);
 633:Drivers/STM32C0xx_HAL_Driver/Inc/stm32c0xx_ll_rcc.h **** }
 634:Drivers/STM32C0xx_HAL_Driver/Inc/stm32c0xx_ll_rcc.h **** 
 635:Drivers/STM32C0xx_HAL_Driver/Inc/stm32c0xx_ll_rcc.h **** /**
 636:Drivers/STM32C0xx_HAL_Driver/Inc/stm32c0xx_ll_rcc.h ****   * @brief  Set HSIKER divider
 637:Drivers/STM32C0xx_HAL_Driver/Inc/stm32c0xx_ll_rcc.h ****   * @rmtoll CR           HSIKERDIV        LL_RCC_HSIKER_SetDivider
 638:Drivers/STM32C0xx_HAL_Driver/Inc/stm32c0xx_ll_rcc.h ****   * @param  Divider This parameter can be one of the following values:
 639:Drivers/STM32C0xx_HAL_Driver/Inc/stm32c0xx_ll_rcc.h ****   *         @arg @ref LL_RCC_HSIKER_DIV_1
 640:Drivers/STM32C0xx_HAL_Driver/Inc/stm32c0xx_ll_rcc.h ****   *         @arg @ref LL_RCC_HSIKER_DIV_2
 641:Drivers/STM32C0xx_HAL_Driver/Inc/stm32c0xx_ll_rcc.h ****   *         @arg @ref LL_RCC_HSIKER_DIV_3
 642:Drivers/STM32C0xx_HAL_Driver/Inc/stm32c0xx_ll_rcc.h ****   *         @arg @ref LL_RCC_HSIKER_DIV_4
 643:Drivers/STM32C0xx_HAL_Driver/Inc/stm32c0xx_ll_rcc.h ****   *         @arg @ref LL_RCC_HSIKER_DIV_5
 644:Drivers/STM32C0xx_HAL_Driver/Inc/stm32c0xx_ll_rcc.h ****   *         @arg @ref LL_RCC_HSIKER_DIV_6
 645:Drivers/STM32C0xx_HAL_Driver/Inc/stm32c0xx_ll_rcc.h ****   *         @arg @ref LL_RCC_HSIKER_DIV_7
 646:Drivers/STM32C0xx_HAL_Driver/Inc/stm32c0xx_ll_rcc.h ****   *         @arg @ref LL_RCC_HSIKER_DIV_8
 647:Drivers/STM32C0xx_HAL_Driver/Inc/stm32c0xx_ll_rcc.h ****   * @retval None.
 648:Drivers/STM32C0xx_HAL_Driver/Inc/stm32c0xx_ll_rcc.h ****   */
 649:Drivers/STM32C0xx_HAL_Driver/Inc/stm32c0xx_ll_rcc.h **** __STATIC_INLINE void LL_RCC_HSIKER_SetDivider(uint32_t Divider)
ARM GAS  /var/folders/nl/kwfz41d55ync1k9vlz8wmkc80000gn/T//ccPpmmCA.s 			page 46


 650:Drivers/STM32C0xx_HAL_Driver/Inc/stm32c0xx_ll_rcc.h **** {
 651:Drivers/STM32C0xx_HAL_Driver/Inc/stm32c0xx_ll_rcc.h ****   MODIFY_REG(RCC->CR, RCC_CR_HSIKERDIV, Divider);
 652:Drivers/STM32C0xx_HAL_Driver/Inc/stm32c0xx_ll_rcc.h **** }
 653:Drivers/STM32C0xx_HAL_Driver/Inc/stm32c0xx_ll_rcc.h **** 
 654:Drivers/STM32C0xx_HAL_Driver/Inc/stm32c0xx_ll_rcc.h **** /**
 655:Drivers/STM32C0xx_HAL_Driver/Inc/stm32c0xx_ll_rcc.h ****   * @brief  Get HSIKER divider
 656:Drivers/STM32C0xx_HAL_Driver/Inc/stm32c0xx_ll_rcc.h ****   * @rmtoll CR           HSIKERDIV        LL_RCC_HSIKER_GetDivider
 657:Drivers/STM32C0xx_HAL_Driver/Inc/stm32c0xx_ll_rcc.h ****   * @retval can be one of the following values:
 658:Drivers/STM32C0xx_HAL_Driver/Inc/stm32c0xx_ll_rcc.h ****   *         @arg @ref LL_RCC_HSIKER_DIV_1
 659:Drivers/STM32C0xx_HAL_Driver/Inc/stm32c0xx_ll_rcc.h ****   *         @arg @ref LL_RCC_HSIKER_DIV_2
 660:Drivers/STM32C0xx_HAL_Driver/Inc/stm32c0xx_ll_rcc.h ****   *         @arg @ref LL_RCC_HSIKER_DIV_3
 661:Drivers/STM32C0xx_HAL_Driver/Inc/stm32c0xx_ll_rcc.h ****   *         @arg @ref LL_RCC_HSIKER_DIV_4
 662:Drivers/STM32C0xx_HAL_Driver/Inc/stm32c0xx_ll_rcc.h ****   *         @arg @ref LL_RCC_HSIKER_DIV_5
 663:Drivers/STM32C0xx_HAL_Driver/Inc/stm32c0xx_ll_rcc.h ****   *         @arg @ref LL_RCC_HSIKER_DIV_6
 664:Drivers/STM32C0xx_HAL_Driver/Inc/stm32c0xx_ll_rcc.h ****   *         @arg @ref LL_RCC_HSIKER_DIV_7
 665:Drivers/STM32C0xx_HAL_Driver/Inc/stm32c0xx_ll_rcc.h ****   *         @arg @ref LL_RCC_HSIKER_DIV_8
 666:Drivers/STM32C0xx_HAL_Driver/Inc/stm32c0xx_ll_rcc.h ****   */
 667:Drivers/STM32C0xx_HAL_Driver/Inc/stm32c0xx_ll_rcc.h **** __STATIC_INLINE uint32_t LL_RCC_HSIKER_GetDivider(void)
 668:Drivers/STM32C0xx_HAL_Driver/Inc/stm32c0xx_ll_rcc.h **** {
 669:Drivers/STM32C0xx_HAL_Driver/Inc/stm32c0xx_ll_rcc.h ****   return (READ_BIT(RCC->CR, RCC_CR_HSIKERDIV));
 670:Drivers/STM32C0xx_HAL_Driver/Inc/stm32c0xx_ll_rcc.h **** }
 671:Drivers/STM32C0xx_HAL_Driver/Inc/stm32c0xx_ll_rcc.h **** 
 672:Drivers/STM32C0xx_HAL_Driver/Inc/stm32c0xx_ll_rcc.h **** /**
 673:Drivers/STM32C0xx_HAL_Driver/Inc/stm32c0xx_ll_rcc.h ****   * @brief  Enable HSI oscillator
 674:Drivers/STM32C0xx_HAL_Driver/Inc/stm32c0xx_ll_rcc.h ****   * @rmtoll CR           HSION         LL_RCC_HSI_Enable
 675:Drivers/STM32C0xx_HAL_Driver/Inc/stm32c0xx_ll_rcc.h ****   * @retval None
 676:Drivers/STM32C0xx_HAL_Driver/Inc/stm32c0xx_ll_rcc.h ****   */
 677:Drivers/STM32C0xx_HAL_Driver/Inc/stm32c0xx_ll_rcc.h **** __STATIC_INLINE void LL_RCC_HSI_Enable(void)
 678:Drivers/STM32C0xx_HAL_Driver/Inc/stm32c0xx_ll_rcc.h **** {
 679:Drivers/STM32C0xx_HAL_Driver/Inc/stm32c0xx_ll_rcc.h ****   SET_BIT(RCC->CR, RCC_CR_HSION);
 680:Drivers/STM32C0xx_HAL_Driver/Inc/stm32c0xx_ll_rcc.h **** }
 681:Drivers/STM32C0xx_HAL_Driver/Inc/stm32c0xx_ll_rcc.h **** 
 682:Drivers/STM32C0xx_HAL_Driver/Inc/stm32c0xx_ll_rcc.h **** 
 683:Drivers/STM32C0xx_HAL_Driver/Inc/stm32c0xx_ll_rcc.h **** /**
 684:Drivers/STM32C0xx_HAL_Driver/Inc/stm32c0xx_ll_rcc.h ****   * @brief  Set HSI divider
 685:Drivers/STM32C0xx_HAL_Driver/Inc/stm32c0xx_ll_rcc.h ****   * @rmtoll CR           HSIDIV        LL_RCC_HSI_SetDivider
 686:Drivers/STM32C0xx_HAL_Driver/Inc/stm32c0xx_ll_rcc.h ****   * @param  Divider This parameter can be one of the following values:
 687:Drivers/STM32C0xx_HAL_Driver/Inc/stm32c0xx_ll_rcc.h ****   *         @arg @ref LL_RCC_HSI_DIV_1
 688:Drivers/STM32C0xx_HAL_Driver/Inc/stm32c0xx_ll_rcc.h ****   *         @arg @ref LL_RCC_HSI_DIV_2
 689:Drivers/STM32C0xx_HAL_Driver/Inc/stm32c0xx_ll_rcc.h ****   *         @arg @ref LL_RCC_HSI_DIV_4
 690:Drivers/STM32C0xx_HAL_Driver/Inc/stm32c0xx_ll_rcc.h ****   *         @arg @ref LL_RCC_HSI_DIV_8
 691:Drivers/STM32C0xx_HAL_Driver/Inc/stm32c0xx_ll_rcc.h ****   *         @arg @ref LL_RCC_HSI_DIV_16
 692:Drivers/STM32C0xx_HAL_Driver/Inc/stm32c0xx_ll_rcc.h ****   *         @arg @ref LL_RCC_HSI_DIV_32
 693:Drivers/STM32C0xx_HAL_Driver/Inc/stm32c0xx_ll_rcc.h ****   *         @arg @ref LL_RCC_HSI_DIV_64
 694:Drivers/STM32C0xx_HAL_Driver/Inc/stm32c0xx_ll_rcc.h ****   *         @arg @ref LL_RCC_HSI_DIV_128
 695:Drivers/STM32C0xx_HAL_Driver/Inc/stm32c0xx_ll_rcc.h ****   * @retval None.
 696:Drivers/STM32C0xx_HAL_Driver/Inc/stm32c0xx_ll_rcc.h ****   */
 697:Drivers/STM32C0xx_HAL_Driver/Inc/stm32c0xx_ll_rcc.h **** __STATIC_INLINE void LL_RCC_HSI_SetDivider(uint32_t Divider)
 698:Drivers/STM32C0xx_HAL_Driver/Inc/stm32c0xx_ll_rcc.h **** {
 699:Drivers/STM32C0xx_HAL_Driver/Inc/stm32c0xx_ll_rcc.h ****   MODIFY_REG(RCC->CR, RCC_CR_HSIDIV, Divider);
 700:Drivers/STM32C0xx_HAL_Driver/Inc/stm32c0xx_ll_rcc.h **** }
 701:Drivers/STM32C0xx_HAL_Driver/Inc/stm32c0xx_ll_rcc.h **** 
 702:Drivers/STM32C0xx_HAL_Driver/Inc/stm32c0xx_ll_rcc.h **** /**
 703:Drivers/STM32C0xx_HAL_Driver/Inc/stm32c0xx_ll_rcc.h ****   * @brief  Get HSI divider
 704:Drivers/STM32C0xx_HAL_Driver/Inc/stm32c0xx_ll_rcc.h ****   * @rmtoll CR           HSIDIV        LL_RCC_HSI_GetDivider
 705:Drivers/STM32C0xx_HAL_Driver/Inc/stm32c0xx_ll_rcc.h ****   * @retval can be one of the following values:
 706:Drivers/STM32C0xx_HAL_Driver/Inc/stm32c0xx_ll_rcc.h ****   *         @arg @ref LL_RCC_HSI_DIV_1
ARM GAS  /var/folders/nl/kwfz41d55ync1k9vlz8wmkc80000gn/T//ccPpmmCA.s 			page 47


 707:Drivers/STM32C0xx_HAL_Driver/Inc/stm32c0xx_ll_rcc.h ****   *         @arg @ref LL_RCC_HSI_DIV_2
 708:Drivers/STM32C0xx_HAL_Driver/Inc/stm32c0xx_ll_rcc.h ****   *         @arg @ref LL_RCC_HSI_DIV_4
 709:Drivers/STM32C0xx_HAL_Driver/Inc/stm32c0xx_ll_rcc.h ****   *         @arg @ref LL_RCC_HSI_DIV_8
 710:Drivers/STM32C0xx_HAL_Driver/Inc/stm32c0xx_ll_rcc.h ****   *         @arg @ref LL_RCC_HSI_DIV_16
 711:Drivers/STM32C0xx_HAL_Driver/Inc/stm32c0xx_ll_rcc.h ****   *         @arg @ref LL_RCC_HSI_DIV_32
 712:Drivers/STM32C0xx_HAL_Driver/Inc/stm32c0xx_ll_rcc.h ****   *         @arg @ref LL_RCC_HSI_DIV_64
 713:Drivers/STM32C0xx_HAL_Driver/Inc/stm32c0xx_ll_rcc.h ****   *         @arg @ref LL_RCC_HSI_DIV_128
 714:Drivers/STM32C0xx_HAL_Driver/Inc/stm32c0xx_ll_rcc.h ****   */
 715:Drivers/STM32C0xx_HAL_Driver/Inc/stm32c0xx_ll_rcc.h **** __STATIC_INLINE uint32_t LL_RCC_HSI_GetDivider(void)
 716:Drivers/STM32C0xx_HAL_Driver/Inc/stm32c0xx_ll_rcc.h **** {
 717:Drivers/STM32C0xx_HAL_Driver/Inc/stm32c0xx_ll_rcc.h ****   return (READ_BIT(RCC->CR, RCC_CR_HSIDIV));
 718:Drivers/STM32C0xx_HAL_Driver/Inc/stm32c0xx_ll_rcc.h **** }
 719:Drivers/STM32C0xx_HAL_Driver/Inc/stm32c0xx_ll_rcc.h **** 
 720:Drivers/STM32C0xx_HAL_Driver/Inc/stm32c0xx_ll_rcc.h **** /**
 721:Drivers/STM32C0xx_HAL_Driver/Inc/stm32c0xx_ll_rcc.h ****   * @brief  Disable HSI oscillator
 722:Drivers/STM32C0xx_HAL_Driver/Inc/stm32c0xx_ll_rcc.h ****   * @rmtoll CR           HSION         LL_RCC_HSI_Disable
 723:Drivers/STM32C0xx_HAL_Driver/Inc/stm32c0xx_ll_rcc.h ****   * @retval None
 724:Drivers/STM32C0xx_HAL_Driver/Inc/stm32c0xx_ll_rcc.h ****   */
 725:Drivers/STM32C0xx_HAL_Driver/Inc/stm32c0xx_ll_rcc.h **** __STATIC_INLINE void LL_RCC_HSI_Disable(void)
 726:Drivers/STM32C0xx_HAL_Driver/Inc/stm32c0xx_ll_rcc.h **** {
 727:Drivers/STM32C0xx_HAL_Driver/Inc/stm32c0xx_ll_rcc.h ****   CLEAR_BIT(RCC->CR, RCC_CR_HSION);
 728:Drivers/STM32C0xx_HAL_Driver/Inc/stm32c0xx_ll_rcc.h **** }
 729:Drivers/STM32C0xx_HAL_Driver/Inc/stm32c0xx_ll_rcc.h **** 
 730:Drivers/STM32C0xx_HAL_Driver/Inc/stm32c0xx_ll_rcc.h **** /**
 731:Drivers/STM32C0xx_HAL_Driver/Inc/stm32c0xx_ll_rcc.h ****   * @brief  Check if HSI clock is ready
 732:Drivers/STM32C0xx_HAL_Driver/Inc/stm32c0xx_ll_rcc.h ****   * @rmtoll CR           HSIRDY        LL_RCC_HSI_IsReady
 733:Drivers/STM32C0xx_HAL_Driver/Inc/stm32c0xx_ll_rcc.h ****   * @retval State of bit (1 or 0).
 734:Drivers/STM32C0xx_HAL_Driver/Inc/stm32c0xx_ll_rcc.h ****   */
 735:Drivers/STM32C0xx_HAL_Driver/Inc/stm32c0xx_ll_rcc.h **** __STATIC_INLINE uint32_t LL_RCC_HSI_IsReady(void)
 736:Drivers/STM32C0xx_HAL_Driver/Inc/stm32c0xx_ll_rcc.h **** {
 737:Drivers/STM32C0xx_HAL_Driver/Inc/stm32c0xx_ll_rcc.h ****   return ((READ_BIT(RCC->CR, RCC_CR_HSIRDY) == (RCC_CR_HSIRDY)) ? 1UL : 0UL);
 738:Drivers/STM32C0xx_HAL_Driver/Inc/stm32c0xx_ll_rcc.h **** }
 739:Drivers/STM32C0xx_HAL_Driver/Inc/stm32c0xx_ll_rcc.h **** 
 740:Drivers/STM32C0xx_HAL_Driver/Inc/stm32c0xx_ll_rcc.h **** /**
 741:Drivers/STM32C0xx_HAL_Driver/Inc/stm32c0xx_ll_rcc.h ****   * @brief  Get HSI Calibration value
 742:Drivers/STM32C0xx_HAL_Driver/Inc/stm32c0xx_ll_rcc.h ****   * @note When HSITRIM is written, HSICAL is updated with the sum of
 743:Drivers/STM32C0xx_HAL_Driver/Inc/stm32c0xx_ll_rcc.h ****   *       HSITRIM and the factory trim value
 744:Drivers/STM32C0xx_HAL_Driver/Inc/stm32c0xx_ll_rcc.h ****   * @rmtoll ICSCR        HSICAL        LL_RCC_HSI_GetCalibration
 745:Drivers/STM32C0xx_HAL_Driver/Inc/stm32c0xx_ll_rcc.h ****   * @retval Between Min_Data = 0x00 and Max_Data = 0xFF
 746:Drivers/STM32C0xx_HAL_Driver/Inc/stm32c0xx_ll_rcc.h ****   */
 747:Drivers/STM32C0xx_HAL_Driver/Inc/stm32c0xx_ll_rcc.h **** __STATIC_INLINE uint32_t LL_RCC_HSI_GetCalibration(void)
 748:Drivers/STM32C0xx_HAL_Driver/Inc/stm32c0xx_ll_rcc.h **** {
 749:Drivers/STM32C0xx_HAL_Driver/Inc/stm32c0xx_ll_rcc.h ****   return (uint32_t)(READ_BIT(RCC->ICSCR, RCC_ICSCR_HSICAL) >> RCC_ICSCR_HSICAL_Pos);
 750:Drivers/STM32C0xx_HAL_Driver/Inc/stm32c0xx_ll_rcc.h **** }
 751:Drivers/STM32C0xx_HAL_Driver/Inc/stm32c0xx_ll_rcc.h **** 
 752:Drivers/STM32C0xx_HAL_Driver/Inc/stm32c0xx_ll_rcc.h **** /**
 753:Drivers/STM32C0xx_HAL_Driver/Inc/stm32c0xx_ll_rcc.h ****   * @brief  Set HSI Calibration trimming
 754:Drivers/STM32C0xx_HAL_Driver/Inc/stm32c0xx_ll_rcc.h ****   * @note user-programmable trimming value that is added to the HSICAL
 755:Drivers/STM32C0xx_HAL_Driver/Inc/stm32c0xx_ll_rcc.h ****   * @note Default value is 64, which, when added to the HSICAL value,
 756:Drivers/STM32C0xx_HAL_Driver/Inc/stm32c0xx_ll_rcc.h ****   *       should trim the HSI to 16 MHz +/- 1 %
 757:Drivers/STM32C0xx_HAL_Driver/Inc/stm32c0xx_ll_rcc.h ****   * @rmtoll ICSCR        HSITRIM       LL_RCC_HSI_SetCalibTrimming
 758:Drivers/STM32C0xx_HAL_Driver/Inc/stm32c0xx_ll_rcc.h ****   * @param  Value Between Min_Data = 0 and Max_Data = 127
 759:Drivers/STM32C0xx_HAL_Driver/Inc/stm32c0xx_ll_rcc.h ****   * @retval None
 760:Drivers/STM32C0xx_HAL_Driver/Inc/stm32c0xx_ll_rcc.h ****   */
 761:Drivers/STM32C0xx_HAL_Driver/Inc/stm32c0xx_ll_rcc.h **** __STATIC_INLINE void LL_RCC_HSI_SetCalibTrimming(uint32_t Value)
 762:Drivers/STM32C0xx_HAL_Driver/Inc/stm32c0xx_ll_rcc.h **** {
 763:Drivers/STM32C0xx_HAL_Driver/Inc/stm32c0xx_ll_rcc.h ****   MODIFY_REG(RCC->ICSCR, RCC_ICSCR_HSITRIM, Value << RCC_ICSCR_HSITRIM_Pos);
ARM GAS  /var/folders/nl/kwfz41d55ync1k9vlz8wmkc80000gn/T//ccPpmmCA.s 			page 48


 764:Drivers/STM32C0xx_HAL_Driver/Inc/stm32c0xx_ll_rcc.h **** }
 765:Drivers/STM32C0xx_HAL_Driver/Inc/stm32c0xx_ll_rcc.h **** 
 766:Drivers/STM32C0xx_HAL_Driver/Inc/stm32c0xx_ll_rcc.h **** /**
 767:Drivers/STM32C0xx_HAL_Driver/Inc/stm32c0xx_ll_rcc.h ****   * @brief  Get HSI Calibration trimming
 768:Drivers/STM32C0xx_HAL_Driver/Inc/stm32c0xx_ll_rcc.h ****   * @rmtoll ICSCR        HSITRIM       LL_RCC_HSI_GetCalibTrimming
 769:Drivers/STM32C0xx_HAL_Driver/Inc/stm32c0xx_ll_rcc.h ****   * @retval Between Min_Data = 0 and Max_Data = 127
 770:Drivers/STM32C0xx_HAL_Driver/Inc/stm32c0xx_ll_rcc.h ****   */
 771:Drivers/STM32C0xx_HAL_Driver/Inc/stm32c0xx_ll_rcc.h **** __STATIC_INLINE uint32_t LL_RCC_HSI_GetCalibTrimming(void)
 772:Drivers/STM32C0xx_HAL_Driver/Inc/stm32c0xx_ll_rcc.h **** {
 773:Drivers/STM32C0xx_HAL_Driver/Inc/stm32c0xx_ll_rcc.h ****   return (uint32_t)(READ_BIT(RCC->ICSCR, RCC_ICSCR_HSITRIM) >> RCC_ICSCR_HSITRIM_Pos);
 774:Drivers/STM32C0xx_HAL_Driver/Inc/stm32c0xx_ll_rcc.h **** }
 775:Drivers/STM32C0xx_HAL_Driver/Inc/stm32c0xx_ll_rcc.h **** 
 776:Drivers/STM32C0xx_HAL_Driver/Inc/stm32c0xx_ll_rcc.h **** /**
 777:Drivers/STM32C0xx_HAL_Driver/Inc/stm32c0xx_ll_rcc.h ****   * @}
 778:Drivers/STM32C0xx_HAL_Driver/Inc/stm32c0xx_ll_rcc.h ****   */
 779:Drivers/STM32C0xx_HAL_Driver/Inc/stm32c0xx_ll_rcc.h **** 
 780:Drivers/STM32C0xx_HAL_Driver/Inc/stm32c0xx_ll_rcc.h **** /** @defgroup RCC_LL_EF_LSE LSE
 781:Drivers/STM32C0xx_HAL_Driver/Inc/stm32c0xx_ll_rcc.h ****   * @{
 782:Drivers/STM32C0xx_HAL_Driver/Inc/stm32c0xx_ll_rcc.h ****   */
 783:Drivers/STM32C0xx_HAL_Driver/Inc/stm32c0xx_ll_rcc.h **** 
 784:Drivers/STM32C0xx_HAL_Driver/Inc/stm32c0xx_ll_rcc.h **** /**
 785:Drivers/STM32C0xx_HAL_Driver/Inc/stm32c0xx_ll_rcc.h ****   * @brief  Enable  Low Speed External (LSE) crystal.
 786:Drivers/STM32C0xx_HAL_Driver/Inc/stm32c0xx_ll_rcc.h ****   * @rmtoll CSR1         LSEON         LL_RCC_LSE_Enable
 787:Drivers/STM32C0xx_HAL_Driver/Inc/stm32c0xx_ll_rcc.h ****   * @retval None
 788:Drivers/STM32C0xx_HAL_Driver/Inc/stm32c0xx_ll_rcc.h ****   */
 789:Drivers/STM32C0xx_HAL_Driver/Inc/stm32c0xx_ll_rcc.h **** __STATIC_INLINE void LL_RCC_LSE_Enable(void)
 790:Drivers/STM32C0xx_HAL_Driver/Inc/stm32c0xx_ll_rcc.h **** {
 791:Drivers/STM32C0xx_HAL_Driver/Inc/stm32c0xx_ll_rcc.h ****   SET_BIT(RCC->CSR1, RCC_CSR1_LSEON);
 792:Drivers/STM32C0xx_HAL_Driver/Inc/stm32c0xx_ll_rcc.h **** }
 793:Drivers/STM32C0xx_HAL_Driver/Inc/stm32c0xx_ll_rcc.h **** 
 794:Drivers/STM32C0xx_HAL_Driver/Inc/stm32c0xx_ll_rcc.h **** /**
 795:Drivers/STM32C0xx_HAL_Driver/Inc/stm32c0xx_ll_rcc.h ****   * @brief  Disable  Low Speed External (LSE) crystal.
 796:Drivers/STM32C0xx_HAL_Driver/Inc/stm32c0xx_ll_rcc.h ****   * @rmtoll CSR1         LSEON         LL_RCC_LSE_Disable
 797:Drivers/STM32C0xx_HAL_Driver/Inc/stm32c0xx_ll_rcc.h ****   * @retval None
 798:Drivers/STM32C0xx_HAL_Driver/Inc/stm32c0xx_ll_rcc.h ****   */
 799:Drivers/STM32C0xx_HAL_Driver/Inc/stm32c0xx_ll_rcc.h **** __STATIC_INLINE void LL_RCC_LSE_Disable(void)
 800:Drivers/STM32C0xx_HAL_Driver/Inc/stm32c0xx_ll_rcc.h **** {
 801:Drivers/STM32C0xx_HAL_Driver/Inc/stm32c0xx_ll_rcc.h ****   CLEAR_BIT(RCC->CSR1, RCC_CSR1_LSEON);
 802:Drivers/STM32C0xx_HAL_Driver/Inc/stm32c0xx_ll_rcc.h **** }
 803:Drivers/STM32C0xx_HAL_Driver/Inc/stm32c0xx_ll_rcc.h **** 
 804:Drivers/STM32C0xx_HAL_Driver/Inc/stm32c0xx_ll_rcc.h **** /**
 805:Drivers/STM32C0xx_HAL_Driver/Inc/stm32c0xx_ll_rcc.h ****   * @brief  Enable external clock source (LSE bypass).
 806:Drivers/STM32C0xx_HAL_Driver/Inc/stm32c0xx_ll_rcc.h ****   * @rmtoll CSR1         LSEBYP        LL_RCC_LSE_EnableBypass
 807:Drivers/STM32C0xx_HAL_Driver/Inc/stm32c0xx_ll_rcc.h ****   * @retval None
 808:Drivers/STM32C0xx_HAL_Driver/Inc/stm32c0xx_ll_rcc.h ****   */
 809:Drivers/STM32C0xx_HAL_Driver/Inc/stm32c0xx_ll_rcc.h **** __STATIC_INLINE void LL_RCC_LSE_EnableBypass(void)
 810:Drivers/STM32C0xx_HAL_Driver/Inc/stm32c0xx_ll_rcc.h **** {
 811:Drivers/STM32C0xx_HAL_Driver/Inc/stm32c0xx_ll_rcc.h ****   SET_BIT(RCC->CSR1, RCC_CSR1_LSEBYP);
 812:Drivers/STM32C0xx_HAL_Driver/Inc/stm32c0xx_ll_rcc.h **** }
 813:Drivers/STM32C0xx_HAL_Driver/Inc/stm32c0xx_ll_rcc.h **** 
 814:Drivers/STM32C0xx_HAL_Driver/Inc/stm32c0xx_ll_rcc.h **** /**
 815:Drivers/STM32C0xx_HAL_Driver/Inc/stm32c0xx_ll_rcc.h ****   * @brief  Disable external clock source (LSE bypass).
 816:Drivers/STM32C0xx_HAL_Driver/Inc/stm32c0xx_ll_rcc.h ****   * @rmtoll CSR1         LSEBYP        LL_RCC_LSE_DisableBypass
 817:Drivers/STM32C0xx_HAL_Driver/Inc/stm32c0xx_ll_rcc.h ****   * @retval None
 818:Drivers/STM32C0xx_HAL_Driver/Inc/stm32c0xx_ll_rcc.h ****   */
 819:Drivers/STM32C0xx_HAL_Driver/Inc/stm32c0xx_ll_rcc.h **** __STATIC_INLINE void LL_RCC_LSE_DisableBypass(void)
 820:Drivers/STM32C0xx_HAL_Driver/Inc/stm32c0xx_ll_rcc.h **** {
ARM GAS  /var/folders/nl/kwfz41d55ync1k9vlz8wmkc80000gn/T//ccPpmmCA.s 			page 49


 821:Drivers/STM32C0xx_HAL_Driver/Inc/stm32c0xx_ll_rcc.h ****   CLEAR_BIT(RCC->CSR1, RCC_CSR1_LSEBYP);
 822:Drivers/STM32C0xx_HAL_Driver/Inc/stm32c0xx_ll_rcc.h **** }
 823:Drivers/STM32C0xx_HAL_Driver/Inc/stm32c0xx_ll_rcc.h **** 
 824:Drivers/STM32C0xx_HAL_Driver/Inc/stm32c0xx_ll_rcc.h **** /**
 825:Drivers/STM32C0xx_HAL_Driver/Inc/stm32c0xx_ll_rcc.h ****   * @brief  Set LSE oscillator drive capability
 826:Drivers/STM32C0xx_HAL_Driver/Inc/stm32c0xx_ll_rcc.h ****   * @note The oscillator is in Xtal mode when it is not in bypass mode.
 827:Drivers/STM32C0xx_HAL_Driver/Inc/stm32c0xx_ll_rcc.h ****   * @rmtoll CSR1         LSEDRV        LL_RCC_LSE_SetDriveCapability
 828:Drivers/STM32C0xx_HAL_Driver/Inc/stm32c0xx_ll_rcc.h ****   * @param  LSEDrive This parameter can be one of the following values:
 829:Drivers/STM32C0xx_HAL_Driver/Inc/stm32c0xx_ll_rcc.h ****   *         @arg @ref LL_RCC_LSEDRIVE_LOW
 830:Drivers/STM32C0xx_HAL_Driver/Inc/stm32c0xx_ll_rcc.h ****   *         @arg @ref LL_RCC_LSEDRIVE_MEDIUMLOW
 831:Drivers/STM32C0xx_HAL_Driver/Inc/stm32c0xx_ll_rcc.h ****   *         @arg @ref LL_RCC_LSEDRIVE_MEDIUMHIGH
 832:Drivers/STM32C0xx_HAL_Driver/Inc/stm32c0xx_ll_rcc.h ****   *         @arg @ref LL_RCC_LSEDRIVE_HIGH
 833:Drivers/STM32C0xx_HAL_Driver/Inc/stm32c0xx_ll_rcc.h ****   * @retval None
 834:Drivers/STM32C0xx_HAL_Driver/Inc/stm32c0xx_ll_rcc.h ****   */
 835:Drivers/STM32C0xx_HAL_Driver/Inc/stm32c0xx_ll_rcc.h **** __STATIC_INLINE void LL_RCC_LSE_SetDriveCapability(uint32_t LSEDrive)
 836:Drivers/STM32C0xx_HAL_Driver/Inc/stm32c0xx_ll_rcc.h **** {
 837:Drivers/STM32C0xx_HAL_Driver/Inc/stm32c0xx_ll_rcc.h ****   MODIFY_REG(RCC->CSR1, RCC_CSR1_LSEDRV, LSEDrive);
 838:Drivers/STM32C0xx_HAL_Driver/Inc/stm32c0xx_ll_rcc.h **** }
 839:Drivers/STM32C0xx_HAL_Driver/Inc/stm32c0xx_ll_rcc.h **** 
 840:Drivers/STM32C0xx_HAL_Driver/Inc/stm32c0xx_ll_rcc.h **** /**
 841:Drivers/STM32C0xx_HAL_Driver/Inc/stm32c0xx_ll_rcc.h ****   * @brief  Get LSE oscillator drive capability
 842:Drivers/STM32C0xx_HAL_Driver/Inc/stm32c0xx_ll_rcc.h ****   * @rmtoll CSR1         LSEDRV        LL_RCC_LSE_GetDriveCapability
 843:Drivers/STM32C0xx_HAL_Driver/Inc/stm32c0xx_ll_rcc.h ****   * @retval Returned value can be one of the following values:
 844:Drivers/STM32C0xx_HAL_Driver/Inc/stm32c0xx_ll_rcc.h ****   *         @arg @ref LL_RCC_LSEDRIVE_LOW
 845:Drivers/STM32C0xx_HAL_Driver/Inc/stm32c0xx_ll_rcc.h ****   *         @arg @ref LL_RCC_LSEDRIVE_MEDIUMLOW
 846:Drivers/STM32C0xx_HAL_Driver/Inc/stm32c0xx_ll_rcc.h ****   *         @arg @ref LL_RCC_LSEDRIVE_MEDIUMHIGH
 847:Drivers/STM32C0xx_HAL_Driver/Inc/stm32c0xx_ll_rcc.h ****   *         @arg @ref LL_RCC_LSEDRIVE_HIGH
 848:Drivers/STM32C0xx_HAL_Driver/Inc/stm32c0xx_ll_rcc.h ****   */
 849:Drivers/STM32C0xx_HAL_Driver/Inc/stm32c0xx_ll_rcc.h **** __STATIC_INLINE uint32_t LL_RCC_LSE_GetDriveCapability(void)
 850:Drivers/STM32C0xx_HAL_Driver/Inc/stm32c0xx_ll_rcc.h **** {
 851:Drivers/STM32C0xx_HAL_Driver/Inc/stm32c0xx_ll_rcc.h ****   return (uint32_t)(READ_BIT(RCC->CSR1, RCC_CSR1_LSEDRV));
 852:Drivers/STM32C0xx_HAL_Driver/Inc/stm32c0xx_ll_rcc.h **** }
 853:Drivers/STM32C0xx_HAL_Driver/Inc/stm32c0xx_ll_rcc.h **** 
 854:Drivers/STM32C0xx_HAL_Driver/Inc/stm32c0xx_ll_rcc.h **** /**
 855:Drivers/STM32C0xx_HAL_Driver/Inc/stm32c0xx_ll_rcc.h ****   * @brief  Enable Clock security system on LSE.
 856:Drivers/STM32C0xx_HAL_Driver/Inc/stm32c0xx_ll_rcc.h ****   * @rmtoll CSR1         LSECSSON      LL_RCC_LSE_EnableCSS
 857:Drivers/STM32C0xx_HAL_Driver/Inc/stm32c0xx_ll_rcc.h ****   * @retval None
 858:Drivers/STM32C0xx_HAL_Driver/Inc/stm32c0xx_ll_rcc.h ****   */
 859:Drivers/STM32C0xx_HAL_Driver/Inc/stm32c0xx_ll_rcc.h **** __STATIC_INLINE void LL_RCC_LSE_EnableCSS(void)
 860:Drivers/STM32C0xx_HAL_Driver/Inc/stm32c0xx_ll_rcc.h **** {
 861:Drivers/STM32C0xx_HAL_Driver/Inc/stm32c0xx_ll_rcc.h ****   SET_BIT(RCC->CSR1, RCC_CSR1_LSECSSON);
 862:Drivers/STM32C0xx_HAL_Driver/Inc/stm32c0xx_ll_rcc.h **** }
 863:Drivers/STM32C0xx_HAL_Driver/Inc/stm32c0xx_ll_rcc.h **** 
 864:Drivers/STM32C0xx_HAL_Driver/Inc/stm32c0xx_ll_rcc.h **** /**
 865:Drivers/STM32C0xx_HAL_Driver/Inc/stm32c0xx_ll_rcc.h ****   * @brief  Disable Clock security system on LSE.
 866:Drivers/STM32C0xx_HAL_Driver/Inc/stm32c0xx_ll_rcc.h ****   * @note Clock security system can be disabled only after a LSE
 867:Drivers/STM32C0xx_HAL_Driver/Inc/stm32c0xx_ll_rcc.h ****   *       failure detection. In that case it MUST be disabled by software.
 868:Drivers/STM32C0xx_HAL_Driver/Inc/stm32c0xx_ll_rcc.h ****   * @rmtoll CSR1         LSECSSON      LL_RCC_LSE_DisableCSS
 869:Drivers/STM32C0xx_HAL_Driver/Inc/stm32c0xx_ll_rcc.h ****   * @retval None
 870:Drivers/STM32C0xx_HAL_Driver/Inc/stm32c0xx_ll_rcc.h ****   */
 871:Drivers/STM32C0xx_HAL_Driver/Inc/stm32c0xx_ll_rcc.h **** __STATIC_INLINE void LL_RCC_LSE_DisableCSS(void)
 872:Drivers/STM32C0xx_HAL_Driver/Inc/stm32c0xx_ll_rcc.h **** {
 873:Drivers/STM32C0xx_HAL_Driver/Inc/stm32c0xx_ll_rcc.h ****   CLEAR_BIT(RCC->CSR1, RCC_CSR1_LSECSSON);
 874:Drivers/STM32C0xx_HAL_Driver/Inc/stm32c0xx_ll_rcc.h **** }
 875:Drivers/STM32C0xx_HAL_Driver/Inc/stm32c0xx_ll_rcc.h **** 
 876:Drivers/STM32C0xx_HAL_Driver/Inc/stm32c0xx_ll_rcc.h **** /**
 877:Drivers/STM32C0xx_HAL_Driver/Inc/stm32c0xx_ll_rcc.h ****   * @brief  Check if LSE oscillator Ready
ARM GAS  /var/folders/nl/kwfz41d55ync1k9vlz8wmkc80000gn/T//ccPpmmCA.s 			page 50


 878:Drivers/STM32C0xx_HAL_Driver/Inc/stm32c0xx_ll_rcc.h ****   * @rmtoll CSR1         LSERDY        LL_RCC_LSE_IsReady
 879:Drivers/STM32C0xx_HAL_Driver/Inc/stm32c0xx_ll_rcc.h ****   * @retval State of bit (1 or 0).
 880:Drivers/STM32C0xx_HAL_Driver/Inc/stm32c0xx_ll_rcc.h ****   */
 881:Drivers/STM32C0xx_HAL_Driver/Inc/stm32c0xx_ll_rcc.h **** __STATIC_INLINE uint32_t LL_RCC_LSE_IsReady(void)
 882:Drivers/STM32C0xx_HAL_Driver/Inc/stm32c0xx_ll_rcc.h **** {
 883:Drivers/STM32C0xx_HAL_Driver/Inc/stm32c0xx_ll_rcc.h ****   return ((READ_BIT(RCC->CSR1, RCC_CSR1_LSERDY) == (RCC_CSR1_LSERDY)) ? 1UL : 0UL);
 884:Drivers/STM32C0xx_HAL_Driver/Inc/stm32c0xx_ll_rcc.h **** }
 885:Drivers/STM32C0xx_HAL_Driver/Inc/stm32c0xx_ll_rcc.h **** 
 886:Drivers/STM32C0xx_HAL_Driver/Inc/stm32c0xx_ll_rcc.h **** /**
 887:Drivers/STM32C0xx_HAL_Driver/Inc/stm32c0xx_ll_rcc.h ****   * @brief  Check if CSS on LSE failure Detection
 888:Drivers/STM32C0xx_HAL_Driver/Inc/stm32c0xx_ll_rcc.h ****   * @rmtoll CSR1         LSECSSD       LL_RCC_LSE_IsCSSDetected
 889:Drivers/STM32C0xx_HAL_Driver/Inc/stm32c0xx_ll_rcc.h ****   * @retval State of bit (1 or 0).
 890:Drivers/STM32C0xx_HAL_Driver/Inc/stm32c0xx_ll_rcc.h ****   */
 891:Drivers/STM32C0xx_HAL_Driver/Inc/stm32c0xx_ll_rcc.h **** __STATIC_INLINE uint32_t LL_RCC_LSE_IsCSSDetected(void)
 892:Drivers/STM32C0xx_HAL_Driver/Inc/stm32c0xx_ll_rcc.h **** {
 893:Drivers/STM32C0xx_HAL_Driver/Inc/stm32c0xx_ll_rcc.h ****   return ((READ_BIT(RCC->CSR1, RCC_CSR1_LSECSSD) == (RCC_CSR1_LSECSSD)) ? 1UL : 0UL);
 894:Drivers/STM32C0xx_HAL_Driver/Inc/stm32c0xx_ll_rcc.h **** }
 895:Drivers/STM32C0xx_HAL_Driver/Inc/stm32c0xx_ll_rcc.h **** 
 896:Drivers/STM32C0xx_HAL_Driver/Inc/stm32c0xx_ll_rcc.h **** /**
 897:Drivers/STM32C0xx_HAL_Driver/Inc/stm32c0xx_ll_rcc.h ****   * @}
 898:Drivers/STM32C0xx_HAL_Driver/Inc/stm32c0xx_ll_rcc.h ****   */
 899:Drivers/STM32C0xx_HAL_Driver/Inc/stm32c0xx_ll_rcc.h **** 
 900:Drivers/STM32C0xx_HAL_Driver/Inc/stm32c0xx_ll_rcc.h **** /** @defgroup RCC_LL_EF_LSI LSI
 901:Drivers/STM32C0xx_HAL_Driver/Inc/stm32c0xx_ll_rcc.h ****   * @{
 902:Drivers/STM32C0xx_HAL_Driver/Inc/stm32c0xx_ll_rcc.h ****   */
 903:Drivers/STM32C0xx_HAL_Driver/Inc/stm32c0xx_ll_rcc.h **** 
 904:Drivers/STM32C0xx_HAL_Driver/Inc/stm32c0xx_ll_rcc.h **** /**
 905:Drivers/STM32C0xx_HAL_Driver/Inc/stm32c0xx_ll_rcc.h ****   * @brief  Enable LSI Oscillator
 906:Drivers/STM32C0xx_HAL_Driver/Inc/stm32c0xx_ll_rcc.h ****   * @rmtoll CSR2          LSION         LL_RCC_LSI_Enable
 907:Drivers/STM32C0xx_HAL_Driver/Inc/stm32c0xx_ll_rcc.h ****   * @retval None
 908:Drivers/STM32C0xx_HAL_Driver/Inc/stm32c0xx_ll_rcc.h ****   */
 909:Drivers/STM32C0xx_HAL_Driver/Inc/stm32c0xx_ll_rcc.h **** __STATIC_INLINE void LL_RCC_LSI_Enable(void)
 910:Drivers/STM32C0xx_HAL_Driver/Inc/stm32c0xx_ll_rcc.h **** {
 911:Drivers/STM32C0xx_HAL_Driver/Inc/stm32c0xx_ll_rcc.h ****   SET_BIT(RCC->CSR2, RCC_CSR2_LSION);
 912:Drivers/STM32C0xx_HAL_Driver/Inc/stm32c0xx_ll_rcc.h **** }
 913:Drivers/STM32C0xx_HAL_Driver/Inc/stm32c0xx_ll_rcc.h **** 
 914:Drivers/STM32C0xx_HAL_Driver/Inc/stm32c0xx_ll_rcc.h **** /**
 915:Drivers/STM32C0xx_HAL_Driver/Inc/stm32c0xx_ll_rcc.h ****   * @brief  Disable LSI Oscillator
 916:Drivers/STM32C0xx_HAL_Driver/Inc/stm32c0xx_ll_rcc.h ****   * @rmtoll CSR2          LSION         LL_RCC_LSI_Disable
 917:Drivers/STM32C0xx_HAL_Driver/Inc/stm32c0xx_ll_rcc.h ****   * @retval None
 918:Drivers/STM32C0xx_HAL_Driver/Inc/stm32c0xx_ll_rcc.h ****   */
 919:Drivers/STM32C0xx_HAL_Driver/Inc/stm32c0xx_ll_rcc.h **** __STATIC_INLINE void LL_RCC_LSI_Disable(void)
 920:Drivers/STM32C0xx_HAL_Driver/Inc/stm32c0xx_ll_rcc.h **** {
 921:Drivers/STM32C0xx_HAL_Driver/Inc/stm32c0xx_ll_rcc.h ****   CLEAR_BIT(RCC->CSR2, RCC_CSR2_LSION);
 922:Drivers/STM32C0xx_HAL_Driver/Inc/stm32c0xx_ll_rcc.h **** }
 923:Drivers/STM32C0xx_HAL_Driver/Inc/stm32c0xx_ll_rcc.h **** 
 924:Drivers/STM32C0xx_HAL_Driver/Inc/stm32c0xx_ll_rcc.h **** /**
 925:Drivers/STM32C0xx_HAL_Driver/Inc/stm32c0xx_ll_rcc.h ****   * @brief  Check if LSI is Ready
 926:Drivers/STM32C0xx_HAL_Driver/Inc/stm32c0xx_ll_rcc.h ****   * @rmtoll CSR2          LSIRDY        LL_RCC_LSI_IsReady
 927:Drivers/STM32C0xx_HAL_Driver/Inc/stm32c0xx_ll_rcc.h ****   * @retval State of bit (1 or 0).
 928:Drivers/STM32C0xx_HAL_Driver/Inc/stm32c0xx_ll_rcc.h ****   */
 929:Drivers/STM32C0xx_HAL_Driver/Inc/stm32c0xx_ll_rcc.h **** __STATIC_INLINE uint32_t LL_RCC_LSI_IsReady(void)
 930:Drivers/STM32C0xx_HAL_Driver/Inc/stm32c0xx_ll_rcc.h **** {
 931:Drivers/STM32C0xx_HAL_Driver/Inc/stm32c0xx_ll_rcc.h ****   return ((READ_BIT(RCC->CSR2, RCC_CSR2_LSIRDY) == (RCC_CSR2_LSIRDY)) ? 1UL : 0UL);
 932:Drivers/STM32C0xx_HAL_Driver/Inc/stm32c0xx_ll_rcc.h **** }
 933:Drivers/STM32C0xx_HAL_Driver/Inc/stm32c0xx_ll_rcc.h **** 
 934:Drivers/STM32C0xx_HAL_Driver/Inc/stm32c0xx_ll_rcc.h **** /**
ARM GAS  /var/folders/nl/kwfz41d55ync1k9vlz8wmkc80000gn/T//ccPpmmCA.s 			page 51


 935:Drivers/STM32C0xx_HAL_Driver/Inc/stm32c0xx_ll_rcc.h ****   * @}
 936:Drivers/STM32C0xx_HAL_Driver/Inc/stm32c0xx_ll_rcc.h ****   */
 937:Drivers/STM32C0xx_HAL_Driver/Inc/stm32c0xx_ll_rcc.h **** 
 938:Drivers/STM32C0xx_HAL_Driver/Inc/stm32c0xx_ll_rcc.h **** /** @defgroup RCC_LL_EF_LSCO LSCO
 939:Drivers/STM32C0xx_HAL_Driver/Inc/stm32c0xx_ll_rcc.h ****   * @{
 940:Drivers/STM32C0xx_HAL_Driver/Inc/stm32c0xx_ll_rcc.h ****   */
 941:Drivers/STM32C0xx_HAL_Driver/Inc/stm32c0xx_ll_rcc.h **** 
 942:Drivers/STM32C0xx_HAL_Driver/Inc/stm32c0xx_ll_rcc.h **** /**
 943:Drivers/STM32C0xx_HAL_Driver/Inc/stm32c0xx_ll_rcc.h ****   * @brief  Enable Low speed clock
 944:Drivers/STM32C0xx_HAL_Driver/Inc/stm32c0xx_ll_rcc.h ****   * @rmtoll CSR1         LSCOEN        LL_RCC_LSCO_Enable
 945:Drivers/STM32C0xx_HAL_Driver/Inc/stm32c0xx_ll_rcc.h ****   * @retval None
 946:Drivers/STM32C0xx_HAL_Driver/Inc/stm32c0xx_ll_rcc.h ****   */
 947:Drivers/STM32C0xx_HAL_Driver/Inc/stm32c0xx_ll_rcc.h **** __STATIC_INLINE void LL_RCC_LSCO_Enable(void)
 948:Drivers/STM32C0xx_HAL_Driver/Inc/stm32c0xx_ll_rcc.h **** {
 949:Drivers/STM32C0xx_HAL_Driver/Inc/stm32c0xx_ll_rcc.h ****   SET_BIT(RCC->CSR1, RCC_CSR1_LSCOEN);
 950:Drivers/STM32C0xx_HAL_Driver/Inc/stm32c0xx_ll_rcc.h **** }
 951:Drivers/STM32C0xx_HAL_Driver/Inc/stm32c0xx_ll_rcc.h **** 
 952:Drivers/STM32C0xx_HAL_Driver/Inc/stm32c0xx_ll_rcc.h **** /**
 953:Drivers/STM32C0xx_HAL_Driver/Inc/stm32c0xx_ll_rcc.h ****   * @brief  Disable Low speed clock
 954:Drivers/STM32C0xx_HAL_Driver/Inc/stm32c0xx_ll_rcc.h ****   * @rmtoll CSR1         LSCOEN        LL_RCC_LSCO_Disable
 955:Drivers/STM32C0xx_HAL_Driver/Inc/stm32c0xx_ll_rcc.h ****   * @retval None
 956:Drivers/STM32C0xx_HAL_Driver/Inc/stm32c0xx_ll_rcc.h ****   */
 957:Drivers/STM32C0xx_HAL_Driver/Inc/stm32c0xx_ll_rcc.h **** __STATIC_INLINE void LL_RCC_LSCO_Disable(void)
 958:Drivers/STM32C0xx_HAL_Driver/Inc/stm32c0xx_ll_rcc.h **** {
 959:Drivers/STM32C0xx_HAL_Driver/Inc/stm32c0xx_ll_rcc.h ****   CLEAR_BIT(RCC->CSR1, RCC_CSR1_LSCOEN);
 960:Drivers/STM32C0xx_HAL_Driver/Inc/stm32c0xx_ll_rcc.h **** }
 961:Drivers/STM32C0xx_HAL_Driver/Inc/stm32c0xx_ll_rcc.h **** 
 962:Drivers/STM32C0xx_HAL_Driver/Inc/stm32c0xx_ll_rcc.h **** /**
 963:Drivers/STM32C0xx_HAL_Driver/Inc/stm32c0xx_ll_rcc.h ****   * @brief  Configure Low speed clock selection
 964:Drivers/STM32C0xx_HAL_Driver/Inc/stm32c0xx_ll_rcc.h ****   * @rmtoll CSR1         LSCOSEL       LL_RCC_LSCO_SetSource
 965:Drivers/STM32C0xx_HAL_Driver/Inc/stm32c0xx_ll_rcc.h ****   * @param  Source This parameter can be one of the following values:
 966:Drivers/STM32C0xx_HAL_Driver/Inc/stm32c0xx_ll_rcc.h ****   *         @arg @ref LL_RCC_LSCO_CLKSOURCE_LSI
 967:Drivers/STM32C0xx_HAL_Driver/Inc/stm32c0xx_ll_rcc.h ****   *         @arg @ref LL_RCC_LSCO_CLKSOURCE_LSE
 968:Drivers/STM32C0xx_HAL_Driver/Inc/stm32c0xx_ll_rcc.h ****   * @retval None
 969:Drivers/STM32C0xx_HAL_Driver/Inc/stm32c0xx_ll_rcc.h ****   */
 970:Drivers/STM32C0xx_HAL_Driver/Inc/stm32c0xx_ll_rcc.h **** __STATIC_INLINE void LL_RCC_LSCO_SetSource(uint32_t Source)
 971:Drivers/STM32C0xx_HAL_Driver/Inc/stm32c0xx_ll_rcc.h **** {
 972:Drivers/STM32C0xx_HAL_Driver/Inc/stm32c0xx_ll_rcc.h ****   MODIFY_REG(RCC->CSR1, RCC_CSR1_LSCOSEL, Source);
 973:Drivers/STM32C0xx_HAL_Driver/Inc/stm32c0xx_ll_rcc.h **** }
 974:Drivers/STM32C0xx_HAL_Driver/Inc/stm32c0xx_ll_rcc.h **** 
 975:Drivers/STM32C0xx_HAL_Driver/Inc/stm32c0xx_ll_rcc.h **** /**
 976:Drivers/STM32C0xx_HAL_Driver/Inc/stm32c0xx_ll_rcc.h ****   * @brief  Get Low speed clock selection
 977:Drivers/STM32C0xx_HAL_Driver/Inc/stm32c0xx_ll_rcc.h ****   * @rmtoll CSR1         LSCOSEL       LL_RCC_LSCO_GetSource
 978:Drivers/STM32C0xx_HAL_Driver/Inc/stm32c0xx_ll_rcc.h ****   * @retval Returned value can be one of the following values:
 979:Drivers/STM32C0xx_HAL_Driver/Inc/stm32c0xx_ll_rcc.h ****   *         @arg @ref LL_RCC_LSCO_CLKSOURCE_LSI
 980:Drivers/STM32C0xx_HAL_Driver/Inc/stm32c0xx_ll_rcc.h ****   *         @arg @ref LL_RCC_LSCO_CLKSOURCE_LSE
 981:Drivers/STM32C0xx_HAL_Driver/Inc/stm32c0xx_ll_rcc.h ****   */
 982:Drivers/STM32C0xx_HAL_Driver/Inc/stm32c0xx_ll_rcc.h **** __STATIC_INLINE uint32_t LL_RCC_LSCO_GetSource(void)
 983:Drivers/STM32C0xx_HAL_Driver/Inc/stm32c0xx_ll_rcc.h **** {
 984:Drivers/STM32C0xx_HAL_Driver/Inc/stm32c0xx_ll_rcc.h ****   return (uint32_t)(READ_BIT(RCC->CSR1, RCC_CSR1_LSCOSEL));
 985:Drivers/STM32C0xx_HAL_Driver/Inc/stm32c0xx_ll_rcc.h **** }
 986:Drivers/STM32C0xx_HAL_Driver/Inc/stm32c0xx_ll_rcc.h **** 
 987:Drivers/STM32C0xx_HAL_Driver/Inc/stm32c0xx_ll_rcc.h **** /**
 988:Drivers/STM32C0xx_HAL_Driver/Inc/stm32c0xx_ll_rcc.h ****   * @}
 989:Drivers/STM32C0xx_HAL_Driver/Inc/stm32c0xx_ll_rcc.h ****   */
 990:Drivers/STM32C0xx_HAL_Driver/Inc/stm32c0xx_ll_rcc.h **** 
 991:Drivers/STM32C0xx_HAL_Driver/Inc/stm32c0xx_ll_rcc.h **** /** @defgroup RCC_LL_EF_System System
ARM GAS  /var/folders/nl/kwfz41d55ync1k9vlz8wmkc80000gn/T//ccPpmmCA.s 			page 52


 992:Drivers/STM32C0xx_HAL_Driver/Inc/stm32c0xx_ll_rcc.h ****   * @{
 993:Drivers/STM32C0xx_HAL_Driver/Inc/stm32c0xx_ll_rcc.h ****   */
 994:Drivers/STM32C0xx_HAL_Driver/Inc/stm32c0xx_ll_rcc.h **** 
 995:Drivers/STM32C0xx_HAL_Driver/Inc/stm32c0xx_ll_rcc.h **** /**
 996:Drivers/STM32C0xx_HAL_Driver/Inc/stm32c0xx_ll_rcc.h ****   * @brief  Configure the system clock source
 997:Drivers/STM32C0xx_HAL_Driver/Inc/stm32c0xx_ll_rcc.h ****   * @rmtoll CFGR         SW            LL_RCC_SetSysClkSource
 998:Drivers/STM32C0xx_HAL_Driver/Inc/stm32c0xx_ll_rcc.h ****   * @param  Source This parameter can be one of the following values:
 999:Drivers/STM32C0xx_HAL_Driver/Inc/stm32c0xx_ll_rcc.h ****   *         @arg @ref LL_RCC_SYS_CLKSOURCE_HSI
1000:Drivers/STM32C0xx_HAL_Driver/Inc/stm32c0xx_ll_rcc.h ****   *         @arg @ref LL_RCC_SYS_CLKSOURCE_HSE
1001:Drivers/STM32C0xx_HAL_Driver/Inc/stm32c0xx_ll_rcc.h ****   *         @arg @ref LL_RCC_SYS_CLKSOURCE_LSI
1002:Drivers/STM32C0xx_HAL_Driver/Inc/stm32c0xx_ll_rcc.h ****   *         @arg @ref LL_RCC_SYS_CLKSOURCE_LSE
1003:Drivers/STM32C0xx_HAL_Driver/Inc/stm32c0xx_ll_rcc.h ****   * @retval None
1004:Drivers/STM32C0xx_HAL_Driver/Inc/stm32c0xx_ll_rcc.h ****   */
1005:Drivers/STM32C0xx_HAL_Driver/Inc/stm32c0xx_ll_rcc.h **** __STATIC_INLINE void LL_RCC_SetSysClkSource(uint32_t Source)
1006:Drivers/STM32C0xx_HAL_Driver/Inc/stm32c0xx_ll_rcc.h **** {
1007:Drivers/STM32C0xx_HAL_Driver/Inc/stm32c0xx_ll_rcc.h ****   MODIFY_REG(RCC->CFGR, RCC_CFGR_SW, Source);
1008:Drivers/STM32C0xx_HAL_Driver/Inc/stm32c0xx_ll_rcc.h **** }
1009:Drivers/STM32C0xx_HAL_Driver/Inc/stm32c0xx_ll_rcc.h **** 
1010:Drivers/STM32C0xx_HAL_Driver/Inc/stm32c0xx_ll_rcc.h **** /**
1011:Drivers/STM32C0xx_HAL_Driver/Inc/stm32c0xx_ll_rcc.h ****   * @brief  Get the system clock source
1012:Drivers/STM32C0xx_HAL_Driver/Inc/stm32c0xx_ll_rcc.h ****   * @rmtoll CFGR         SWS           LL_RCC_GetSysClkSource
1013:Drivers/STM32C0xx_HAL_Driver/Inc/stm32c0xx_ll_rcc.h ****   * @retval Returned value can be one of the following values:
1014:Drivers/STM32C0xx_HAL_Driver/Inc/stm32c0xx_ll_rcc.h ****   *         @arg @ref LL_RCC_SYS_CLKSOURCE_STATUS_HSI
1015:Drivers/STM32C0xx_HAL_Driver/Inc/stm32c0xx_ll_rcc.h ****   *         @arg @ref LL_RCC_SYS_CLKSOURCE_STATUS_HSE
1016:Drivers/STM32C0xx_HAL_Driver/Inc/stm32c0xx_ll_rcc.h ****   *         @arg @ref LL_RCC_SYS_CLKSOURCE_STATUS_LSI
1017:Drivers/STM32C0xx_HAL_Driver/Inc/stm32c0xx_ll_rcc.h ****   *         @arg @ref LL_RCC_SYS_CLKSOURCE_STATUS_LSE
1018:Drivers/STM32C0xx_HAL_Driver/Inc/stm32c0xx_ll_rcc.h ****   */
1019:Drivers/STM32C0xx_HAL_Driver/Inc/stm32c0xx_ll_rcc.h **** __STATIC_INLINE uint32_t LL_RCC_GetSysClkSource(void)
1020:Drivers/STM32C0xx_HAL_Driver/Inc/stm32c0xx_ll_rcc.h **** {
1021:Drivers/STM32C0xx_HAL_Driver/Inc/stm32c0xx_ll_rcc.h ****   return (uint32_t)(READ_BIT(RCC->CFGR, RCC_CFGR_SWS));
1022:Drivers/STM32C0xx_HAL_Driver/Inc/stm32c0xx_ll_rcc.h **** }
1023:Drivers/STM32C0xx_HAL_Driver/Inc/stm32c0xx_ll_rcc.h **** 
1024:Drivers/STM32C0xx_HAL_Driver/Inc/stm32c0xx_ll_rcc.h **** /**
1025:Drivers/STM32C0xx_HAL_Driver/Inc/stm32c0xx_ll_rcc.h ****   * @brief  Set AHB prescaler
1026:Drivers/STM32C0xx_HAL_Driver/Inc/stm32c0xx_ll_rcc.h ****   * @rmtoll CFGR         HPRE          LL_RCC_SetAHBPrescaler
1027:Drivers/STM32C0xx_HAL_Driver/Inc/stm32c0xx_ll_rcc.h ****   * @param  Prescaler This parameter can be one of the following values:
1028:Drivers/STM32C0xx_HAL_Driver/Inc/stm32c0xx_ll_rcc.h ****   *         @arg @ref LL_RCC_HCLK_DIV_1    
1029:Drivers/STM32C0xx_HAL_Driver/Inc/stm32c0xx_ll_rcc.h ****   *         @arg @ref LL_RCC_HCLK_DIV_2    
1030:Drivers/STM32C0xx_HAL_Driver/Inc/stm32c0xx_ll_rcc.h ****   *         @arg @ref LL_RCC_HCLK_DIV_4    
1031:Drivers/STM32C0xx_HAL_Driver/Inc/stm32c0xx_ll_rcc.h ****   *         @arg @ref LL_RCC_HCLK_DIV_8    
1032:Drivers/STM32C0xx_HAL_Driver/Inc/stm32c0xx_ll_rcc.h ****   *         @arg @ref LL_RCC_HCLK_DIV_16   
1033:Drivers/STM32C0xx_HAL_Driver/Inc/stm32c0xx_ll_rcc.h ****   *         @arg @ref LL_RCC_HCLK_DIV_64   
1034:Drivers/STM32C0xx_HAL_Driver/Inc/stm32c0xx_ll_rcc.h ****   *         @arg @ref LL_RCC_HCLK_DIV_128  
1035:Drivers/STM32C0xx_HAL_Driver/Inc/stm32c0xx_ll_rcc.h ****   *         @arg @ref LL_RCC_HCLK_DIV_256  
1036:Drivers/STM32C0xx_HAL_Driver/Inc/stm32c0xx_ll_rcc.h ****   *         @arg @ref LL_RCC_HCLK_DIV_512  
1037:Drivers/STM32C0xx_HAL_Driver/Inc/stm32c0xx_ll_rcc.h ****   * @retval None
1038:Drivers/STM32C0xx_HAL_Driver/Inc/stm32c0xx_ll_rcc.h ****   */
1039:Drivers/STM32C0xx_HAL_Driver/Inc/stm32c0xx_ll_rcc.h **** __STATIC_INLINE void LL_RCC_SetAHBPrescaler(uint32_t Prescaler)
1040:Drivers/STM32C0xx_HAL_Driver/Inc/stm32c0xx_ll_rcc.h **** {
1041:Drivers/STM32C0xx_HAL_Driver/Inc/stm32c0xx_ll_rcc.h ****   MODIFY_REG(RCC->CFGR, RCC_CFGR_HPRE, Prescaler);
1042:Drivers/STM32C0xx_HAL_Driver/Inc/stm32c0xx_ll_rcc.h **** }
1043:Drivers/STM32C0xx_HAL_Driver/Inc/stm32c0xx_ll_rcc.h **** 
1044:Drivers/STM32C0xx_HAL_Driver/Inc/stm32c0xx_ll_rcc.h **** /**
1045:Drivers/STM32C0xx_HAL_Driver/Inc/stm32c0xx_ll_rcc.h ****   * @brief  Set APB1 prescaler
1046:Drivers/STM32C0xx_HAL_Driver/Inc/stm32c0xx_ll_rcc.h ****   * @rmtoll CFGR         PPRE         LL_RCC_SetAPB1Prescaler
1047:Drivers/STM32C0xx_HAL_Driver/Inc/stm32c0xx_ll_rcc.h ****   * @param  Prescaler This parameter can be one of the following values:
1048:Drivers/STM32C0xx_HAL_Driver/Inc/stm32c0xx_ll_rcc.h ****   *         @arg @ref LL_RCC_APB1_DIV_1
ARM GAS  /var/folders/nl/kwfz41d55ync1k9vlz8wmkc80000gn/T//ccPpmmCA.s 			page 53


1049:Drivers/STM32C0xx_HAL_Driver/Inc/stm32c0xx_ll_rcc.h ****   *         @arg @ref LL_RCC_APB1_DIV_2
1050:Drivers/STM32C0xx_HAL_Driver/Inc/stm32c0xx_ll_rcc.h ****   *         @arg @ref LL_RCC_APB1_DIV_4
1051:Drivers/STM32C0xx_HAL_Driver/Inc/stm32c0xx_ll_rcc.h ****   *         @arg @ref LL_RCC_APB1_DIV_8
1052:Drivers/STM32C0xx_HAL_Driver/Inc/stm32c0xx_ll_rcc.h ****   *         @arg @ref LL_RCC_APB1_DIV_16
1053:Drivers/STM32C0xx_HAL_Driver/Inc/stm32c0xx_ll_rcc.h ****   * @retval None
1054:Drivers/STM32C0xx_HAL_Driver/Inc/stm32c0xx_ll_rcc.h ****   */
1055:Drivers/STM32C0xx_HAL_Driver/Inc/stm32c0xx_ll_rcc.h **** __STATIC_INLINE void LL_RCC_SetAPB1Prescaler(uint32_t Prescaler)
1056:Drivers/STM32C0xx_HAL_Driver/Inc/stm32c0xx_ll_rcc.h **** {
1057:Drivers/STM32C0xx_HAL_Driver/Inc/stm32c0xx_ll_rcc.h ****   MODIFY_REG(RCC->CFGR, RCC_CFGR_PPRE, Prescaler);
1058:Drivers/STM32C0xx_HAL_Driver/Inc/stm32c0xx_ll_rcc.h **** }
1059:Drivers/STM32C0xx_HAL_Driver/Inc/stm32c0xx_ll_rcc.h **** 
1060:Drivers/STM32C0xx_HAL_Driver/Inc/stm32c0xx_ll_rcc.h **** /**
1061:Drivers/STM32C0xx_HAL_Driver/Inc/stm32c0xx_ll_rcc.h ****   * @brief  Set HSI48 division factor
1062:Drivers/STM32C0xx_HAL_Driver/Inc/stm32c0xx_ll_rcc.h ****   * @rmtoll CR         HSIDIV          LL_RCC_SetHSIDiv
1063:Drivers/STM32C0xx_HAL_Driver/Inc/stm32c0xx_ll_rcc.h ****   * @note  HSIDIV parameter is only applied to SYSCLK_Frequency when HSI is used as
1064:Drivers/STM32C0xx_HAL_Driver/Inc/stm32c0xx_ll_rcc.h ****   * system clock source.
1065:Drivers/STM32C0xx_HAL_Driver/Inc/stm32c0xx_ll_rcc.h ****   * @param  HSIDiv  This parameter can be one of the following values:
1066:Drivers/STM32C0xx_HAL_Driver/Inc/stm32c0xx_ll_rcc.h ****   *         @arg @ref LL_RCC_HSI_DIV_1
1067:Drivers/STM32C0xx_HAL_Driver/Inc/stm32c0xx_ll_rcc.h ****   *         @arg @ref LL_RCC_HSI_DIV_2
1068:Drivers/STM32C0xx_HAL_Driver/Inc/stm32c0xx_ll_rcc.h ****   *         @arg @ref LL_RCC_HSI_DIV_4
1069:Drivers/STM32C0xx_HAL_Driver/Inc/stm32c0xx_ll_rcc.h ****   *         @arg @ref LL_RCC_HSI_DIV_8
1070:Drivers/STM32C0xx_HAL_Driver/Inc/stm32c0xx_ll_rcc.h ****   *         @arg @ref LL_RCC_HSI_DIV_16
1071:Drivers/STM32C0xx_HAL_Driver/Inc/stm32c0xx_ll_rcc.h ****   *         @arg @ref LL_RCC_HSI_DIV_32
1072:Drivers/STM32C0xx_HAL_Driver/Inc/stm32c0xx_ll_rcc.h ****   *         @arg @ref LL_RCC_HSI_DIV_64
1073:Drivers/STM32C0xx_HAL_Driver/Inc/stm32c0xx_ll_rcc.h ****   *         @arg @ref LL_RCC_HSI_DIV_128
1074:Drivers/STM32C0xx_HAL_Driver/Inc/stm32c0xx_ll_rcc.h ****   * @retval None
1075:Drivers/STM32C0xx_HAL_Driver/Inc/stm32c0xx_ll_rcc.h ****   */
1076:Drivers/STM32C0xx_HAL_Driver/Inc/stm32c0xx_ll_rcc.h **** __STATIC_INLINE void LL_RCC_SetHSIDiv(uint32_t HSIDiv)
1077:Drivers/STM32C0xx_HAL_Driver/Inc/stm32c0xx_ll_rcc.h **** {
1078:Drivers/STM32C0xx_HAL_Driver/Inc/stm32c0xx_ll_rcc.h ****   MODIFY_REG(RCC->CR, RCC_CR_HSIDIV, HSIDiv);
1079:Drivers/STM32C0xx_HAL_Driver/Inc/stm32c0xx_ll_rcc.h **** }
1080:Drivers/STM32C0xx_HAL_Driver/Inc/stm32c0xx_ll_rcc.h **** 
1081:Drivers/STM32C0xx_HAL_Driver/Inc/stm32c0xx_ll_rcc.h **** /**
1082:Drivers/STM32C0xx_HAL_Driver/Inc/stm32c0xx_ll_rcc.h ****   * @brief  Set HSIKER division factor
1083:Drivers/STM32C0xx_HAL_Driver/Inc/stm32c0xx_ll_rcc.h ****   * @rmtoll CR         HSIKERDIV          LL_RCC_SetHSIKERDiv
1084:Drivers/STM32C0xx_HAL_Driver/Inc/stm32c0xx_ll_rcc.h ****   * @param  HSIKERDiv  This parameter can be one of the following values:
1085:Drivers/STM32C0xx_HAL_Driver/Inc/stm32c0xx_ll_rcc.h ****   *         @arg @ref LL_RCC_HSIKER_DIV_1
1086:Drivers/STM32C0xx_HAL_Driver/Inc/stm32c0xx_ll_rcc.h ****   *         @arg @ref LL_RCC_HSIKER_DIV_2
1087:Drivers/STM32C0xx_HAL_Driver/Inc/stm32c0xx_ll_rcc.h ****   *         @arg @ref LL_RCC_HSIKER_DIV_3
1088:Drivers/STM32C0xx_HAL_Driver/Inc/stm32c0xx_ll_rcc.h ****   *         @arg @ref LL_RCC_HSIKER_DIV_4
1089:Drivers/STM32C0xx_HAL_Driver/Inc/stm32c0xx_ll_rcc.h ****   *         @arg @ref LL_RCC_HSIKER_DIV_5
1090:Drivers/STM32C0xx_HAL_Driver/Inc/stm32c0xx_ll_rcc.h ****   *         @arg @ref LL_RCC_HSIKER_DIV_6
1091:Drivers/STM32C0xx_HAL_Driver/Inc/stm32c0xx_ll_rcc.h ****   *         @arg @ref LL_RCC_HSIKER_DIV_7
1092:Drivers/STM32C0xx_HAL_Driver/Inc/stm32c0xx_ll_rcc.h ****   *         @arg @ref LL_RCC_HSIKER_DIV_8
1093:Drivers/STM32C0xx_HAL_Driver/Inc/stm32c0xx_ll_rcc.h ****   * @retval None
1094:Drivers/STM32C0xx_HAL_Driver/Inc/stm32c0xx_ll_rcc.h ****   */
1095:Drivers/STM32C0xx_HAL_Driver/Inc/stm32c0xx_ll_rcc.h **** __STATIC_INLINE void LL_RCC_SetHSIKERDiv(uint32_t HSIKERDiv)
1096:Drivers/STM32C0xx_HAL_Driver/Inc/stm32c0xx_ll_rcc.h **** {
1097:Drivers/STM32C0xx_HAL_Driver/Inc/stm32c0xx_ll_rcc.h ****   MODIFY_REG(RCC->CR, RCC_CR_HSIKERDIV, HSIKERDiv);
1098:Drivers/STM32C0xx_HAL_Driver/Inc/stm32c0xx_ll_rcc.h **** }
1099:Drivers/STM32C0xx_HAL_Driver/Inc/stm32c0xx_ll_rcc.h **** /**
1100:Drivers/STM32C0xx_HAL_Driver/Inc/stm32c0xx_ll_rcc.h ****   * @brief  Get AHB prescaler
1101:Drivers/STM32C0xx_HAL_Driver/Inc/stm32c0xx_ll_rcc.h ****   * @rmtoll CFGR         HPRE          LL_RCC_GetAHBPrescaler
1102:Drivers/STM32C0xx_HAL_Driver/Inc/stm32c0xx_ll_rcc.h ****   * @retval Returned value can be one of the following values:
1103:Drivers/STM32C0xx_HAL_Driver/Inc/stm32c0xx_ll_rcc.h ****   *         @arg @ref LL_RCC_HCLK_DIV_1
1104:Drivers/STM32C0xx_HAL_Driver/Inc/stm32c0xx_ll_rcc.h ****   *         @arg @ref LL_RCC_HCLK_DIV_2
1105:Drivers/STM32C0xx_HAL_Driver/Inc/stm32c0xx_ll_rcc.h ****   *         @arg @ref LL_RCC_HCLK_DIV_4 
ARM GAS  /var/folders/nl/kwfz41d55ync1k9vlz8wmkc80000gn/T//ccPpmmCA.s 			page 54


1106:Drivers/STM32C0xx_HAL_Driver/Inc/stm32c0xx_ll_rcc.h ****   *         @arg @ref LL_RCC_HCLK_DIV_8 
1107:Drivers/STM32C0xx_HAL_Driver/Inc/stm32c0xx_ll_rcc.h ****   *         @arg @ref LL_RCC_HCLK_DIV_16
1108:Drivers/STM32C0xx_HAL_Driver/Inc/stm32c0xx_ll_rcc.h ****   *         @arg @ref LL_RCC_HCLK_DIV_64
1109:Drivers/STM32C0xx_HAL_Driver/Inc/stm32c0xx_ll_rcc.h ****   *         @arg @ref LL_RCC_HCLK_DIV_128
1110:Drivers/STM32C0xx_HAL_Driver/Inc/stm32c0xx_ll_rcc.h ****   *         @arg @ref LL_RCC_HCLK_DIV_256
1111:Drivers/STM32C0xx_HAL_Driver/Inc/stm32c0xx_ll_rcc.h ****   *         @arg @ref LL_RCC_HCLK_DIV_512
1112:Drivers/STM32C0xx_HAL_Driver/Inc/stm32c0xx_ll_rcc.h ****   */
1113:Drivers/STM32C0xx_HAL_Driver/Inc/stm32c0xx_ll_rcc.h **** __STATIC_INLINE uint32_t LL_RCC_GetAHBPrescaler(void)
1114:Drivers/STM32C0xx_HAL_Driver/Inc/stm32c0xx_ll_rcc.h **** {
1115:Drivers/STM32C0xx_HAL_Driver/Inc/stm32c0xx_ll_rcc.h ****   return (uint32_t)(READ_BIT(RCC->CFGR, RCC_CFGR_HPRE));
1116:Drivers/STM32C0xx_HAL_Driver/Inc/stm32c0xx_ll_rcc.h **** }
1117:Drivers/STM32C0xx_HAL_Driver/Inc/stm32c0xx_ll_rcc.h **** 
1118:Drivers/STM32C0xx_HAL_Driver/Inc/stm32c0xx_ll_rcc.h **** /**
1119:Drivers/STM32C0xx_HAL_Driver/Inc/stm32c0xx_ll_rcc.h ****   * @brief  Get APB1 prescaler
1120:Drivers/STM32C0xx_HAL_Driver/Inc/stm32c0xx_ll_rcc.h ****   * @rmtoll CFGR         PPRE         LL_RCC_GetAPB1Prescaler
1121:Drivers/STM32C0xx_HAL_Driver/Inc/stm32c0xx_ll_rcc.h ****   * @retval Returned value can be one of the following values:
1122:Drivers/STM32C0xx_HAL_Driver/Inc/stm32c0xx_ll_rcc.h ****   *         @arg @ref LL_RCC_APB1_DIV_1
1123:Drivers/STM32C0xx_HAL_Driver/Inc/stm32c0xx_ll_rcc.h ****   *         @arg @ref LL_RCC_APB1_DIV_2
1124:Drivers/STM32C0xx_HAL_Driver/Inc/stm32c0xx_ll_rcc.h ****   *         @arg @ref LL_RCC_APB1_DIV_4
1125:Drivers/STM32C0xx_HAL_Driver/Inc/stm32c0xx_ll_rcc.h ****   *         @arg @ref LL_RCC_APB1_DIV_8
1126:Drivers/STM32C0xx_HAL_Driver/Inc/stm32c0xx_ll_rcc.h ****   *         @arg @ref LL_RCC_APB1_DIV_16
1127:Drivers/STM32C0xx_HAL_Driver/Inc/stm32c0xx_ll_rcc.h ****   */
1128:Drivers/STM32C0xx_HAL_Driver/Inc/stm32c0xx_ll_rcc.h **** __STATIC_INLINE uint32_t LL_RCC_GetAPB1Prescaler(void)
1129:Drivers/STM32C0xx_HAL_Driver/Inc/stm32c0xx_ll_rcc.h **** {
1130:Drivers/STM32C0xx_HAL_Driver/Inc/stm32c0xx_ll_rcc.h ****   return (uint32_t)(READ_BIT(RCC->CFGR, RCC_CFGR_PPRE));
1131:Drivers/STM32C0xx_HAL_Driver/Inc/stm32c0xx_ll_rcc.h **** }
1132:Drivers/STM32C0xx_HAL_Driver/Inc/stm32c0xx_ll_rcc.h **** 
1133:Drivers/STM32C0xx_HAL_Driver/Inc/stm32c0xx_ll_rcc.h **** /**
1134:Drivers/STM32C0xx_HAL_Driver/Inc/stm32c0xx_ll_rcc.h ****   * @brief  Get HSI48 Division factor
1135:Drivers/STM32C0xx_HAL_Driver/Inc/stm32c0xx_ll_rcc.h ****   * @rmtoll CR         HSIDIV         LL_RCC_GetHSIDiv
1136:Drivers/STM32C0xx_HAL_Driver/Inc/stm32c0xx_ll_rcc.h ****   * @note  HSIDIV parameter is only applied to SYSCLK_Frequency when HSI is used as
1137:Drivers/STM32C0xx_HAL_Driver/Inc/stm32c0xx_ll_rcc.h ****   * system clock source.
1138:Drivers/STM32C0xx_HAL_Driver/Inc/stm32c0xx_ll_rcc.h ****   * @retval Returned value can be one of the following values:
1139:Drivers/STM32C0xx_HAL_Driver/Inc/stm32c0xx_ll_rcc.h ****   *         @arg @ref LL_RCC_HSI_DIV_1
1140:Drivers/STM32C0xx_HAL_Driver/Inc/stm32c0xx_ll_rcc.h ****   *         @arg @ref LL_RCC_HSI_DIV_2
1141:Drivers/STM32C0xx_HAL_Driver/Inc/stm32c0xx_ll_rcc.h ****   *         @arg @ref LL_RCC_HSI_DIV_4
1142:Drivers/STM32C0xx_HAL_Driver/Inc/stm32c0xx_ll_rcc.h ****   *         @arg @ref LL_RCC_HSI_DIV_8
1143:Drivers/STM32C0xx_HAL_Driver/Inc/stm32c0xx_ll_rcc.h ****   *         @arg @ref LL_RCC_HSI_DIV_16
1144:Drivers/STM32C0xx_HAL_Driver/Inc/stm32c0xx_ll_rcc.h ****   *         @arg @ref LL_RCC_HSI_DIV_32
1145:Drivers/STM32C0xx_HAL_Driver/Inc/stm32c0xx_ll_rcc.h ****   *         @arg @ref LL_RCC_HSI_DIV_64
1146:Drivers/STM32C0xx_HAL_Driver/Inc/stm32c0xx_ll_rcc.h ****   *         @arg @ref LL_RCC_HSI_DIV_128
1147:Drivers/STM32C0xx_HAL_Driver/Inc/stm32c0xx_ll_rcc.h ****   */
1148:Drivers/STM32C0xx_HAL_Driver/Inc/stm32c0xx_ll_rcc.h **** __STATIC_INLINE uint32_t LL_RCC_GetHSIDiv(void)
1149:Drivers/STM32C0xx_HAL_Driver/Inc/stm32c0xx_ll_rcc.h **** {
1150:Drivers/STM32C0xx_HAL_Driver/Inc/stm32c0xx_ll_rcc.h ****   return (uint32_t)(READ_BIT(RCC->CR, RCC_CR_HSIDIV));
1151:Drivers/STM32C0xx_HAL_Driver/Inc/stm32c0xx_ll_rcc.h **** }
1152:Drivers/STM32C0xx_HAL_Driver/Inc/stm32c0xx_ll_rcc.h **** /**
1153:Drivers/STM32C0xx_HAL_Driver/Inc/stm32c0xx_ll_rcc.h ****   * @}
1154:Drivers/STM32C0xx_HAL_Driver/Inc/stm32c0xx_ll_rcc.h ****   */
1155:Drivers/STM32C0xx_HAL_Driver/Inc/stm32c0xx_ll_rcc.h **** 
1156:Drivers/STM32C0xx_HAL_Driver/Inc/stm32c0xx_ll_rcc.h **** /** @defgroup RCC_LL_EF_MCO MCO
1157:Drivers/STM32C0xx_HAL_Driver/Inc/stm32c0xx_ll_rcc.h ****   * @{
1158:Drivers/STM32C0xx_HAL_Driver/Inc/stm32c0xx_ll_rcc.h ****   */
1159:Drivers/STM32C0xx_HAL_Driver/Inc/stm32c0xx_ll_rcc.h **** 
1160:Drivers/STM32C0xx_HAL_Driver/Inc/stm32c0xx_ll_rcc.h **** /**
1161:Drivers/STM32C0xx_HAL_Driver/Inc/stm32c0xx_ll_rcc.h ****   * @brief  Configure MCOx
1162:Drivers/STM32C0xx_HAL_Driver/Inc/stm32c0xx_ll_rcc.h ****   * @rmtoll CFGR         MCO1          LL_RCC_ConfigMCO\n
ARM GAS  /var/folders/nl/kwfz41d55ync1k9vlz8wmkc80000gn/T//ccPpmmCA.s 			page 55


1163:Drivers/STM32C0xx_HAL_Driver/Inc/stm32c0xx_ll_rcc.h ****   *         CFGR         MCO1PRE       LL_RCC_ConfigMCO\n
1164:Drivers/STM32C0xx_HAL_Driver/Inc/stm32c0xx_ll_rcc.h ****   *         CFGR         MCO2          LL_RCC_ConfigMCO\n
1165:Drivers/STM32C0xx_HAL_Driver/Inc/stm32c0xx_ll_rcc.h ****   *         CFGR         MCO2PRE       LL_RCC_ConfigMCO
1166:Drivers/STM32C0xx_HAL_Driver/Inc/stm32c0xx_ll_rcc.h ****   * @param  MCOxSource This parameter can be one of the following values:
1167:Drivers/STM32C0xx_HAL_Driver/Inc/stm32c0xx_ll_rcc.h ****   *         @arg @ref LL_RCC_MCO1SOURCE_NOCLOCK
1168:Drivers/STM32C0xx_HAL_Driver/Inc/stm32c0xx_ll_rcc.h ****   *         @arg @ref LL_RCC_MCO1SOURCE_SYSCLK
1169:Drivers/STM32C0xx_HAL_Driver/Inc/stm32c0xx_ll_rcc.h ****   *         @arg @ref LL_RCC_MCO1SOURCE_HSI
1170:Drivers/STM32C0xx_HAL_Driver/Inc/stm32c0xx_ll_rcc.h ****   *         @arg @ref LL_RCC_MCO1SOURCE_HSE
1171:Drivers/STM32C0xx_HAL_Driver/Inc/stm32c0xx_ll_rcc.h ****   *         @arg @ref LL_RCC_MCO1SOURCE_LSI
1172:Drivers/STM32C0xx_HAL_Driver/Inc/stm32c0xx_ll_rcc.h ****   *         @arg @ref LL_RCC_MCO1SOURCE_LSE
1173:Drivers/STM32C0xx_HAL_Driver/Inc/stm32c0xx_ll_rcc.h ****   * @param  MCOxPrescaler This parameter can be one of the following values:
1174:Drivers/STM32C0xx_HAL_Driver/Inc/stm32c0xx_ll_rcc.h ****   *         @arg @ref LL_RCC_MCO1_DIV_1
1175:Drivers/STM32C0xx_HAL_Driver/Inc/stm32c0xx_ll_rcc.h ****   *         @arg @ref LL_RCC_MCO1_DIV_2
1176:Drivers/STM32C0xx_HAL_Driver/Inc/stm32c0xx_ll_rcc.h ****   *         @arg @ref LL_RCC_MCO1_DIV_4
1177:Drivers/STM32C0xx_HAL_Driver/Inc/stm32c0xx_ll_rcc.h ****   *         @arg @ref LL_RCC_MCO1_DIV_8
1178:Drivers/STM32C0xx_HAL_Driver/Inc/stm32c0xx_ll_rcc.h ****   *         @arg @ref LL_RCC_MCO1_DIV_16
1179:Drivers/STM32C0xx_HAL_Driver/Inc/stm32c0xx_ll_rcc.h ****   *         @arg @ref LL_RCC_MCO1_DIV_32
1180:Drivers/STM32C0xx_HAL_Driver/Inc/stm32c0xx_ll_rcc.h ****   *         @arg @ref LL_RCC_MCO1_DIV_64
1181:Drivers/STM32C0xx_HAL_Driver/Inc/stm32c0xx_ll_rcc.h ****   *         @arg @ref LL_RCC_MCO1_DIV_128
1182:Drivers/STM32C0xx_HAL_Driver/Inc/stm32c0xx_ll_rcc.h ****   * @retval None
1183:Drivers/STM32C0xx_HAL_Driver/Inc/stm32c0xx_ll_rcc.h ****   */
1184:Drivers/STM32C0xx_HAL_Driver/Inc/stm32c0xx_ll_rcc.h **** __STATIC_INLINE void LL_RCC_ConfigMCO(uint32_t MCOxSource, uint32_t MCOxPrescaler)
 973              		.loc 2 1184 22 view .LVU297
 974              	.LBB13:
1185:Drivers/STM32C0xx_HAL_Driver/Inc/stm32c0xx_ll_rcc.h **** {
1186:Drivers/STM32C0xx_HAL_Driver/Inc/stm32c0xx_ll_rcc.h ****   MODIFY_REG(RCC->CFGR, RCC_CFGR_MCOSEL | RCC_CFGR_MCOPRE, MCOxSource | MCOxPrescaler);
 975              		.loc 2 1186 3 view .LVU298
 976 0054 A368     		ldr	r3, [r4, #8]
 977 0056 1B02     		lsls	r3, r3, #8
 978 0058 1B0A     		lsrs	r3, r3, #8
 979 005a 4246     		mov	r2, r8
 980 005c 2A43     		orrs	r2, r5
 981 005e 1500     		movs	r5, r2
 982              	.LVL77:
 983              		.loc 2 1186 3 is_stmt 0 view .LVU299
 984 0060 1D43     		orrs	r5, r3
 985 0062 A560     		str	r5, [r4, #8]
 986              	.LVL78:
 987              	.L83:
 988              		.loc 2 1186 3 view .LVU300
 989              	.LBE13:
 990              	.LBE12:
 821:Drivers/STM32C0xx_HAL_Driver/Src/stm32c0xx_hal_rcc.c ****   }
 822:Drivers/STM32C0xx_HAL_Driver/Src/stm32c0xx_hal_rcc.c ****   else if (mcoindex == RCC_MCO2_INDEX)
 823:Drivers/STM32C0xx_HAL_Driver/Src/stm32c0xx_hal_rcc.c ****   {
 824:Drivers/STM32C0xx_HAL_Driver/Src/stm32c0xx_hal_rcc.c ****     assert_param(IS_RCC_MCO2DIV(RCC_MCODiv));
 825:Drivers/STM32C0xx_HAL_Driver/Src/stm32c0xx_hal_rcc.c ****     assert_param(IS_RCC_MCO2SOURCE(RCC_MCOSource));
 826:Drivers/STM32C0xx_HAL_Driver/Src/stm32c0xx_hal_rcc.c ****     /* Mask MCOSEL[] and MCOPRE[] bits then set MCO clock source and prescaler */
 827:Drivers/STM32C0xx_HAL_Driver/Src/stm32c0xx_hal_rcc.c ****     LL_RCC_ConfigMCO2(RCC_MCOSource, RCC_MCODiv);
 828:Drivers/STM32C0xx_HAL_Driver/Src/stm32c0xx_hal_rcc.c ****   }
 829:Drivers/STM32C0xx_HAL_Driver/Src/stm32c0xx_hal_rcc.c ****   else
 830:Drivers/STM32C0xx_HAL_Driver/Src/stm32c0xx_hal_rcc.c ****   {}
 831:Drivers/STM32C0xx_HAL_Driver/Src/stm32c0xx_hal_rcc.c **** }
 991              		.loc 1 831 1 view .LVU301
 992 0064 06B0     		add	sp, sp, #24
 993              		@ sp needed
 994              	.LVL79:
ARM GAS  /var/folders/nl/kwfz41d55ync1k9vlz8wmkc80000gn/T//ccPpmmCA.s 			page 56


 995              	.LVL80:
 996              		.loc 1 831 1 view .LVU302
 997 0066 80BC     		pop	{r7}
 998 0068 B846     		mov	r8, r7
 999 006a F0BD     		pop	{r4, r5, r6, r7, pc}
 1000              	.LVL81:
 1001              	.L84:
 822:Drivers/STM32C0xx_HAL_Driver/Src/stm32c0xx_hal_rcc.c ****   {
 1002              		.loc 1 822 8 is_stmt 1 view .LVU303
 824:Drivers/STM32C0xx_HAL_Driver/Src/stm32c0xx_hal_rcc.c ****     assert_param(IS_RCC_MCO2SOURCE(RCC_MCOSource));
 1003              		.loc 1 824 5 view .LVU304
 825:Drivers/STM32C0xx_HAL_Driver/Src/stm32c0xx_hal_rcc.c ****     /* Mask MCOSEL[] and MCOPRE[] bits then set MCO clock source and prescaler */
 1004              		.loc 1 825 5 view .LVU305
 827:Drivers/STM32C0xx_HAL_Driver/Src/stm32c0xx_hal_rcc.c ****   }
 1005              		.loc 1 827 5 view .LVU306
 1006              	.LBB14:
 1007              	.LBI14:
1187:Drivers/STM32C0xx_HAL_Driver/Inc/stm32c0xx_ll_rcc.h **** }
1188:Drivers/STM32C0xx_HAL_Driver/Inc/stm32c0xx_ll_rcc.h **** 
1189:Drivers/STM32C0xx_HAL_Driver/Inc/stm32c0xx_ll_rcc.h **** /**
1190:Drivers/STM32C0xx_HAL_Driver/Inc/stm32c0xx_ll_rcc.h ****   * @}
1191:Drivers/STM32C0xx_HAL_Driver/Inc/stm32c0xx_ll_rcc.h ****   */
1192:Drivers/STM32C0xx_HAL_Driver/Inc/stm32c0xx_ll_rcc.h **** 
1193:Drivers/STM32C0xx_HAL_Driver/Inc/stm32c0xx_ll_rcc.h **** /** @defgroup RCC_LL_EF_MCO2 MCO2
1194:Drivers/STM32C0xx_HAL_Driver/Inc/stm32c0xx_ll_rcc.h ****   * @{
1195:Drivers/STM32C0xx_HAL_Driver/Inc/stm32c0xx_ll_rcc.h ****   */
1196:Drivers/STM32C0xx_HAL_Driver/Inc/stm32c0xx_ll_rcc.h **** 
1197:Drivers/STM32C0xx_HAL_Driver/Inc/stm32c0xx_ll_rcc.h **** /**
1198:Drivers/STM32C0xx_HAL_Driver/Inc/stm32c0xx_ll_rcc.h ****   * @brief  Configure MCO2
1199:Drivers/STM32C0xx_HAL_Driver/Inc/stm32c0xx_ll_rcc.h ****   * @rmtoll CFGR         MCO2SEL        LL_RCC_ConfigMCO2\n
1200:Drivers/STM32C0xx_HAL_Driver/Inc/stm32c0xx_ll_rcc.h ****   *         CFGR         MCO2PRE        LL_RCC_ConfigMCO2
1201:Drivers/STM32C0xx_HAL_Driver/Inc/stm32c0xx_ll_rcc.h ****   * @note  feature not available in all devices.
1202:Drivers/STM32C0xx_HAL_Driver/Inc/stm32c0xx_ll_rcc.h ****   * @param  MCOxSource This parameter can be one of the following values:
1203:Drivers/STM32C0xx_HAL_Driver/Inc/stm32c0xx_ll_rcc.h ****   *         @arg @ref LL_RCC_MCO2SOURCE_NOCLOCK
1204:Drivers/STM32C0xx_HAL_Driver/Inc/stm32c0xx_ll_rcc.h ****   *         @arg @ref LL_RCC_MCO2SOURCE_SYSCLK
1205:Drivers/STM32C0xx_HAL_Driver/Inc/stm32c0xx_ll_rcc.h ****   *         @arg @ref LL_RCC_MCO2SOURCE_HSI
1206:Drivers/STM32C0xx_HAL_Driver/Inc/stm32c0xx_ll_rcc.h ****   *         @arg @ref LL_RCC_MCO2SOURCE_HSE
1207:Drivers/STM32C0xx_HAL_Driver/Inc/stm32c0xx_ll_rcc.h ****   *         @arg @ref LL_RCC_MCO2SOURCE_LSI
1208:Drivers/STM32C0xx_HAL_Driver/Inc/stm32c0xx_ll_rcc.h ****   *         @arg @ref LL_RCC_MCO2SOURCE_LSE
1209:Drivers/STM32C0xx_HAL_Driver/Inc/stm32c0xx_ll_rcc.h ****   * @param  MCOxPrescaler This parameter can be one of the following values:
1210:Drivers/STM32C0xx_HAL_Driver/Inc/stm32c0xx_ll_rcc.h ****   *         @arg @ref LL_RCC_MCO2_DIV_1
1211:Drivers/STM32C0xx_HAL_Driver/Inc/stm32c0xx_ll_rcc.h ****   *         @arg @ref LL_RCC_MCO2_DIV_2
1212:Drivers/STM32C0xx_HAL_Driver/Inc/stm32c0xx_ll_rcc.h ****   *         @arg @ref LL_RCC_MCO2_DIV_4
1213:Drivers/STM32C0xx_HAL_Driver/Inc/stm32c0xx_ll_rcc.h ****   *         @arg @ref LL_RCC_MCO2_DIV_8
1214:Drivers/STM32C0xx_HAL_Driver/Inc/stm32c0xx_ll_rcc.h ****   *         @arg @ref LL_RCC_MCO2_DIV_16
1215:Drivers/STM32C0xx_HAL_Driver/Inc/stm32c0xx_ll_rcc.h ****   *         @arg @ref LL_RCC_MCO2_DIV_32
1216:Drivers/STM32C0xx_HAL_Driver/Inc/stm32c0xx_ll_rcc.h ****   *         @arg @ref LL_RCC_MCO2_DIV_64
1217:Drivers/STM32C0xx_HAL_Driver/Inc/stm32c0xx_ll_rcc.h ****   *         @arg @ref LL_RCC_MCO2_DIV_128
1218:Drivers/STM32C0xx_HAL_Driver/Inc/stm32c0xx_ll_rcc.h ****   * @retval None
1219:Drivers/STM32C0xx_HAL_Driver/Inc/stm32c0xx_ll_rcc.h ****   */
1220:Drivers/STM32C0xx_HAL_Driver/Inc/stm32c0xx_ll_rcc.h **** __STATIC_INLINE void LL_RCC_ConfigMCO2(uint32_t MCOxSource, uint32_t MCOxPrescaler)
 1008              		.loc 2 1220 22 view .LVU307
 1009              	.LBB15:
1221:Drivers/STM32C0xx_HAL_Driver/Inc/stm32c0xx_ll_rcc.h **** {
1222:Drivers/STM32C0xx_HAL_Driver/Inc/stm32c0xx_ll_rcc.h ****   MODIFY_REG(RCC->CFGR, RCC_CFGR_MCO2SEL | RCC_CFGR_MCO2PRE, MCOxSource | MCOxPrescaler);
 1010              		.loc 2 1222 3 view .LVU308
 1011 006c 0448     		ldr	r0, .L86
ARM GAS  /var/folders/nl/kwfz41d55ync1k9vlz8wmkc80000gn/T//ccPpmmCA.s 			page 57


 1012 006e 8368     		ldr	r3, [r0, #8]
 1013 0070 044A     		ldr	r2, .L86+4
 1014 0072 1340     		ands	r3, r2
 1015 0074 4446     		mov	r4, r8
 1016 0076 2C43     		orrs	r4, r5
 1017 0078 1C43     		orrs	r4, r3
 1018 007a 8460     		str	r4, [r0, #8]
 1019              	.LVL82:
 1020              		.loc 2 1222 3 is_stmt 0 view .LVU309
 1021              	.LBE15:
 1022              	.LBE14:
 830:Drivers/STM32C0xx_HAL_Driver/Src/stm32c0xx_hal_rcc.c **** }
 1023              		.loc 1 830 4 is_stmt 1 view .LVU310
 1024              		.loc 1 831 1 is_stmt 0 view .LVU311
 1025 007c F2E7     		b	.L83
 1026              	.L87:
 1027 007e C046     		.align	2
 1028              	.L86:
 1029 0080 00100240 		.word	1073876992
 1030 0084 FFFF00FF 		.word	-16711681
 1031              		.cfi_endproc
 1032              	.LFE217:
 1034              		.section	.text.HAL_RCC_GetSysClockFreq,"ax",%progbits
 1035              		.align	1
 1036              		.global	HAL_RCC_GetSysClockFreq
 1037              		.syntax unified
 1038              		.code	16
 1039              		.thumb_func
 1041              	HAL_RCC_GetSysClockFreq:
 1042              	.LFB218:
 832:Drivers/STM32C0xx_HAL_Driver/Src/stm32c0xx_hal_rcc.c **** 
 833:Drivers/STM32C0xx_HAL_Driver/Src/stm32c0xx_hal_rcc.c **** /**
 834:Drivers/STM32C0xx_HAL_Driver/Src/stm32c0xx_hal_rcc.c ****   * @brief  Return the SYSCLK frequency.
 835:Drivers/STM32C0xx_HAL_Driver/Src/stm32c0xx_hal_rcc.c ****   *
 836:Drivers/STM32C0xx_HAL_Driver/Src/stm32c0xx_hal_rcc.c ****   * @note   The system frequency computed by this function is not the real
 837:Drivers/STM32C0xx_HAL_Driver/Src/stm32c0xx_hal_rcc.c ****   *         frequency in the chip. It is calculated based on the predefined
 838:Drivers/STM32C0xx_HAL_Driver/Src/stm32c0xx_hal_rcc.c ****   *         constant and the selected clock source:
 839:Drivers/STM32C0xx_HAL_Driver/Src/stm32c0xx_hal_rcc.c ****   * @note     If SYSCLK source is HSI, function returns values based on HSI_VALUE/HSIDIV(*)
 840:Drivers/STM32C0xx_HAL_Driver/Src/stm32c0xx_hal_rcc.c ****   * @note     If SYSCLK source is HSE, function returns values based on HSE_VALUE(**)
 841:Drivers/STM32C0xx_HAL_Driver/Src/stm32c0xx_hal_rcc.c ****   * @note     If SYSCLK source is LSI, function returns values based on LSI_VALUE(***)
 842:Drivers/STM32C0xx_HAL_Driver/Src/stm32c0xx_hal_rcc.c ****   * @note     If SYSCLK source is LSE, function returns values based on LSE_VALUE(****)
 843:Drivers/STM32C0xx_HAL_Driver/Src/stm32c0xx_hal_rcc.c ****   * @note     (*) HSI_VALUE is a constant defined in stm32c0xx_hal_conf.h file (default value
 844:Drivers/STM32C0xx_HAL_Driver/Src/stm32c0xx_hal_rcc.c ****   *               48 MHz) but the real value may vary depending on the variations
 845:Drivers/STM32C0xx_HAL_Driver/Src/stm32c0xx_hal_rcc.c ****   *               in voltage and temperature.
 846:Drivers/STM32C0xx_HAL_Driver/Src/stm32c0xx_hal_rcc.c ****   * @note     (**) HSE_VALUE is a constant defined in stm32c0xx_hal_conf.h file (default value
 847:Drivers/STM32C0xx_HAL_Driver/Src/stm32c0xx_hal_rcc.c ****   *                48 MHz), user has to ensure that HSE_VALUE is same as the real
 848:Drivers/STM32C0xx_HAL_Driver/Src/stm32c0xx_hal_rcc.c ****   *                frequency of the crystal used. Otherwise, this function may
 849:Drivers/STM32C0xx_HAL_Driver/Src/stm32c0xx_hal_rcc.c ****   *                have wrong result.
 850:Drivers/STM32C0xx_HAL_Driver/Src/stm32c0xx_hal_rcc.c ****   * @note     (***) LSE_VALUE is a constant defined in stm32c0xx_hal_conf.h file (default value
 851:Drivers/STM32C0xx_HAL_Driver/Src/stm32c0xx_hal_rcc.c ****   *               32768 Hz).
 852:Drivers/STM32C0xx_HAL_Driver/Src/stm32c0xx_hal_rcc.c ****   * @note     (****) LSI_VALUE is a constant defined in stm32c0xx_hal_conf.h file (default value
 853:Drivers/STM32C0xx_HAL_Driver/Src/stm32c0xx_hal_rcc.c ****   *               32000 Hz).
 854:Drivers/STM32C0xx_HAL_Driver/Src/stm32c0xx_hal_rcc.c ****   *
 855:Drivers/STM32C0xx_HAL_Driver/Src/stm32c0xx_hal_rcc.c ****   * @note   The result of this function could be not correct when using fractional
 856:Drivers/STM32C0xx_HAL_Driver/Src/stm32c0xx_hal_rcc.c ****   *         value for HSE crystal.
 857:Drivers/STM32C0xx_HAL_Driver/Src/stm32c0xx_hal_rcc.c ****   *
 858:Drivers/STM32C0xx_HAL_Driver/Src/stm32c0xx_hal_rcc.c ****   * @note   This function can be used by the user application to compute the
ARM GAS  /var/folders/nl/kwfz41d55ync1k9vlz8wmkc80000gn/T//ccPpmmCA.s 			page 58


 859:Drivers/STM32C0xx_HAL_Driver/Src/stm32c0xx_hal_rcc.c ****   *         baudrate for the communication peripherals or configure other parameters.
 860:Drivers/STM32C0xx_HAL_Driver/Src/stm32c0xx_hal_rcc.c ****   *
 861:Drivers/STM32C0xx_HAL_Driver/Src/stm32c0xx_hal_rcc.c ****   * @note   Each time SYSCLK changes, this function must be called to update the
 862:Drivers/STM32C0xx_HAL_Driver/Src/stm32c0xx_hal_rcc.c ****   *         right SYSCLK value. Otherwise, any configuration based on this function will be incorre
 863:Drivers/STM32C0xx_HAL_Driver/Src/stm32c0xx_hal_rcc.c ****   *
 864:Drivers/STM32C0xx_HAL_Driver/Src/stm32c0xx_hal_rcc.c ****   *
 865:Drivers/STM32C0xx_HAL_Driver/Src/stm32c0xx_hal_rcc.c ****   * @retval SYSCLK frequency
 866:Drivers/STM32C0xx_HAL_Driver/Src/stm32c0xx_hal_rcc.c ****   */
 867:Drivers/STM32C0xx_HAL_Driver/Src/stm32c0xx_hal_rcc.c **** uint32_t HAL_RCC_GetSysClockFreq(void)
 868:Drivers/STM32C0xx_HAL_Driver/Src/stm32c0xx_hal_rcc.c **** {
 1043              		.loc 1 868 1 is_stmt 1 view -0
 1044              		.cfi_startproc
 1045              		@ args = 0, pretend = 0, frame = 0
 1046              		@ frame_needed = 0, uses_anonymous_args = 0
 1047              		@ link register save eliminated.
 869:Drivers/STM32C0xx_HAL_Driver/Src/stm32c0xx_hal_rcc.c ****   uint32_t hsidiv;
 1048              		.loc 1 869 3 view .LVU313
 870:Drivers/STM32C0xx_HAL_Driver/Src/stm32c0xx_hal_rcc.c ****   uint32_t sysclockfreq;
 1049              		.loc 1 870 3 view .LVU314
 871:Drivers/STM32C0xx_HAL_Driver/Src/stm32c0xx_hal_rcc.c **** 
 872:Drivers/STM32C0xx_HAL_Driver/Src/stm32c0xx_hal_rcc.c ****   if (__HAL_RCC_GET_SYSCLK_SOURCE() == RCC_CFGR_SWS_HSI)
 1050              		.loc 1 872 3 view .LVU315
 1051              		.loc 1 872 7 is_stmt 0 view .LVU316
 1052 0000 144B     		ldr	r3, .L95
 1053 0002 9B68     		ldr	r3, [r3, #8]
 1054 0004 3822     		movs	r2, #56
 1055              		.loc 1 872 6 view .LVU317
 1056 0006 1A42     		tst	r2, r3
 1057 0008 07D1     		bne	.L89
 873:Drivers/STM32C0xx_HAL_Driver/Src/stm32c0xx_hal_rcc.c ****   {
 874:Drivers/STM32C0xx_HAL_Driver/Src/stm32c0xx_hal_rcc.c ****     /* HSISYS can be derived for HSI48 */
 875:Drivers/STM32C0xx_HAL_Driver/Src/stm32c0xx_hal_rcc.c ****     hsidiv = (1UL << ((READ_BIT(RCC->CR, RCC_CR_HSIDIV)) >> RCC_CR_HSIDIV_Pos));
 1058              		.loc 1 875 5 is_stmt 1 view .LVU318
 1059              		.loc 1 875 24 is_stmt 0 view .LVU319
 1060 000a 124B     		ldr	r3, .L95
 1061 000c 1A68     		ldr	r2, [r3]
 1062              		.loc 1 875 58 view .LVU320
 1063 000e D20A     		lsrs	r2, r2, #11
 1064 0010 0723     		movs	r3, #7
 1065 0012 1340     		ands	r3, r2
 1066              	.LVL83:
 876:Drivers/STM32C0xx_HAL_Driver/Src/stm32c0xx_hal_rcc.c **** 
 877:Drivers/STM32C0xx_HAL_Driver/Src/stm32c0xx_hal_rcc.c ****     /* HSI used as system clock source */
 878:Drivers/STM32C0xx_HAL_Driver/Src/stm32c0xx_hal_rcc.c ****     sysclockfreq = (HSI_VALUE / hsidiv);
 1067              		.loc 1 878 5 is_stmt 1 view .LVU321
 1068              		.loc 1 878 18 is_stmt 0 view .LVU322
 1069 0014 1048     		ldr	r0, .L95+4
 1070 0016 D840     		lsrs	r0, r0, r3
 1071              	.LVL84:
 1072              	.L88:
 879:Drivers/STM32C0xx_HAL_Driver/Src/stm32c0xx_hal_rcc.c ****   }
 880:Drivers/STM32C0xx_HAL_Driver/Src/stm32c0xx_hal_rcc.c ****   else if (__HAL_RCC_GET_SYSCLK_SOURCE() == RCC_CFGR_SWS_HSE)
 881:Drivers/STM32C0xx_HAL_Driver/Src/stm32c0xx_hal_rcc.c ****   {
 882:Drivers/STM32C0xx_HAL_Driver/Src/stm32c0xx_hal_rcc.c ****     /* HSE used as system clock source */
 883:Drivers/STM32C0xx_HAL_Driver/Src/stm32c0xx_hal_rcc.c ****     sysclockfreq = HSE_VALUE;
 884:Drivers/STM32C0xx_HAL_Driver/Src/stm32c0xx_hal_rcc.c ****   }
 885:Drivers/STM32C0xx_HAL_Driver/Src/stm32c0xx_hal_rcc.c ****   else if (__HAL_RCC_GET_SYSCLK_SOURCE() == RCC_CFGR_SWS_LSE)
ARM GAS  /var/folders/nl/kwfz41d55ync1k9vlz8wmkc80000gn/T//ccPpmmCA.s 			page 59


 886:Drivers/STM32C0xx_HAL_Driver/Src/stm32c0xx_hal_rcc.c ****   {
 887:Drivers/STM32C0xx_HAL_Driver/Src/stm32c0xx_hal_rcc.c ****     /* LSE used as system clock source */
 888:Drivers/STM32C0xx_HAL_Driver/Src/stm32c0xx_hal_rcc.c ****     sysclockfreq = LSE_VALUE;
 889:Drivers/STM32C0xx_HAL_Driver/Src/stm32c0xx_hal_rcc.c ****   }
 890:Drivers/STM32C0xx_HAL_Driver/Src/stm32c0xx_hal_rcc.c ****   else if (__HAL_RCC_GET_SYSCLK_SOURCE() == RCC_CFGR_SWS_LSI)
 891:Drivers/STM32C0xx_HAL_Driver/Src/stm32c0xx_hal_rcc.c ****   {
 892:Drivers/STM32C0xx_HAL_Driver/Src/stm32c0xx_hal_rcc.c ****     /* LSI used as system clock source */
 893:Drivers/STM32C0xx_HAL_Driver/Src/stm32c0xx_hal_rcc.c ****     sysclockfreq = LSI_VALUE;
 894:Drivers/STM32C0xx_HAL_Driver/Src/stm32c0xx_hal_rcc.c ****   }
 895:Drivers/STM32C0xx_HAL_Driver/Src/stm32c0xx_hal_rcc.c ****   else
 896:Drivers/STM32C0xx_HAL_Driver/Src/stm32c0xx_hal_rcc.c ****   {
 897:Drivers/STM32C0xx_HAL_Driver/Src/stm32c0xx_hal_rcc.c ****     sysclockfreq = 0U;
 898:Drivers/STM32C0xx_HAL_Driver/Src/stm32c0xx_hal_rcc.c ****   }
 899:Drivers/STM32C0xx_HAL_Driver/Src/stm32c0xx_hal_rcc.c **** 
 900:Drivers/STM32C0xx_HAL_Driver/Src/stm32c0xx_hal_rcc.c ****   return sysclockfreq;
 901:Drivers/STM32C0xx_HAL_Driver/Src/stm32c0xx_hal_rcc.c **** }
 1073              		.loc 1 901 1 view .LVU323
 1074              		@ sp needed
 1075 0018 7047     		bx	lr
 1076              	.L89:
 880:Drivers/STM32C0xx_HAL_Driver/Src/stm32c0xx_hal_rcc.c ****   {
 1077              		.loc 1 880 8 is_stmt 1 view .LVU324
 880:Drivers/STM32C0xx_HAL_Driver/Src/stm32c0xx_hal_rcc.c ****   {
 1078              		.loc 1 880 12 is_stmt 0 view .LVU325
 1079 001a 0E4B     		ldr	r3, .L95
 1080 001c 9A68     		ldr	r2, [r3, #8]
 1081 001e 3823     		movs	r3, #56
 1082 0020 1340     		ands	r3, r2
 880:Drivers/STM32C0xx_HAL_Driver/Src/stm32c0xx_hal_rcc.c ****   {
 1083              		.loc 1 880 11 view .LVU326
 1084 0022 082B     		cmp	r3, #8
 1085 0024 10D0     		beq	.L91
 885:Drivers/STM32C0xx_HAL_Driver/Src/stm32c0xx_hal_rcc.c ****   {
 1086              		.loc 1 885 8 is_stmt 1 view .LVU327
 885:Drivers/STM32C0xx_HAL_Driver/Src/stm32c0xx_hal_rcc.c ****   {
 1087              		.loc 1 885 12 is_stmt 0 view .LVU328
 1088 0026 0B4B     		ldr	r3, .L95
 1089 0028 9A68     		ldr	r2, [r3, #8]
 1090 002a 3823     		movs	r3, #56
 1091 002c 1340     		ands	r3, r2
 885:Drivers/STM32C0xx_HAL_Driver/Src/stm32c0xx_hal_rcc.c ****   {
 1092              		.loc 1 885 11 view .LVU329
 1093 002e 202B     		cmp	r3, #32
 1094 0030 0CD0     		beq	.L92
 890:Drivers/STM32C0xx_HAL_Driver/Src/stm32c0xx_hal_rcc.c ****   {
 1095              		.loc 1 890 8 is_stmt 1 view .LVU330
 890:Drivers/STM32C0xx_HAL_Driver/Src/stm32c0xx_hal_rcc.c ****   {
 1096              		.loc 1 890 12 is_stmt 0 view .LVU331
 1097 0032 084B     		ldr	r3, .L95
 1098 0034 9A68     		ldr	r2, [r3, #8]
 1099 0036 3823     		movs	r3, #56
 1100 0038 1340     		ands	r3, r2
 890:Drivers/STM32C0xx_HAL_Driver/Src/stm32c0xx_hal_rcc.c ****   {
 1101              		.loc 1 890 11 view .LVU332
 1102 003a 182B     		cmp	r3, #24
 1103 003c 01D0     		beq	.L94
 897:Drivers/STM32C0xx_HAL_Driver/Src/stm32c0xx_hal_rcc.c ****   }
ARM GAS  /var/folders/nl/kwfz41d55ync1k9vlz8wmkc80000gn/T//ccPpmmCA.s 			page 60


 1104              		.loc 1 897 18 view .LVU333
 1105 003e 0020     		movs	r0, #0
 1106              	.LVL85:
 900:Drivers/STM32C0xx_HAL_Driver/Src/stm32c0xx_hal_rcc.c **** }
 1107              		.loc 1 900 3 is_stmt 1 view .LVU334
 900:Drivers/STM32C0xx_HAL_Driver/Src/stm32c0xx_hal_rcc.c **** }
 1108              		.loc 1 900 10 is_stmt 0 view .LVU335
 1109 0040 EAE7     		b	.L88
 1110              	.LVL86:
 1111              	.L94:
 893:Drivers/STM32C0xx_HAL_Driver/Src/stm32c0xx_hal_rcc.c ****   }
 1112              		.loc 1 893 18 view .LVU336
 1113 0042 FA20     		movs	r0, #250
 1114 0044 C001     		lsls	r0, r0, #7
 1115 0046 E7E7     		b	.L88
 1116              	.L91:
 883:Drivers/STM32C0xx_HAL_Driver/Src/stm32c0xx_hal_rcc.c ****   }
 1117              		.loc 1 883 18 view .LVU337
 1118 0048 0348     		ldr	r0, .L95+4
 1119 004a E5E7     		b	.L88
 1120              	.L92:
 888:Drivers/STM32C0xx_HAL_Driver/Src/stm32c0xx_hal_rcc.c ****   }
 1121              		.loc 1 888 18 view .LVU338
 1122 004c 8020     		movs	r0, #128
 1123 004e 0002     		lsls	r0, r0, #8
 1124 0050 E2E7     		b	.L88
 1125              	.L96:
 1126 0052 C046     		.align	2
 1127              	.L95:
 1128 0054 00100240 		.word	1073876992
 1129 0058 006CDC02 		.word	48000000
 1130              		.cfi_endproc
 1131              	.LFE218:
 1133              		.section	.text.HAL_RCC_ClockConfig,"ax",%progbits
 1134              		.align	1
 1135              		.global	HAL_RCC_ClockConfig
 1136              		.syntax unified
 1137              		.code	16
 1138              		.thumb_func
 1140              	HAL_RCC_ClockConfig:
 1141              	.LVL87:
 1142              	.LFB216:
 590:Drivers/STM32C0xx_HAL_Driver/Src/stm32c0xx_hal_rcc.c ****   uint32_t tickstart;
 1143              		.loc 1 590 1 is_stmt 1 view -0
 1144              		.cfi_startproc
 1145              		@ args = 0, pretend = 0, frame = 0
 1146              		@ frame_needed = 0, uses_anonymous_args = 0
 590:Drivers/STM32C0xx_HAL_Driver/Src/stm32c0xx_hal_rcc.c ****   uint32_t tickstart;
 1147              		.loc 1 590 1 is_stmt 0 view .LVU340
 1148 0000 70B5     		push	{r4, r5, r6, lr}
 1149              	.LCFI5:
 1150              		.cfi_def_cfa_offset 16
 1151              		.cfi_offset 4, -16
 1152              		.cfi_offset 5, -12
 1153              		.cfi_offset 6, -8
 1154              		.cfi_offset 14, -4
 1155 0002 0400     		movs	r4, r0
ARM GAS  /var/folders/nl/kwfz41d55ync1k9vlz8wmkc80000gn/T//ccPpmmCA.s 			page 61


 1156 0004 0D00     		movs	r5, r1
 591:Drivers/STM32C0xx_HAL_Driver/Src/stm32c0xx_hal_rcc.c **** 
 1157              		.loc 1 591 3 is_stmt 1 view .LVU341
 594:Drivers/STM32C0xx_HAL_Driver/Src/stm32c0xx_hal_rcc.c ****   {
 1158              		.loc 1 594 3 view .LVU342
 594:Drivers/STM32C0xx_HAL_Driver/Src/stm32c0xx_hal_rcc.c ****   {
 1159              		.loc 1 594 6 is_stmt 0 view .LVU343
 1160 0006 0028     		cmp	r0, #0
 1161 0008 00D1     		bne	.LCB1102
 1162 000a AAE0     		b	.L115	@long jump
 1163              	.LCB1102:
 600:Drivers/STM32C0xx_HAL_Driver/Src/stm32c0xx_hal_rcc.c ****   assert_param(IS_FLASH_LATENCY(FLatency));
 1164              		.loc 1 600 3 is_stmt 1 view .LVU344
 601:Drivers/STM32C0xx_HAL_Driver/Src/stm32c0xx_hal_rcc.c **** 
 1165              		.loc 1 601 3 view .LVU345
 608:Drivers/STM32C0xx_HAL_Driver/Src/stm32c0xx_hal_rcc.c ****   {
 1166              		.loc 1 608 3 view .LVU346
 608:Drivers/STM32C0xx_HAL_Driver/Src/stm32c0xx_hal_rcc.c ****   {
 1167              		.loc 1 608 18 is_stmt 0 view .LVU347
 1168 000c 574B     		ldr	r3, .L128
 1169 000e 1A68     		ldr	r2, [r3]
 1170 0010 0723     		movs	r3, #7
 1171 0012 1340     		ands	r3, r2
 608:Drivers/STM32C0xx_HAL_Driver/Src/stm32c0xx_hal_rcc.c ****   {
 1172              		.loc 1 608 6 view .LVU348
 1173 0014 8B42     		cmp	r3, r1
 1174 0016 28D3     		bcc	.L123
 1175              	.LVL88:
 1176              	.L99:
 627:Drivers/STM32C0xx_HAL_Driver/Src/stm32c0xx_hal_rcc.c ****   {
 1177              		.loc 1 627 3 is_stmt 1 view .LVU349
 627:Drivers/STM32C0xx_HAL_Driver/Src/stm32c0xx_hal_rcc.c ****   {
 1178              		.loc 1 627 26 is_stmt 0 view .LVU350
 1179 0018 2368     		ldr	r3, [r4]
 627:Drivers/STM32C0xx_HAL_Driver/Src/stm32c0xx_hal_rcc.c ****   {
 1180              		.loc 1 627 6 view .LVU351
 1181 001a 9A07     		lsls	r2, r3, #30
 1182 001c 10D5     		bpl	.L102
 631:Drivers/STM32C0xx_HAL_Driver/Src/stm32c0xx_hal_rcc.c ****     {
 1183              		.loc 1 631 5 is_stmt 1 view .LVU352
 631:Drivers/STM32C0xx_HAL_Driver/Src/stm32c0xx_hal_rcc.c ****     {
 1184              		.loc 1 631 8 is_stmt 0 view .LVU353
 1185 001e 5B07     		lsls	r3, r3, #29
 1186 0020 07D5     		bpl	.L103
 633:Drivers/STM32C0xx_HAL_Driver/Src/stm32c0xx_hal_rcc.c ****     }
 1187              		.loc 1 633 7 is_stmt 1 view .LVU354
 1188 0022 5349     		ldr	r1, .L128+4
 1189 0024 8B68     		ldr	r3, [r1, #8]
 1190 0026 534A     		ldr	r2, .L128+8
 1191 0028 1A40     		ands	r2, r3
 1192 002a B023     		movs	r3, #176
 1193 002c 1B01     		lsls	r3, r3, #4
 1194 002e 1343     		orrs	r3, r2
 1195 0030 8B60     		str	r3, [r1, #8]
 1196              	.L103:
 637:Drivers/STM32C0xx_HAL_Driver/Src/stm32c0xx_hal_rcc.c ****     MODIFY_REG(RCC->CFGR, RCC_CFGR_HPRE, RCC_ClkInitStruct->AHBCLKDivider);
 1197              		.loc 1 637 5 view .LVU355
ARM GAS  /var/folders/nl/kwfz41d55ync1k9vlz8wmkc80000gn/T//ccPpmmCA.s 			page 62


 638:Drivers/STM32C0xx_HAL_Driver/Src/stm32c0xx_hal_rcc.c ****   }
 1198              		.loc 1 638 5 view .LVU356
 1199 0032 4F4A     		ldr	r2, .L128+4
 1200 0034 9368     		ldr	r3, [r2, #8]
 1201 0036 5049     		ldr	r1, .L128+12
 1202 0038 0B40     		ands	r3, r1
 1203 003a E168     		ldr	r1, [r4, #12]
 1204 003c 0B43     		orrs	r3, r1
 1205 003e 9360     		str	r3, [r2, #8]
 1206              	.L102:
 642:Drivers/STM32C0xx_HAL_Driver/Src/stm32c0xx_hal_rcc.c ****   {
 1207              		.loc 1 642 3 view .LVU357
 642:Drivers/STM32C0xx_HAL_Driver/Src/stm32c0xx_hal_rcc.c ****   {
 1208              		.loc 1 642 6 is_stmt 0 view .LVU358
 1209 0040 2368     		ldr	r3, [r4]
 1210 0042 DB07     		lsls	r3, r3, #31
 1211 0044 52D5     		bpl	.L104
 644:Drivers/STM32C0xx_HAL_Driver/Src/stm32c0xx_hal_rcc.c ****     assert_param(IS_RCC_SYSCLKSOURCE(RCC_ClkInitStruct->SYSCLKSource));
 1212              		.loc 1 644 5 is_stmt 1 view .LVU359
 645:Drivers/STM32C0xx_HAL_Driver/Src/stm32c0xx_hal_rcc.c ****     MODIFY_REG(RCC->CR, RCC_CR_SYSDIV, RCC_ClkInitStruct->SYSCLKDivider);
 1213              		.loc 1 645 5 view .LVU360
 646:Drivers/STM32C0xx_HAL_Driver/Src/stm32c0xx_hal_rcc.c **** 
 1214              		.loc 1 646 5 view .LVU361
 1215 0046 4A4A     		ldr	r2, .L128+4
 1216 0048 1368     		ldr	r3, [r2]
 1217 004a 1C21     		movs	r1, #28
 1218 004c 8B43     		bics	r3, r1
 1219 004e A168     		ldr	r1, [r4, #8]
 1220 0050 0B43     		orrs	r3, r1
 1221 0052 1360     		str	r3, [r2]
 649:Drivers/STM32C0xx_HAL_Driver/Src/stm32c0xx_hal_rcc.c ****     {
 1222              		.loc 1 649 5 view .LVU362
 649:Drivers/STM32C0xx_HAL_Driver/Src/stm32c0xx_hal_rcc.c ****     {
 1223              		.loc 1 649 26 is_stmt 0 view .LVU363
 1224 0054 6368     		ldr	r3, [r4, #4]
 649:Drivers/STM32C0xx_HAL_Driver/Src/stm32c0xx_hal_rcc.c ****     {
 1225              		.loc 1 649 8 view .LVU364
 1226 0056 012B     		cmp	r3, #1
 1227 0058 1ED0     		beq	.L124
 658:Drivers/STM32C0xx_HAL_Driver/Src/stm32c0xx_hal_rcc.c ****     {
 1228              		.loc 1 658 10 is_stmt 1 view .LVU365
 658:Drivers/STM32C0xx_HAL_Driver/Src/stm32c0xx_hal_rcc.c ****     {
 1229              		.loc 1 658 13 is_stmt 0 view .LVU366
 1230 005a 002B     		cmp	r3, #0
 1231 005c 38D1     		bne	.L107
 661:Drivers/STM32C0xx_HAL_Driver/Src/stm32c0xx_hal_rcc.c ****       {
 1232              		.loc 1 661 7 is_stmt 1 view .LVU367
 661:Drivers/STM32C0xx_HAL_Driver/Src/stm32c0xx_hal_rcc.c ****       {
 1233              		.loc 1 661 11 is_stmt 0 view .LVU368
 1234 005e 444A     		ldr	r2, .L128+4
 1235 0060 1268     		ldr	r2, [r2]
 661:Drivers/STM32C0xx_HAL_Driver/Src/stm32c0xx_hal_rcc.c ****       {
 1236              		.loc 1 661 10 view .LVU369
 1237 0062 5205     		lsls	r2, r2, #21
 1238 0064 1BD4     		bmi	.L106
 663:Drivers/STM32C0xx_HAL_Driver/Src/stm32c0xx_hal_rcc.c ****       }
 1239              		.loc 1 663 16 view .LVU370
ARM GAS  /var/folders/nl/kwfz41d55ync1k9vlz8wmkc80000gn/T//ccPpmmCA.s 			page 63


 1240 0066 0120     		movs	r0, #1
 1241 0068 63E0     		b	.L98
 1242              	.LVL89:
 1243              	.L123:
 611:Drivers/STM32C0xx_HAL_Driver/Src/stm32c0xx_hal_rcc.c **** 
 1244              		.loc 1 611 5 is_stmt 1 view .LVU371
 1245 006a 404A     		ldr	r2, .L128
 1246 006c 1368     		ldr	r3, [r2]
 1247 006e 0721     		movs	r1, #7
 1248              	.LVL90:
 611:Drivers/STM32C0xx_HAL_Driver/Src/stm32c0xx_hal_rcc.c **** 
 1249              		.loc 1 611 5 is_stmt 0 view .LVU372
 1250 0070 8B43     		bics	r3, r1
 1251 0072 2B43     		orrs	r3, r5
 1252 0074 1360     		str	r3, [r2]
 615:Drivers/STM32C0xx_HAL_Driver/Src/stm32c0xx_hal_rcc.c **** 
 1253              		.loc 1 615 5 is_stmt 1 view .LVU373
 615:Drivers/STM32C0xx_HAL_Driver/Src/stm32c0xx_hal_rcc.c **** 
 1254              		.loc 1 615 17 is_stmt 0 view .LVU374
 1255 0076 FFF7FEFF 		bl	HAL_GetTick
 1256              	.LVL91:
 615:Drivers/STM32C0xx_HAL_Driver/Src/stm32c0xx_hal_rcc.c **** 
 1257              		.loc 1 615 17 view .LVU375
 1258 007a 0600     		movs	r6, r0
 1259              	.LVL92:
 617:Drivers/STM32C0xx_HAL_Driver/Src/stm32c0xx_hal_rcc.c ****     {
 1260              		.loc 1 617 5 is_stmt 1 view .LVU376
 1261              	.L100:
 617:Drivers/STM32C0xx_HAL_Driver/Src/stm32c0xx_hal_rcc.c ****     {
 1262              		.loc 1 617 11 view .LVU377
 617:Drivers/STM32C0xx_HAL_Driver/Src/stm32c0xx_hal_rcc.c ****     {
 1263              		.loc 1 617 18 is_stmt 0 view .LVU378
 1264 007c 3B4B     		ldr	r3, .L128
 1265 007e 1A68     		ldr	r2, [r3]
 617:Drivers/STM32C0xx_HAL_Driver/Src/stm32c0xx_hal_rcc.c ****     {
 1266              		.loc 1 617 24 view .LVU379
 1267 0080 0723     		movs	r3, #7
 1268 0082 1340     		ands	r3, r2
 617:Drivers/STM32C0xx_HAL_Driver/Src/stm32c0xx_hal_rcc.c ****     {
 1269              		.loc 1 617 11 view .LVU380
 1270 0084 AB42     		cmp	r3, r5
 1271 0086 C7D0     		beq	.L99
 619:Drivers/STM32C0xx_HAL_Driver/Src/stm32c0xx_hal_rcc.c ****       {
 1272              		.loc 1 619 7 is_stmt 1 view .LVU381
 619:Drivers/STM32C0xx_HAL_Driver/Src/stm32c0xx_hal_rcc.c ****       {
 1273              		.loc 1 619 12 is_stmt 0 view .LVU382
 1274 0088 FFF7FEFF 		bl	HAL_GetTick
 1275              	.LVL93:
 619:Drivers/STM32C0xx_HAL_Driver/Src/stm32c0xx_hal_rcc.c ****       {
 1276              		.loc 1 619 26 view .LVU383
 1277 008c 801B     		subs	r0, r0, r6
 619:Drivers/STM32C0xx_HAL_Driver/Src/stm32c0xx_hal_rcc.c ****       {
 1278              		.loc 1 619 10 view .LVU384
 1279 008e 3B4A     		ldr	r2, .L128+16
 1280 0090 9042     		cmp	r0, r2
 1281 0092 F3D9     		bls	.L100
 621:Drivers/STM32C0xx_HAL_Driver/Src/stm32c0xx_hal_rcc.c ****       }
ARM GAS  /var/folders/nl/kwfz41d55ync1k9vlz8wmkc80000gn/T//ccPpmmCA.s 			page 64


 1282              		.loc 1 621 16 view .LVU385
 1283 0094 0320     		movs	r0, #3
 1284 0096 4CE0     		b	.L98
 1285              	.LVL94:
 1286              	.L124:
 652:Drivers/STM32C0xx_HAL_Driver/Src/stm32c0xx_hal_rcc.c ****       {
 1287              		.loc 1 652 7 is_stmt 1 view .LVU386
 652:Drivers/STM32C0xx_HAL_Driver/Src/stm32c0xx_hal_rcc.c ****       {
 1288              		.loc 1 652 11 is_stmt 0 view .LVU387
 1289 0098 1268     		ldr	r2, [r2]
 652:Drivers/STM32C0xx_HAL_Driver/Src/stm32c0xx_hal_rcc.c ****       {
 1290              		.loc 1 652 10 view .LVU388
 1291 009a 9203     		lsls	r2, r2, #14
 1292 009c 63D5     		bpl	.L125
 1293              	.L106:
 684:Drivers/STM32C0xx_HAL_Driver/Src/stm32c0xx_hal_rcc.c **** 
 1294              		.loc 1 684 5 is_stmt 1 view .LVU389
 1295 009e 3449     		ldr	r1, .L128+4
 1296 00a0 8A68     		ldr	r2, [r1, #8]
 1297 00a2 0720     		movs	r0, #7
 1298 00a4 8243     		bics	r2, r0
 1299 00a6 1343     		orrs	r3, r2
 1300 00a8 8B60     		str	r3, [r1, #8]
 687:Drivers/STM32C0xx_HAL_Driver/Src/stm32c0xx_hal_rcc.c **** 
 1301              		.loc 1 687 5 view .LVU390
 687:Drivers/STM32C0xx_HAL_Driver/Src/stm32c0xx_hal_rcc.c **** 
 1302              		.loc 1 687 17 is_stmt 0 view .LVU391
 1303 00aa FFF7FEFF 		bl	HAL_GetTick
 1304              	.LVL95:
 1305 00ae 0600     		movs	r6, r0
 1306              	.LVL96:
 689:Drivers/STM32C0xx_HAL_Driver/Src/stm32c0xx_hal_rcc.c ****     {
 1307              		.loc 1 689 5 is_stmt 1 view .LVU392
 1308              	.L109:
 689:Drivers/STM32C0xx_HAL_Driver/Src/stm32c0xx_hal_rcc.c ****     {
 1309              		.loc 1 689 11 view .LVU393
 689:Drivers/STM32C0xx_HAL_Driver/Src/stm32c0xx_hal_rcc.c ****     {
 1310              		.loc 1 689 12 is_stmt 0 view .LVU394
 1311 00b0 2F4B     		ldr	r3, .L128+4
 1312 00b2 9B68     		ldr	r3, [r3, #8]
 1313 00b4 3822     		movs	r2, #56
 1314 00b6 1A40     		ands	r2, r3
 689:Drivers/STM32C0xx_HAL_Driver/Src/stm32c0xx_hal_rcc.c ****     {
 1315              		.loc 1 689 78 view .LVU395
 1316 00b8 6368     		ldr	r3, [r4, #4]
 1317 00ba DB00     		lsls	r3, r3, #3
 689:Drivers/STM32C0xx_HAL_Driver/Src/stm32c0xx_hal_rcc.c ****     {
 1318              		.loc 1 689 11 view .LVU396
 1319 00bc 9A42     		cmp	r2, r3
 1320 00be 15D0     		beq	.L104
 691:Drivers/STM32C0xx_HAL_Driver/Src/stm32c0xx_hal_rcc.c ****       {
 1321              		.loc 1 691 7 is_stmt 1 view .LVU397
 691:Drivers/STM32C0xx_HAL_Driver/Src/stm32c0xx_hal_rcc.c ****       {
 1322              		.loc 1 691 12 is_stmt 0 view .LVU398
 1323 00c0 FFF7FEFF 		bl	HAL_GetTick
 1324              	.LVL97:
 691:Drivers/STM32C0xx_HAL_Driver/Src/stm32c0xx_hal_rcc.c ****       {
ARM GAS  /var/folders/nl/kwfz41d55ync1k9vlz8wmkc80000gn/T//ccPpmmCA.s 			page 65


 1325              		.loc 1 691 26 view .LVU399
 1326 00c4 801B     		subs	r0, r0, r6
 691:Drivers/STM32C0xx_HAL_Driver/Src/stm32c0xx_hal_rcc.c ****       {
 1327              		.loc 1 691 10 view .LVU400
 1328 00c6 2D4B     		ldr	r3, .L128+16
 1329 00c8 9842     		cmp	r0, r3
 1330 00ca F1D9     		bls	.L109
 693:Drivers/STM32C0xx_HAL_Driver/Src/stm32c0xx_hal_rcc.c ****       }
 1331              		.loc 1 693 16 view .LVU401
 1332 00cc 0320     		movs	r0, #3
 1333 00ce 30E0     		b	.L98
 1334              	.LVL98:
 1335              	.L107:
 667:Drivers/STM32C0xx_HAL_Driver/Src/stm32c0xx_hal_rcc.c ****     {
 1336              		.loc 1 667 10 is_stmt 1 view .LVU402
 667:Drivers/STM32C0xx_HAL_Driver/Src/stm32c0xx_hal_rcc.c ****     {
 1337              		.loc 1 667 13 is_stmt 0 view .LVU403
 1338 00d0 032B     		cmp	r3, #3
 1339 00d2 05D0     		beq	.L126
 679:Drivers/STM32C0xx_HAL_Driver/Src/stm32c0xx_hal_rcc.c ****       {
 1340              		.loc 1 679 7 is_stmt 1 view .LVU404
 679:Drivers/STM32C0xx_HAL_Driver/Src/stm32c0xx_hal_rcc.c ****       {
 1341              		.loc 1 679 11 is_stmt 0 view .LVU405
 1342 00d4 264A     		ldr	r2, .L128+4
 1343 00d6 D26D     		ldr	r2, [r2, #92]
 679:Drivers/STM32C0xx_HAL_Driver/Src/stm32c0xx_hal_rcc.c ****       {
 1344              		.loc 1 679 10 view .LVU406
 1345 00d8 9207     		lsls	r2, r2, #30
 1346 00da E0D4     		bmi	.L106
 681:Drivers/STM32C0xx_HAL_Driver/Src/stm32c0xx_hal_rcc.c ****       }
 1347              		.loc 1 681 16 view .LVU407
 1348 00dc 0120     		movs	r0, #1
 1349 00de 28E0     		b	.L98
 1350              	.L126:
 670:Drivers/STM32C0xx_HAL_Driver/Src/stm32c0xx_hal_rcc.c ****       {
 1351              		.loc 1 670 7 is_stmt 1 view .LVU408
 670:Drivers/STM32C0xx_HAL_Driver/Src/stm32c0xx_hal_rcc.c ****       {
 1352              		.loc 1 670 11 is_stmt 0 view .LVU409
 1353 00e0 234A     		ldr	r2, .L128+4
 1354 00e2 126E     		ldr	r2, [r2, #96]
 670:Drivers/STM32C0xx_HAL_Driver/Src/stm32c0xx_hal_rcc.c ****       {
 1355              		.loc 1 670 10 view .LVU410
 1356 00e4 9207     		lsls	r2, r2, #30
 1357 00e6 DAD4     		bmi	.L106
 672:Drivers/STM32C0xx_HAL_Driver/Src/stm32c0xx_hal_rcc.c ****       }
 1358              		.loc 1 672 16 view .LVU411
 1359 00e8 0120     		movs	r0, #1
 1360 00ea 22E0     		b	.L98
 1361              	.L104:
 699:Drivers/STM32C0xx_HAL_Driver/Src/stm32c0xx_hal_rcc.c ****   {
 1362              		.loc 1 699 3 is_stmt 1 view .LVU412
 699:Drivers/STM32C0xx_HAL_Driver/Src/stm32c0xx_hal_rcc.c ****   {
 1363              		.loc 1 699 18 is_stmt 0 view .LVU413
 1364 00ec 1F4B     		ldr	r3, .L128
 1365 00ee 1A68     		ldr	r2, [r3]
 1366 00f0 0723     		movs	r3, #7
 1367 00f2 1340     		ands	r3, r2
ARM GAS  /var/folders/nl/kwfz41d55ync1k9vlz8wmkc80000gn/T//ccPpmmCA.s 			page 66


 699:Drivers/STM32C0xx_HAL_Driver/Src/stm32c0xx_hal_rcc.c ****   {
 1368              		.loc 1 699 6 view .LVU414
 1369 00f4 AB42     		cmp	r3, r5
 1370 00f6 1DD8     		bhi	.L127
 1371              	.L111:
 718:Drivers/STM32C0xx_HAL_Driver/Src/stm32c0xx_hal_rcc.c ****   {
 1372              		.loc 1 718 3 is_stmt 1 view .LVU415
 718:Drivers/STM32C0xx_HAL_Driver/Src/stm32c0xx_hal_rcc.c ****   {
 1373              		.loc 1 718 6 is_stmt 0 view .LVU416
 1374 00f8 2368     		ldr	r3, [r4]
 1375 00fa 5B07     		lsls	r3, r3, #29
 1376 00fc 06D5     		bpl	.L114
 720:Drivers/STM32C0xx_HAL_Driver/Src/stm32c0xx_hal_rcc.c ****     MODIFY_REG(RCC->CFGR, RCC_CFGR_PPRE, RCC_ClkInitStruct->APB1CLKDivider);
 1377              		.loc 1 720 5 is_stmt 1 view .LVU417
 721:Drivers/STM32C0xx_HAL_Driver/Src/stm32c0xx_hal_rcc.c ****   }
 1378              		.loc 1 721 5 view .LVU418
 1379 00fe 1C4A     		ldr	r2, .L128+4
 1380 0100 9368     		ldr	r3, [r2, #8]
 1381 0102 1F49     		ldr	r1, .L128+20
 1382 0104 0B40     		ands	r3, r1
 1383 0106 2169     		ldr	r1, [r4, #16]
 1384 0108 0B43     		orrs	r3, r1
 1385 010a 9360     		str	r3, [r2, #8]
 1386              	.L114:
 725:Drivers/STM32C0xx_HAL_Driver/Src/stm32c0xx_hal_rcc.c **** 
 1387              		.loc 1 725 3 view .LVU419
 725:Drivers/STM32C0xx_HAL_Driver/Src/stm32c0xx_hal_rcc.c **** 
 1388              		.loc 1 725 22 is_stmt 0 view .LVU420
 1389 010c FFF7FEFF 		bl	HAL_RCC_GetSysClockFreq
 1390              	.LVL99:
 725:Drivers/STM32C0xx_HAL_Driver/Src/stm32c0xx_hal_rcc.c **** 
 1391              		.loc 1 725 71 view .LVU421
 1392 0110 174B     		ldr	r3, .L128+4
 1393 0112 9A68     		ldr	r2, [r3, #8]
 725:Drivers/STM32C0xx_HAL_Driver/Src/stm32c0xx_hal_rcc.c **** 
 1394              		.loc 1 725 95 view .LVU422
 1395 0114 120A     		lsrs	r2, r2, #8
 1396 0116 0F23     		movs	r3, #15
 1397 0118 1340     		ands	r3, r2
 725:Drivers/STM32C0xx_HAL_Driver/Src/stm32c0xx_hal_rcc.c **** 
 1398              		.loc 1 725 66 view .LVU423
 1399 011a 9B00     		lsls	r3, r3, #2
 1400 011c 194A     		ldr	r2, .L128+24
 1401 011e 9A58     		ldr	r2, [r3, r2]
 725:Drivers/STM32C0xx_HAL_Driver/Src/stm32c0xx_hal_rcc.c **** 
 1402              		.loc 1 725 118 view .LVU424
 1403 0120 1F23     		movs	r3, #31
 1404 0122 1340     		ands	r3, r2
 725:Drivers/STM32C0xx_HAL_Driver/Src/stm32c0xx_hal_rcc.c **** 
 1405              		.loc 1 725 48 view .LVU425
 1406 0124 D840     		lsrs	r0, r0, r3
 725:Drivers/STM32C0xx_HAL_Driver/Src/stm32c0xx_hal_rcc.c **** 
 1407              		.loc 1 725 19 view .LVU426
 1408 0126 184B     		ldr	r3, .L128+28
 1409 0128 1860     		str	r0, [r3]
 728:Drivers/STM32C0xx_HAL_Driver/Src/stm32c0xx_hal_rcc.c **** }
 1410              		.loc 1 728 3 is_stmt 1 view .LVU427
ARM GAS  /var/folders/nl/kwfz41d55ync1k9vlz8wmkc80000gn/T//ccPpmmCA.s 			page 67


 728:Drivers/STM32C0xx_HAL_Driver/Src/stm32c0xx_hal_rcc.c **** }
 1411              		.loc 1 728 10 is_stmt 0 view .LVU428
 1412 012a 184B     		ldr	r3, .L128+32
 1413 012c 1868     		ldr	r0, [r3]
 1414 012e FFF7FEFF 		bl	HAL_InitTick
 1415              	.LVL100:
 1416              	.L98:
 729:Drivers/STM32C0xx_HAL_Driver/Src/stm32c0xx_hal_rcc.c **** 
 1417              		.loc 1 729 1 view .LVU429
 1418              		@ sp needed
 1419              	.LVL101:
 1420              	.LVL102:
 729:Drivers/STM32C0xx_HAL_Driver/Src/stm32c0xx_hal_rcc.c **** 
 1421              		.loc 1 729 1 view .LVU430
 1422 0132 70BD     		pop	{r4, r5, r6, pc}
 1423              	.LVL103:
 1424              	.L127:
 702:Drivers/STM32C0xx_HAL_Driver/Src/stm32c0xx_hal_rcc.c **** 
 1425              		.loc 1 702 5 is_stmt 1 view .LVU431
 1426 0134 0D4A     		ldr	r2, .L128
 1427 0136 1368     		ldr	r3, [r2]
 1428 0138 0721     		movs	r1, #7
 1429 013a 8B43     		bics	r3, r1
 1430 013c 2B43     		orrs	r3, r5
 1431 013e 1360     		str	r3, [r2]
 706:Drivers/STM32C0xx_HAL_Driver/Src/stm32c0xx_hal_rcc.c **** 
 1432              		.loc 1 706 5 view .LVU432
 706:Drivers/STM32C0xx_HAL_Driver/Src/stm32c0xx_hal_rcc.c **** 
 1433              		.loc 1 706 17 is_stmt 0 view .LVU433
 1434 0140 FFF7FEFF 		bl	HAL_GetTick
 1435              	.LVL104:
 1436 0144 0600     		movs	r6, r0
 1437              	.LVL105:
 708:Drivers/STM32C0xx_HAL_Driver/Src/stm32c0xx_hal_rcc.c ****     {
 1438              		.loc 1 708 5 is_stmt 1 view .LVU434
 1439              	.L112:
 708:Drivers/STM32C0xx_HAL_Driver/Src/stm32c0xx_hal_rcc.c ****     {
 1440              		.loc 1 708 11 view .LVU435
 708:Drivers/STM32C0xx_HAL_Driver/Src/stm32c0xx_hal_rcc.c ****     {
 1441              		.loc 1 708 18 is_stmt 0 view .LVU436
 1442 0146 094B     		ldr	r3, .L128
 1443 0148 1A68     		ldr	r2, [r3]
 708:Drivers/STM32C0xx_HAL_Driver/Src/stm32c0xx_hal_rcc.c ****     {
 1444              		.loc 1 708 24 view .LVU437
 1445 014a 0723     		movs	r3, #7
 1446 014c 1340     		ands	r3, r2
 708:Drivers/STM32C0xx_HAL_Driver/Src/stm32c0xx_hal_rcc.c ****     {
 1447              		.loc 1 708 11 view .LVU438
 1448 014e AB42     		cmp	r3, r5
 1449 0150 D2D0     		beq	.L111
 710:Drivers/STM32C0xx_HAL_Driver/Src/stm32c0xx_hal_rcc.c ****       {
 1450              		.loc 1 710 7 is_stmt 1 view .LVU439
 710:Drivers/STM32C0xx_HAL_Driver/Src/stm32c0xx_hal_rcc.c ****       {
 1451              		.loc 1 710 12 is_stmt 0 view .LVU440
 1452 0152 FFF7FEFF 		bl	HAL_GetTick
 1453              	.LVL106:
 710:Drivers/STM32C0xx_HAL_Driver/Src/stm32c0xx_hal_rcc.c ****       {
ARM GAS  /var/folders/nl/kwfz41d55ync1k9vlz8wmkc80000gn/T//ccPpmmCA.s 			page 68


 1454              		.loc 1 710 26 view .LVU441
 1455 0156 801B     		subs	r0, r0, r6
 710:Drivers/STM32C0xx_HAL_Driver/Src/stm32c0xx_hal_rcc.c ****       {
 1456              		.loc 1 710 10 view .LVU442
 1457 0158 084B     		ldr	r3, .L128+16
 1458 015a 9842     		cmp	r0, r3
 1459 015c F3D9     		bls	.L112
 712:Drivers/STM32C0xx_HAL_Driver/Src/stm32c0xx_hal_rcc.c ****       }
 1460              		.loc 1 712 16 view .LVU443
 1461 015e 0320     		movs	r0, #3
 1462 0160 E7E7     		b	.L98
 1463              	.LVL107:
 1464              	.L115:
 596:Drivers/STM32C0xx_HAL_Driver/Src/stm32c0xx_hal_rcc.c ****   }
 1465              		.loc 1 596 12 view .LVU444
 1466 0162 0120     		movs	r0, #1
 1467              	.LVL108:
 596:Drivers/STM32C0xx_HAL_Driver/Src/stm32c0xx_hal_rcc.c ****   }
 1468              		.loc 1 596 12 view .LVU445
 1469 0164 E5E7     		b	.L98
 1470              	.LVL109:
 1471              	.L125:
 654:Drivers/STM32C0xx_HAL_Driver/Src/stm32c0xx_hal_rcc.c ****       }
 1472              		.loc 1 654 16 view .LVU446
 1473 0166 0120     		movs	r0, #1
 1474 0168 E3E7     		b	.L98
 1475              	.L129:
 1476 016a C046     		.align	2
 1477              	.L128:
 1478 016c 00200240 		.word	1073881088
 1479 0170 00100240 		.word	1073876992
 1480 0174 FF84FFFF 		.word	-31489
 1481 0178 FFF0FFFF 		.word	-3841
 1482 017c 88130000 		.word	5000
 1483 0180 FF8FFFFF 		.word	-28673
 1484 0184 00000000 		.word	AHBPrescTable
 1485 0188 00000000 		.word	SystemCoreClock
 1486 018c 00000000 		.word	uwTickPrio
 1487              		.cfi_endproc
 1488              	.LFE216:
 1490              		.section	.text.HAL_RCC_GetHCLKFreq,"ax",%progbits
 1491              		.align	1
 1492              		.global	HAL_RCC_GetHCLKFreq
 1493              		.syntax unified
 1494              		.code	16
 1495              		.thumb_func
 1497              	HAL_RCC_GetHCLKFreq:
 1498              	.LFB219:
 902:Drivers/STM32C0xx_HAL_Driver/Src/stm32c0xx_hal_rcc.c **** 
 903:Drivers/STM32C0xx_HAL_Driver/Src/stm32c0xx_hal_rcc.c **** /**
 904:Drivers/STM32C0xx_HAL_Driver/Src/stm32c0xx_hal_rcc.c ****   * @brief  Return the HCLK frequency.
 905:Drivers/STM32C0xx_HAL_Driver/Src/stm32c0xx_hal_rcc.c ****   * @note   Each time HCLK changes, this function must be called to update the
 906:Drivers/STM32C0xx_HAL_Driver/Src/stm32c0xx_hal_rcc.c ****   *         right HCLK value. Otherwise, any configuration based on this function will be incorrect
 907:Drivers/STM32C0xx_HAL_Driver/Src/stm32c0xx_hal_rcc.c ****   *
 908:Drivers/STM32C0xx_HAL_Driver/Src/stm32c0xx_hal_rcc.c ****   * @note   The SystemCoreClock CMSIS variable is used to store System Clock Frequency.
 909:Drivers/STM32C0xx_HAL_Driver/Src/stm32c0xx_hal_rcc.c ****   * @retval HCLK frequency in Hz
 910:Drivers/STM32C0xx_HAL_Driver/Src/stm32c0xx_hal_rcc.c ****   */
ARM GAS  /var/folders/nl/kwfz41d55ync1k9vlz8wmkc80000gn/T//ccPpmmCA.s 			page 69


 911:Drivers/STM32C0xx_HAL_Driver/Src/stm32c0xx_hal_rcc.c **** uint32_t HAL_RCC_GetHCLKFreq(void)
 912:Drivers/STM32C0xx_HAL_Driver/Src/stm32c0xx_hal_rcc.c **** {
 1499              		.loc 1 912 1 is_stmt 1 view -0
 1500              		.cfi_startproc
 1501              		@ args = 0, pretend = 0, frame = 0
 1502              		@ frame_needed = 0, uses_anonymous_args = 0
 1503              		@ link register save eliminated.
 913:Drivers/STM32C0xx_HAL_Driver/Src/stm32c0xx_hal_rcc.c ****   return SystemCoreClock;
 1504              		.loc 1 913 3 view .LVU448
 1505              		.loc 1 913 10 is_stmt 0 view .LVU449
 1506 0000 014B     		ldr	r3, .L131
 1507 0002 1868     		ldr	r0, [r3]
 914:Drivers/STM32C0xx_HAL_Driver/Src/stm32c0xx_hal_rcc.c **** }
 1508              		.loc 1 914 1 view .LVU450
 1509              		@ sp needed
 1510 0004 7047     		bx	lr
 1511              	.L132:
 1512 0006 C046     		.align	2
 1513              	.L131:
 1514 0008 00000000 		.word	SystemCoreClock
 1515              		.cfi_endproc
 1516              	.LFE219:
 1518              		.section	.text.HAL_RCC_GetPCLK1Freq,"ax",%progbits
 1519              		.align	1
 1520              		.global	HAL_RCC_GetPCLK1Freq
 1521              		.syntax unified
 1522              		.code	16
 1523              		.thumb_func
 1525              	HAL_RCC_GetPCLK1Freq:
 1526              	.LFB220:
 915:Drivers/STM32C0xx_HAL_Driver/Src/stm32c0xx_hal_rcc.c **** 
 916:Drivers/STM32C0xx_HAL_Driver/Src/stm32c0xx_hal_rcc.c **** /**
 917:Drivers/STM32C0xx_HAL_Driver/Src/stm32c0xx_hal_rcc.c ****   * @brief  Return the PCLK1 frequency.
 918:Drivers/STM32C0xx_HAL_Driver/Src/stm32c0xx_hal_rcc.c ****   * @note   Each time PCLK1 changes, this function must be called to update the
 919:Drivers/STM32C0xx_HAL_Driver/Src/stm32c0xx_hal_rcc.c ****   *         right PCLK1 value. Otherwise, any configuration based on this function will be incorrec
 920:Drivers/STM32C0xx_HAL_Driver/Src/stm32c0xx_hal_rcc.c ****   * @retval PCLK1 frequency in Hz
 921:Drivers/STM32C0xx_HAL_Driver/Src/stm32c0xx_hal_rcc.c ****   */
 922:Drivers/STM32C0xx_HAL_Driver/Src/stm32c0xx_hal_rcc.c **** uint32_t HAL_RCC_GetPCLK1Freq(void)
 923:Drivers/STM32C0xx_HAL_Driver/Src/stm32c0xx_hal_rcc.c **** {
 1527              		.loc 1 923 1 is_stmt 1 view -0
 1528              		.cfi_startproc
 1529              		@ args = 0, pretend = 0, frame = 0
 1530              		@ frame_needed = 0, uses_anonymous_args = 0
 1531 0000 10B5     		push	{r4, lr}
 1532              	.LCFI6:
 1533              		.cfi_def_cfa_offset 8
 1534              		.cfi_offset 4, -8
 1535              		.cfi_offset 14, -4
 924:Drivers/STM32C0xx_HAL_Driver/Src/stm32c0xx_hal_rcc.c ****   /* Get HCLK source and Compute PCLK1 frequency ---------------------------*/
 925:Drivers/STM32C0xx_HAL_Driver/Src/stm32c0xx_hal_rcc.c ****   return (HAL_RCC_GetHCLKFreq() >> ((APBPrescTable[(RCC->CFGR & RCC_CFGR_PPRE) >> RCC_CFGR_PPRE_Pos
 1536              		.loc 1 925 3 view .LVU452
 1537              		.loc 1 925 11 is_stmt 0 view .LVU453
 1538 0002 FFF7FEFF 		bl	HAL_RCC_GetHCLKFreq
 1539              	.LVL110:
 1540              		.loc 1 925 56 view .LVU454
 1541 0006 064B     		ldr	r3, .L134
 1542 0008 9A68     		ldr	r2, [r3, #8]
ARM GAS  /var/folders/nl/kwfz41d55ync1k9vlz8wmkc80000gn/T//ccPpmmCA.s 			page 70


 1543              		.loc 1 925 80 view .LVU455
 1544 000a 120B     		lsrs	r2, r2, #12
 1545 000c 0723     		movs	r3, #7
 1546 000e 1340     		ands	r3, r2
 1547              		.loc 1 925 51 view .LVU456
 1548 0010 9B00     		lsls	r3, r3, #2
 1549 0012 044A     		ldr	r2, .L134+4
 1550 0014 9A58     		ldr	r2, [r3, r2]
 1551              		.loc 1 925 103 view .LVU457
 1552 0016 1F23     		movs	r3, #31
 1553 0018 1340     		ands	r3, r2
 1554              		.loc 1 925 33 view .LVU458
 1555 001a D840     		lsrs	r0, r0, r3
 926:Drivers/STM32C0xx_HAL_Driver/Src/stm32c0xx_hal_rcc.c **** }
 1556              		.loc 1 926 1 view .LVU459
 1557              		@ sp needed
 1558 001c 10BD     		pop	{r4, pc}
 1559              	.L135:
 1560 001e C046     		.align	2
 1561              	.L134:
 1562 0020 00100240 		.word	1073876992
 1563 0024 00000000 		.word	APBPrescTable
 1564              		.cfi_endproc
 1565              	.LFE220:
 1567              		.section	.text.HAL_RCC_GetOscConfig,"ax",%progbits
 1568              		.align	1
 1569              		.global	HAL_RCC_GetOscConfig
 1570              		.syntax unified
 1571              		.code	16
 1572              		.thumb_func
 1574              	HAL_RCC_GetOscConfig:
 1575              	.LVL111:
 1576              	.LFB221:
 927:Drivers/STM32C0xx_HAL_Driver/Src/stm32c0xx_hal_rcc.c **** 
 928:Drivers/STM32C0xx_HAL_Driver/Src/stm32c0xx_hal_rcc.c **** /**
 929:Drivers/STM32C0xx_HAL_Driver/Src/stm32c0xx_hal_rcc.c ****   * @brief  Configure the RCC_OscInitStruct according to the internal
 930:Drivers/STM32C0xx_HAL_Driver/Src/stm32c0xx_hal_rcc.c ****   *         RCC configuration registers.
 931:Drivers/STM32C0xx_HAL_Driver/Src/stm32c0xx_hal_rcc.c ****   * @param  RCC_OscInitStruct  pointer to an RCC_OscInitTypeDef structure that
 932:Drivers/STM32C0xx_HAL_Driver/Src/stm32c0xx_hal_rcc.c ****   *         will be configured.
 933:Drivers/STM32C0xx_HAL_Driver/Src/stm32c0xx_hal_rcc.c ****   * @retval None
 934:Drivers/STM32C0xx_HAL_Driver/Src/stm32c0xx_hal_rcc.c ****   */
 935:Drivers/STM32C0xx_HAL_Driver/Src/stm32c0xx_hal_rcc.c **** void HAL_RCC_GetOscConfig(RCC_OscInitTypeDef  *RCC_OscInitStruct)
 936:Drivers/STM32C0xx_HAL_Driver/Src/stm32c0xx_hal_rcc.c **** {
 1577              		.loc 1 936 1 is_stmt 1 view -0
 1578              		.cfi_startproc
 1579              		@ args = 0, pretend = 0, frame = 0
 1580              		@ frame_needed = 0, uses_anonymous_args = 0
 1581              		.loc 1 936 1 is_stmt 0 view .LVU461
 1582 0000 10B5     		push	{r4, lr}
 1583              	.LCFI7:
 1584              		.cfi_def_cfa_offset 8
 1585              		.cfi_offset 4, -8
 1586              		.cfi_offset 14, -4
 937:Drivers/STM32C0xx_HAL_Driver/Src/stm32c0xx_hal_rcc.c ****   uint32_t regval;
 1587              		.loc 1 937 3 is_stmt 1 view .LVU462
 938:Drivers/STM32C0xx_HAL_Driver/Src/stm32c0xx_hal_rcc.c **** 
 939:Drivers/STM32C0xx_HAL_Driver/Src/stm32c0xx_hal_rcc.c ****   /* Check the parameters */
ARM GAS  /var/folders/nl/kwfz41d55ync1k9vlz8wmkc80000gn/T//ccPpmmCA.s 			page 71


 940:Drivers/STM32C0xx_HAL_Driver/Src/stm32c0xx_hal_rcc.c ****   assert_param(RCC_OscInitStruct != (void *)NULL);
 1588              		.loc 1 940 3 view .LVU463
 941:Drivers/STM32C0xx_HAL_Driver/Src/stm32c0xx_hal_rcc.c **** 
 942:Drivers/STM32C0xx_HAL_Driver/Src/stm32c0xx_hal_rcc.c ****   /* Set all possible values for the Oscillator type parameter ---------------*/
 943:Drivers/STM32C0xx_HAL_Driver/Src/stm32c0xx_hal_rcc.c ****   RCC_OscInitStruct->OscillatorType = RCC_OSCILLATORTYPE_HSE | RCC_OSCILLATORTYPE_HSI | \
 1589              		.loc 1 943 3 view .LVU464
 1590              		.loc 1 943 37 is_stmt 0 view .LVU465
 1591 0002 0F23     		movs	r3, #15
 1592 0004 0360     		str	r3, [r0]
 944:Drivers/STM32C0xx_HAL_Driver/Src/stm32c0xx_hal_rcc.c ****                                       RCC_OSCILLATORTYPE_LSE | RCC_OSCILLATORTYPE_LSI;
 945:Drivers/STM32C0xx_HAL_Driver/Src/stm32c0xx_hal_rcc.c **** 
 946:Drivers/STM32C0xx_HAL_Driver/Src/stm32c0xx_hal_rcc.c ****   /* Get Control register */
 947:Drivers/STM32C0xx_HAL_Driver/Src/stm32c0xx_hal_rcc.c ****   regval = RCC->CR;
 1593              		.loc 1 947 3 is_stmt 1 view .LVU466
 1594              		.loc 1 947 10 is_stmt 0 view .LVU467
 1595 0006 0E4A     		ldr	r2, .L137
 1596 0008 1368     		ldr	r3, [r2]
 1597              	.LVL112:
 948:Drivers/STM32C0xx_HAL_Driver/Src/stm32c0xx_hal_rcc.c **** 
 949:Drivers/STM32C0xx_HAL_Driver/Src/stm32c0xx_hal_rcc.c ****   /* Get the HSE configuration -----------------------------------------------*/
 950:Drivers/STM32C0xx_HAL_Driver/Src/stm32c0xx_hal_rcc.c ****   RCC_OscInitStruct->HSEState = (regval & (RCC_CR_HSEON | RCC_CR_HSEBYP));
 1598              		.loc 1 950 3 is_stmt 1 view .LVU468
 1599              		.loc 1 950 41 is_stmt 0 view .LVU469
 1600 000a A021     		movs	r1, #160
 1601 000c C902     		lsls	r1, r1, #11
 1602 000e 1940     		ands	r1, r3
 1603              		.loc 1 950 31 view .LVU470
 1604 0010 4160     		str	r1, [r0, #4]
 951:Drivers/STM32C0xx_HAL_Driver/Src/stm32c0xx_hal_rcc.c **** 
 952:Drivers/STM32C0xx_HAL_Driver/Src/stm32c0xx_hal_rcc.c ****   /* Get the HSI configuration -----------------------------------------------*/
 953:Drivers/STM32C0xx_HAL_Driver/Src/stm32c0xx_hal_rcc.c ****   RCC_OscInitStruct->HSIState = regval & RCC_CR_HSION;
 1605              		.loc 1 953 3 is_stmt 1 view .LVU471
 1606              		.loc 1 953 40 is_stmt 0 view .LVU472
 1607 0012 8021     		movs	r1, #128
 1608 0014 4900     		lsls	r1, r1, #1
 1609 0016 1940     		ands	r1, r3
 1610              		.loc 1 953 31 view .LVU473
 1611 0018 C160     		str	r1, [r0, #12]
 954:Drivers/STM32C0xx_HAL_Driver/Src/stm32c0xx_hal_rcc.c ****   RCC_OscInitStruct->HSICalibrationValue = ((RCC->ICSCR & RCC_ICSCR_HSITRIM) >> RCC_ICSCR_HSITRIM_P
 1612              		.loc 1 954 3 is_stmt 1 view .LVU474
 1613              		.loc 1 954 49 is_stmt 0 view .LVU475
 1614 001a 5468     		ldr	r4, [r2, #4]
 1615              		.loc 1 954 78 view .LVU476
 1616 001c 240A     		lsrs	r4, r4, #8
 1617 001e 7F21     		movs	r1, #127
 1618 0020 2140     		ands	r1, r4
 1619              		.loc 1 954 42 view .LVU477
 1620 0022 4161     		str	r1, [r0, #20]
 955:Drivers/STM32C0xx_HAL_Driver/Src/stm32c0xx_hal_rcc.c ****   RCC_OscInitStruct->HSIDiv = ((regval & RCC_CR_HSIDIV) >> RCC_CR_HSIDIV_Pos);
 1621              		.loc 1 955 3 is_stmt 1 view .LVU478
 1622              		.loc 1 955 57 is_stmt 0 view .LVU479
 1623 0024 DB0A     		lsrs	r3, r3, #11
 1624              	.LVL113:
 1625              		.loc 1 955 57 view .LVU480
 1626 0026 0721     		movs	r1, #7
 1627 0028 0B40     		ands	r3, r1
 1628              		.loc 1 955 29 view .LVU481
ARM GAS  /var/folders/nl/kwfz41d55ync1k9vlz8wmkc80000gn/T//ccPpmmCA.s 			page 72


 1629 002a 0361     		str	r3, [r0, #16]
 956:Drivers/STM32C0xx_HAL_Driver/Src/stm32c0xx_hal_rcc.c **** 
 957:Drivers/STM32C0xx_HAL_Driver/Src/stm32c0xx_hal_rcc.c ****   /* Get CSR1 register */
 958:Drivers/STM32C0xx_HAL_Driver/Src/stm32c0xx_hal_rcc.c ****   regval = RCC->CSR1;
 1630              		.loc 1 958 3 is_stmt 1 view .LVU482
 1631              		.loc 1 958 10 is_stmt 0 view .LVU483
 1632 002c D16D     		ldr	r1, [r2, #92]
 1633              	.LVL114:
 959:Drivers/STM32C0xx_HAL_Driver/Src/stm32c0xx_hal_rcc.c **** 
 960:Drivers/STM32C0xx_HAL_Driver/Src/stm32c0xx_hal_rcc.c ****   /* Get the LSE configuration -----------------------------------------------*/
 961:Drivers/STM32C0xx_HAL_Driver/Src/stm32c0xx_hal_rcc.c ****   RCC_OscInitStruct->LSEState = (regval & (RCC_CSR1_LSEON | RCC_CSR1_LSEBYP));
 1634              		.loc 1 961 3 is_stmt 1 view .LVU484
 1635              		.loc 1 961 41 is_stmt 0 view .LVU485
 1636 002e 0523     		movs	r3, #5
 1637 0030 0B40     		ands	r3, r1
 1638              		.loc 1 961 31 view .LVU486
 1639 0032 8360     		str	r3, [r0, #8]
 962:Drivers/STM32C0xx_HAL_Driver/Src/stm32c0xx_hal_rcc.c **** 
 963:Drivers/STM32C0xx_HAL_Driver/Src/stm32c0xx_hal_rcc.c ****   /* Get CSR2 register */
 964:Drivers/STM32C0xx_HAL_Driver/Src/stm32c0xx_hal_rcc.c ****   regval = RCC->CSR2;
 1640              		.loc 1 964 3 is_stmt 1 view .LVU487
 1641              		.loc 1 964 10 is_stmt 0 view .LVU488
 1642 0034 126E     		ldr	r2, [r2, #96]
 1643              	.LVL115:
 965:Drivers/STM32C0xx_HAL_Driver/Src/stm32c0xx_hal_rcc.c **** 
 966:Drivers/STM32C0xx_HAL_Driver/Src/stm32c0xx_hal_rcc.c ****   /* Get the LSI configuration -----------------------------------------------*/
 967:Drivers/STM32C0xx_HAL_Driver/Src/stm32c0xx_hal_rcc.c ****   RCC_OscInitStruct->LSIState = regval & RCC_CSR2_LSION;
 1644              		.loc 1 967 3 is_stmt 1 view .LVU489
 1645              		.loc 1 967 40 is_stmt 0 view .LVU490
 1646 0036 0123     		movs	r3, #1
 1647 0038 1340     		ands	r3, r2
 1648              		.loc 1 967 31 view .LVU491
 1649 003a 8361     		str	r3, [r0, #24]
 968:Drivers/STM32C0xx_HAL_Driver/Src/stm32c0xx_hal_rcc.c **** 
 969:Drivers/STM32C0xx_HAL_Driver/Src/stm32c0xx_hal_rcc.c **** }
 1650              		.loc 1 969 1 view .LVU492
 1651              		@ sp needed
 1652 003c 10BD     		pop	{r4, pc}
 1653              	.L138:
 1654 003e C046     		.align	2
 1655              	.L137:
 1656 0040 00100240 		.word	1073876992
 1657              		.cfi_endproc
 1658              	.LFE221:
 1660              		.section	.text.HAL_RCC_GetClockConfig,"ax",%progbits
 1661              		.align	1
 1662              		.global	HAL_RCC_GetClockConfig
 1663              		.syntax unified
 1664              		.code	16
 1665              		.thumb_func
 1667              	HAL_RCC_GetClockConfig:
 1668              	.LVL116:
 1669              	.LFB222:
 970:Drivers/STM32C0xx_HAL_Driver/Src/stm32c0xx_hal_rcc.c **** 
 971:Drivers/STM32C0xx_HAL_Driver/Src/stm32c0xx_hal_rcc.c **** /**
 972:Drivers/STM32C0xx_HAL_Driver/Src/stm32c0xx_hal_rcc.c ****   * @brief  Configure the RCC_ClkInitStruct according to the internal
 973:Drivers/STM32C0xx_HAL_Driver/Src/stm32c0xx_hal_rcc.c ****   *         RCC configuration registers.
ARM GAS  /var/folders/nl/kwfz41d55ync1k9vlz8wmkc80000gn/T//ccPpmmCA.s 			page 73


 974:Drivers/STM32C0xx_HAL_Driver/Src/stm32c0xx_hal_rcc.c ****   * @param  RCC_ClkInitStruct Pointer to a @ref RCC_ClkInitTypeDef structure that
 975:Drivers/STM32C0xx_HAL_Driver/Src/stm32c0xx_hal_rcc.c ****   *                           will be configured.
 976:Drivers/STM32C0xx_HAL_Driver/Src/stm32c0xx_hal_rcc.c ****   * @param  pFLatency         Pointer on the Flash Latency.
 977:Drivers/STM32C0xx_HAL_Driver/Src/stm32c0xx_hal_rcc.c ****   * @retval None
 978:Drivers/STM32C0xx_HAL_Driver/Src/stm32c0xx_hal_rcc.c ****   */
 979:Drivers/STM32C0xx_HAL_Driver/Src/stm32c0xx_hal_rcc.c **** void HAL_RCC_GetClockConfig(RCC_ClkInitTypeDef  *RCC_ClkInitStruct, uint32_t *pFLatency)
 980:Drivers/STM32C0xx_HAL_Driver/Src/stm32c0xx_hal_rcc.c **** {
 1670              		.loc 1 980 1 is_stmt 1 view -0
 1671              		.cfi_startproc
 1672              		@ args = 0, pretend = 0, frame = 0
 1673              		@ frame_needed = 0, uses_anonymous_args = 0
 1674              		.loc 1 980 1 is_stmt 0 view .LVU494
 1675 0000 30B5     		push	{r4, r5, lr}
 1676              	.LCFI8:
 1677              		.cfi_def_cfa_offset 12
 1678              		.cfi_offset 4, -12
 1679              		.cfi_offset 5, -8
 1680              		.cfi_offset 14, -4
 981:Drivers/STM32C0xx_HAL_Driver/Src/stm32c0xx_hal_rcc.c ****   /* Check the parameters */
 982:Drivers/STM32C0xx_HAL_Driver/Src/stm32c0xx_hal_rcc.c ****   assert_param(RCC_ClkInitStruct != (void *)NULL);
 1681              		.loc 1 982 3 is_stmt 1 view .LVU495
 983:Drivers/STM32C0xx_HAL_Driver/Src/stm32c0xx_hal_rcc.c ****   assert_param(pFLatency != (void *)NULL);
 1682              		.loc 1 983 3 view .LVU496
 984:Drivers/STM32C0xx_HAL_Driver/Src/stm32c0xx_hal_rcc.c **** 
 985:Drivers/STM32C0xx_HAL_Driver/Src/stm32c0xx_hal_rcc.c ****   /* Set all possible values for the Clock type parameter --------------------*/
 986:Drivers/STM32C0xx_HAL_Driver/Src/stm32c0xx_hal_rcc.c ****   RCC_ClkInitStruct->ClockType = RCC_CLOCKTYPE_SYSCLK | RCC_CLOCKTYPE_HCLK | RCC_CLOCKTYPE_PCLK1;
 1683              		.loc 1 986 3 view .LVU497
 1684              		.loc 1 986 32 is_stmt 0 view .LVU498
 1685 0002 0723     		movs	r3, #7
 1686 0004 0360     		str	r3, [r0]
 987:Drivers/STM32C0xx_HAL_Driver/Src/stm32c0xx_hal_rcc.c **** 
 988:Drivers/STM32C0xx_HAL_Driver/Src/stm32c0xx_hal_rcc.c ****   /* Get the SYSCLK configuration --------------------------------------------*/
 989:Drivers/STM32C0xx_HAL_Driver/Src/stm32c0xx_hal_rcc.c ****   RCC_ClkInitStruct->SYSCLKSource = (uint32_t)(RCC->CFGR & RCC_CFGR_SW);
 1687              		.loc 1 989 3 is_stmt 1 view .LVU499
 1688              		.loc 1 989 51 is_stmt 0 view .LVU500
 1689 0006 094A     		ldr	r2, .L140
 1690 0008 9468     		ldr	r4, [r2, #8]
 1691              		.loc 1 989 37 view .LVU501
 1692 000a 1C40     		ands	r4, r3
 1693              		.loc 1 989 35 view .LVU502
 1694 000c 4460     		str	r4, [r0, #4]
 990:Drivers/STM32C0xx_HAL_Driver/Src/stm32c0xx_hal_rcc.c **** 
 991:Drivers/STM32C0xx_HAL_Driver/Src/stm32c0xx_hal_rcc.c ****   /* Get the HCLK configuration ----------------------------------------------*/
 992:Drivers/STM32C0xx_HAL_Driver/Src/stm32c0xx_hal_rcc.c ****   RCC_ClkInitStruct->AHBCLKDivider = (uint32_t)(RCC->CFGR & RCC_CFGR_HPRE);
 1695              		.loc 1 992 3 is_stmt 1 view .LVU503
 1696              		.loc 1 992 52 is_stmt 0 view .LVU504
 1697 000e 9468     		ldr	r4, [r2, #8]
 1698              		.loc 1 992 38 view .LVU505
 1699 0010 F025     		movs	r5, #240
 1700 0012 2D01     		lsls	r5, r5, #4
 1701 0014 2C40     		ands	r4, r5
 1702              		.loc 1 992 36 view .LVU506
 1703 0016 C460     		str	r4, [r0, #12]
 993:Drivers/STM32C0xx_HAL_Driver/Src/stm32c0xx_hal_rcc.c **** 
 994:Drivers/STM32C0xx_HAL_Driver/Src/stm32c0xx_hal_rcc.c ****   /* Get the APB1 configuration ----------------------------------------------*/
 995:Drivers/STM32C0xx_HAL_Driver/Src/stm32c0xx_hal_rcc.c ****   RCC_ClkInitStruct->APB1CLKDivider = (uint32_t)(RCC->CFGR & RCC_CFGR_PPRE);
 1704              		.loc 1 995 3 is_stmt 1 view .LVU507
ARM GAS  /var/folders/nl/kwfz41d55ync1k9vlz8wmkc80000gn/T//ccPpmmCA.s 			page 74


 1705              		.loc 1 995 53 is_stmt 0 view .LVU508
 1706 0018 9268     		ldr	r2, [r2, #8]
 1707              		.loc 1 995 39 view .LVU509
 1708 001a E024     		movs	r4, #224
 1709 001c E401     		lsls	r4, r4, #7
 1710 001e 2240     		ands	r2, r4
 1711              		.loc 1 995 37 view .LVU510
 1712 0020 0261     		str	r2, [r0, #16]
 996:Drivers/STM32C0xx_HAL_Driver/Src/stm32c0xx_hal_rcc.c **** 
 997:Drivers/STM32C0xx_HAL_Driver/Src/stm32c0xx_hal_rcc.c **** 
 998:Drivers/STM32C0xx_HAL_Driver/Src/stm32c0xx_hal_rcc.c ****   /* Get the Flash Wait State (Latency) configuration ------------------------*/
 999:Drivers/STM32C0xx_HAL_Driver/Src/stm32c0xx_hal_rcc.c ****   *pFLatency = (uint32_t)(FLASH->ACR & FLASH_ACR_LATENCY);
 1713              		.loc 1 999 3 is_stmt 1 view .LVU511
 1714              		.loc 1 999 32 is_stmt 0 view .LVU512
 1715 0022 034A     		ldr	r2, .L140+4
 1716 0024 1268     		ldr	r2, [r2]
 1717              		.loc 1 999 16 view .LVU513
 1718 0026 1340     		ands	r3, r2
 1719              		.loc 1 999 14 view .LVU514
 1720 0028 0B60     		str	r3, [r1]
1000:Drivers/STM32C0xx_HAL_Driver/Src/stm32c0xx_hal_rcc.c **** }
 1721              		.loc 1 1000 1 view .LVU515
 1722              		@ sp needed
 1723 002a 30BD     		pop	{r4, r5, pc}
 1724              	.L141:
 1725              		.align	2
 1726              	.L140:
 1727 002c 00100240 		.word	1073876992
 1728 0030 00200240 		.word	1073881088
 1729              		.cfi_endproc
 1730              	.LFE222:
 1732              		.section	.text.HAL_RCC_EnableCSS,"ax",%progbits
 1733              		.align	1
 1734              		.global	HAL_RCC_EnableCSS
 1735              		.syntax unified
 1736              		.code	16
 1737              		.thumb_func
 1739              	HAL_RCC_EnableCSS:
 1740              	.LFB223:
1001:Drivers/STM32C0xx_HAL_Driver/Src/stm32c0xx_hal_rcc.c **** 
1002:Drivers/STM32C0xx_HAL_Driver/Src/stm32c0xx_hal_rcc.c **** /**
1003:Drivers/STM32C0xx_HAL_Driver/Src/stm32c0xx_hal_rcc.c ****   * @brief  Enable the Clock Security System.
1004:Drivers/STM32C0xx_HAL_Driver/Src/stm32c0xx_hal_rcc.c ****   * @note   If a failure is detected on the HSE oscillator clock, this oscillator
1005:Drivers/STM32C0xx_HAL_Driver/Src/stm32c0xx_hal_rcc.c ****   *         is automatically disabled and an interrupt is generated to inform the
1006:Drivers/STM32C0xx_HAL_Driver/Src/stm32c0xx_hal_rcc.c ****   *         software about the failure (Clock Security System Interrupt, CSSI),
1007:Drivers/STM32C0xx_HAL_Driver/Src/stm32c0xx_hal_rcc.c ****   *         allowing the MCU to perform rescue operations. The CSSI is linked to
1008:Drivers/STM32C0xx_HAL_Driver/Src/stm32c0xx_hal_rcc.c ****   *         the Cortex-M0+ NMI (Non-Maskable Interrupt) exception vector.
1009:Drivers/STM32C0xx_HAL_Driver/Src/stm32c0xx_hal_rcc.c ****   * @note   The Clock Security System can only be cleared by reset.
1010:Drivers/STM32C0xx_HAL_Driver/Src/stm32c0xx_hal_rcc.c ****   * @retval None
1011:Drivers/STM32C0xx_HAL_Driver/Src/stm32c0xx_hal_rcc.c ****   */
1012:Drivers/STM32C0xx_HAL_Driver/Src/stm32c0xx_hal_rcc.c **** void HAL_RCC_EnableCSS(void)
1013:Drivers/STM32C0xx_HAL_Driver/Src/stm32c0xx_hal_rcc.c **** {
 1741              		.loc 1 1013 1 is_stmt 1 view -0
 1742              		.cfi_startproc
 1743              		@ args = 0, pretend = 0, frame = 0
 1744              		@ frame_needed = 0, uses_anonymous_args = 0
 1745              		@ link register save eliminated.
ARM GAS  /var/folders/nl/kwfz41d55ync1k9vlz8wmkc80000gn/T//ccPpmmCA.s 			page 75


1014:Drivers/STM32C0xx_HAL_Driver/Src/stm32c0xx_hal_rcc.c ****   SET_BIT(RCC->CR, RCC_CR_CSSON) ;
 1746              		.loc 1 1014 3 view .LVU517
 1747 0000 034A     		ldr	r2, .L143
 1748 0002 1168     		ldr	r1, [r2]
 1749 0004 8023     		movs	r3, #128
 1750 0006 1B03     		lsls	r3, r3, #12
 1751 0008 0B43     		orrs	r3, r1
 1752 000a 1360     		str	r3, [r2]
1015:Drivers/STM32C0xx_HAL_Driver/Src/stm32c0xx_hal_rcc.c **** }
 1753              		.loc 1 1015 1 is_stmt 0 view .LVU518
 1754              		@ sp needed
 1755 000c 7047     		bx	lr
 1756              	.L144:
 1757 000e C046     		.align	2
 1758              	.L143:
 1759 0010 00100240 		.word	1073876992
 1760              		.cfi_endproc
 1761              	.LFE223:
 1763              		.section	.text.HAL_RCC_EnableLSECSS,"ax",%progbits
 1764              		.align	1
 1765              		.global	HAL_RCC_EnableLSECSS
 1766              		.syntax unified
 1767              		.code	16
 1768              		.thumb_func
 1770              	HAL_RCC_EnableLSECSS:
 1771              	.LFB224:
1016:Drivers/STM32C0xx_HAL_Driver/Src/stm32c0xx_hal_rcc.c **** 
1017:Drivers/STM32C0xx_HAL_Driver/Src/stm32c0xx_hal_rcc.c **** /**
1018:Drivers/STM32C0xx_HAL_Driver/Src/stm32c0xx_hal_rcc.c ****   * @brief  Enable the LSE Clock Security System.
1019:Drivers/STM32C0xx_HAL_Driver/Src/stm32c0xx_hal_rcc.c ****   * @note   If a failure is detected on the LSE oscillator clock, this oscillator
1020:Drivers/STM32C0xx_HAL_Driver/Src/stm32c0xx_hal_rcc.c ****   *         is automatically disabled and an interrupt is generated to inform the
1021:Drivers/STM32C0xx_HAL_Driver/Src/stm32c0xx_hal_rcc.c ****   *         software about the failure (Clock Security System Interrupt, CSSI),
1022:Drivers/STM32C0xx_HAL_Driver/Src/stm32c0xx_hal_rcc.c ****   *         allowing the MCU to perform rescue operations. The CSSI is linked to
1023:Drivers/STM32C0xx_HAL_Driver/Src/stm32c0xx_hal_rcc.c ****   *         the Cortex-M0+ NMI (Non-Maskable Interrupt) exception vector.
1024:Drivers/STM32C0xx_HAL_Driver/Src/stm32c0xx_hal_rcc.c ****   * @note   The LSE Clock Security System Detection bit (LSECSSD in CSR1) can only be
1025:Drivers/STM32C0xx_HAL_Driver/Src/stm32c0xx_hal_rcc.c ****   *         cleared by a backup domain reset.
1026:Drivers/STM32C0xx_HAL_Driver/Src/stm32c0xx_hal_rcc.c ****   * @retval None
1027:Drivers/STM32C0xx_HAL_Driver/Src/stm32c0xx_hal_rcc.c ****   */
1028:Drivers/STM32C0xx_HAL_Driver/Src/stm32c0xx_hal_rcc.c **** void HAL_RCC_EnableLSECSS(void)
1029:Drivers/STM32C0xx_HAL_Driver/Src/stm32c0xx_hal_rcc.c **** {
 1772              		.loc 1 1029 1 is_stmt 1 view -0
 1773              		.cfi_startproc
 1774              		@ args = 0, pretend = 0, frame = 0
 1775              		@ frame_needed = 0, uses_anonymous_args = 0
 1776              		@ link register save eliminated.
1030:Drivers/STM32C0xx_HAL_Driver/Src/stm32c0xx_hal_rcc.c ****   SET_BIT(RCC->CSR1, RCC_CSR1_LSECSSON) ;
 1777              		.loc 1 1030 3 view .LVU520
 1778 0000 024A     		ldr	r2, .L146
 1779 0002 D36D     		ldr	r3, [r2, #92]
 1780 0004 2021     		movs	r1, #32
 1781 0006 0B43     		orrs	r3, r1
 1782 0008 D365     		str	r3, [r2, #92]
1031:Drivers/STM32C0xx_HAL_Driver/Src/stm32c0xx_hal_rcc.c **** }
 1783              		.loc 1 1031 1 is_stmt 0 view .LVU521
 1784              		@ sp needed
 1785 000a 7047     		bx	lr
 1786              	.L147:
ARM GAS  /var/folders/nl/kwfz41d55ync1k9vlz8wmkc80000gn/T//ccPpmmCA.s 			page 76


 1787              		.align	2
 1788              	.L146:
 1789 000c 00100240 		.word	1073876992
 1790              		.cfi_endproc
 1791              	.LFE224:
 1793              		.section	.text.HAL_RCC_DisableLSECSS,"ax",%progbits
 1794              		.align	1
 1795              		.global	HAL_RCC_DisableLSECSS
 1796              		.syntax unified
 1797              		.code	16
 1798              		.thumb_func
 1800              	HAL_RCC_DisableLSECSS:
 1801              	.LFB225:
1032:Drivers/STM32C0xx_HAL_Driver/Src/stm32c0xx_hal_rcc.c **** 
1033:Drivers/STM32C0xx_HAL_Driver/Src/stm32c0xx_hal_rcc.c **** /**
1034:Drivers/STM32C0xx_HAL_Driver/Src/stm32c0xx_hal_rcc.c ****   * @brief  Disable the LSE Clock Security System.
1035:Drivers/STM32C0xx_HAL_Driver/Src/stm32c0xx_hal_rcc.c ****   * @note   After LSE failure detection, the software must disable LSECSSON
1036:Drivers/STM32C0xx_HAL_Driver/Src/stm32c0xx_hal_rcc.c ****   * @note   The Clock Security System can only be cleared by reset otherwise.
1037:Drivers/STM32C0xx_HAL_Driver/Src/stm32c0xx_hal_rcc.c ****   * @retval None
1038:Drivers/STM32C0xx_HAL_Driver/Src/stm32c0xx_hal_rcc.c ****   */
1039:Drivers/STM32C0xx_HAL_Driver/Src/stm32c0xx_hal_rcc.c **** void HAL_RCC_DisableLSECSS(void)
1040:Drivers/STM32C0xx_HAL_Driver/Src/stm32c0xx_hal_rcc.c **** {
 1802              		.loc 1 1040 1 is_stmt 1 view -0
 1803              		.cfi_startproc
 1804              		@ args = 0, pretend = 0, frame = 0
 1805              		@ frame_needed = 0, uses_anonymous_args = 0
 1806              		@ link register save eliminated.
1041:Drivers/STM32C0xx_HAL_Driver/Src/stm32c0xx_hal_rcc.c ****   CLEAR_BIT(RCC->CSR1, RCC_CSR1_LSECSSON) ;
 1807              		.loc 1 1041 3 view .LVU523
 1808 0000 024A     		ldr	r2, .L149
 1809 0002 D36D     		ldr	r3, [r2, #92]
 1810 0004 2021     		movs	r1, #32
 1811 0006 8B43     		bics	r3, r1
 1812 0008 D365     		str	r3, [r2, #92]
1042:Drivers/STM32C0xx_HAL_Driver/Src/stm32c0xx_hal_rcc.c **** }
 1813              		.loc 1 1042 1 is_stmt 0 view .LVU524
 1814              		@ sp needed
 1815 000a 7047     		bx	lr
 1816              	.L150:
 1817              		.align	2
 1818              	.L149:
 1819 000c 00100240 		.word	1073876992
 1820              		.cfi_endproc
 1821              	.LFE225:
 1823              		.section	.text.HAL_RCC_CSSCallback,"ax",%progbits
 1824              		.align	1
 1825              		.weak	HAL_RCC_CSSCallback
 1826              		.syntax unified
 1827              		.code	16
 1828              		.thumb_func
 1830              	HAL_RCC_CSSCallback:
 1831              	.LFB227:
1043:Drivers/STM32C0xx_HAL_Driver/Src/stm32c0xx_hal_rcc.c **** 
1044:Drivers/STM32C0xx_HAL_Driver/Src/stm32c0xx_hal_rcc.c **** /**
1045:Drivers/STM32C0xx_HAL_Driver/Src/stm32c0xx_hal_rcc.c ****   * @brief Handle the RCC Clock Security System interrupt request.
1046:Drivers/STM32C0xx_HAL_Driver/Src/stm32c0xx_hal_rcc.c ****   * @note  This API should be called under the NMI_Handler().
1047:Drivers/STM32C0xx_HAL_Driver/Src/stm32c0xx_hal_rcc.c ****   * @retval None
ARM GAS  /var/folders/nl/kwfz41d55ync1k9vlz8wmkc80000gn/T//ccPpmmCA.s 			page 77


1048:Drivers/STM32C0xx_HAL_Driver/Src/stm32c0xx_hal_rcc.c ****   */
1049:Drivers/STM32C0xx_HAL_Driver/Src/stm32c0xx_hal_rcc.c **** void HAL_RCC_NMI_IRQHandler(void)
1050:Drivers/STM32C0xx_HAL_Driver/Src/stm32c0xx_hal_rcc.c **** {
1051:Drivers/STM32C0xx_HAL_Driver/Src/stm32c0xx_hal_rcc.c ****   uint32_t itflag = RCC->CIFR;
1052:Drivers/STM32C0xx_HAL_Driver/Src/stm32c0xx_hal_rcc.c **** 
1053:Drivers/STM32C0xx_HAL_Driver/Src/stm32c0xx_hal_rcc.c ****   /* Clear interrupt flags related to CSS */
1054:Drivers/STM32C0xx_HAL_Driver/Src/stm32c0xx_hal_rcc.c ****   RCC->CICR = (itflag & (RCC_CIFR_CSSF | RCC_CIFR_LSECSSF));
1055:Drivers/STM32C0xx_HAL_Driver/Src/stm32c0xx_hal_rcc.c **** 
1056:Drivers/STM32C0xx_HAL_Driver/Src/stm32c0xx_hal_rcc.c ****   /* Check RCC CSSF interrupt flag  */
1057:Drivers/STM32C0xx_HAL_Driver/Src/stm32c0xx_hal_rcc.c ****   if ((itflag & RCC_CIFR_CSSF) != 0x00u)
1058:Drivers/STM32C0xx_HAL_Driver/Src/stm32c0xx_hal_rcc.c ****   {
1059:Drivers/STM32C0xx_HAL_Driver/Src/stm32c0xx_hal_rcc.c ****     /* RCC Clock Security System interrupt user callback */
1060:Drivers/STM32C0xx_HAL_Driver/Src/stm32c0xx_hal_rcc.c ****     HAL_RCC_CSSCallback();
1061:Drivers/STM32C0xx_HAL_Driver/Src/stm32c0xx_hal_rcc.c ****   }
1062:Drivers/STM32C0xx_HAL_Driver/Src/stm32c0xx_hal_rcc.c **** 
1063:Drivers/STM32C0xx_HAL_Driver/Src/stm32c0xx_hal_rcc.c ****   /* Check RCC LSECSSF interrupt flag  */
1064:Drivers/STM32C0xx_HAL_Driver/Src/stm32c0xx_hal_rcc.c ****   if ((itflag & RCC_CIFR_LSECSSF) != 0x00u)
1065:Drivers/STM32C0xx_HAL_Driver/Src/stm32c0xx_hal_rcc.c ****   {
1066:Drivers/STM32C0xx_HAL_Driver/Src/stm32c0xx_hal_rcc.c ****     /* RCC Clock Security System interrupt user callback */
1067:Drivers/STM32C0xx_HAL_Driver/Src/stm32c0xx_hal_rcc.c ****     HAL_RCC_LSECSSCallback();
1068:Drivers/STM32C0xx_HAL_Driver/Src/stm32c0xx_hal_rcc.c ****   }
1069:Drivers/STM32C0xx_HAL_Driver/Src/stm32c0xx_hal_rcc.c **** }
1070:Drivers/STM32C0xx_HAL_Driver/Src/stm32c0xx_hal_rcc.c **** 
1071:Drivers/STM32C0xx_HAL_Driver/Src/stm32c0xx_hal_rcc.c **** /**
1072:Drivers/STM32C0xx_HAL_Driver/Src/stm32c0xx_hal_rcc.c ****   * @brief Handle the RCC HSE Clock Security System interrupt callback.
1073:Drivers/STM32C0xx_HAL_Driver/Src/stm32c0xx_hal_rcc.c ****   * @retval none
1074:Drivers/STM32C0xx_HAL_Driver/Src/stm32c0xx_hal_rcc.c ****   */
1075:Drivers/STM32C0xx_HAL_Driver/Src/stm32c0xx_hal_rcc.c **** __weak void HAL_RCC_CSSCallback(void)
1076:Drivers/STM32C0xx_HAL_Driver/Src/stm32c0xx_hal_rcc.c **** {
 1832              		.loc 1 1076 1 is_stmt 1 view -0
 1833              		.cfi_startproc
 1834              		@ args = 0, pretend = 0, frame = 0
 1835              		@ frame_needed = 0, uses_anonymous_args = 0
 1836              		@ link register save eliminated.
1077:Drivers/STM32C0xx_HAL_Driver/Src/stm32c0xx_hal_rcc.c ****   /* NOTE : This function should not be modified, when the callback is needed,
1078:Drivers/STM32C0xx_HAL_Driver/Src/stm32c0xx_hal_rcc.c ****             the @ref HAL_RCC_CSSCallback should be implemented in the user file
1079:Drivers/STM32C0xx_HAL_Driver/Src/stm32c0xx_hal_rcc.c ****    */
1080:Drivers/STM32C0xx_HAL_Driver/Src/stm32c0xx_hal_rcc.c **** }
 1837              		.loc 1 1080 1 view .LVU526
 1838              		@ sp needed
 1839 0000 7047     		bx	lr
 1840              		.cfi_endproc
 1841              	.LFE227:
 1843              		.section	.text.HAL_RCC_LSECSSCallback,"ax",%progbits
 1844              		.align	1
 1845              		.weak	HAL_RCC_LSECSSCallback
 1846              		.syntax unified
 1847              		.code	16
 1848              		.thumb_func
 1850              	HAL_RCC_LSECSSCallback:
 1851              	.LFB228:
1081:Drivers/STM32C0xx_HAL_Driver/Src/stm32c0xx_hal_rcc.c **** 
1082:Drivers/STM32C0xx_HAL_Driver/Src/stm32c0xx_hal_rcc.c **** /**
1083:Drivers/STM32C0xx_HAL_Driver/Src/stm32c0xx_hal_rcc.c ****   * @brief  RCC LSE Clock Security System interrupt callback.
1084:Drivers/STM32C0xx_HAL_Driver/Src/stm32c0xx_hal_rcc.c ****   * @retval none
1085:Drivers/STM32C0xx_HAL_Driver/Src/stm32c0xx_hal_rcc.c ****   */
1086:Drivers/STM32C0xx_HAL_Driver/Src/stm32c0xx_hal_rcc.c **** __weak void HAL_RCC_LSECSSCallback(void)
ARM GAS  /var/folders/nl/kwfz41d55ync1k9vlz8wmkc80000gn/T//ccPpmmCA.s 			page 78


1087:Drivers/STM32C0xx_HAL_Driver/Src/stm32c0xx_hal_rcc.c **** {
 1852              		.loc 1 1087 1 view -0
 1853              		.cfi_startproc
 1854              		@ args = 0, pretend = 0, frame = 0
 1855              		@ frame_needed = 0, uses_anonymous_args = 0
 1856              		@ link register save eliminated.
1088:Drivers/STM32C0xx_HAL_Driver/Src/stm32c0xx_hal_rcc.c ****   /* NOTE : This function should not be modified, when the callback is needed,
1089:Drivers/STM32C0xx_HAL_Driver/Src/stm32c0xx_hal_rcc.c ****             the HAL_RCC_LSECSSCallback should be implemented in the user file
1090:Drivers/STM32C0xx_HAL_Driver/Src/stm32c0xx_hal_rcc.c ****    */
1091:Drivers/STM32C0xx_HAL_Driver/Src/stm32c0xx_hal_rcc.c **** }
 1857              		.loc 1 1091 1 view .LVU528
 1858              		@ sp needed
 1859 0000 7047     		bx	lr
 1860              		.cfi_endproc
 1861              	.LFE228:
 1863              		.section	.text.HAL_RCC_NMI_IRQHandler,"ax",%progbits
 1864              		.align	1
 1865              		.global	HAL_RCC_NMI_IRQHandler
 1866              		.syntax unified
 1867              		.code	16
 1868              		.thumb_func
 1870              	HAL_RCC_NMI_IRQHandler:
 1871              	.LFB226:
1050:Drivers/STM32C0xx_HAL_Driver/Src/stm32c0xx_hal_rcc.c ****   uint32_t itflag = RCC->CIFR;
 1872              		.loc 1 1050 1 view -0
 1873              		.cfi_startproc
 1874              		@ args = 0, pretend = 0, frame = 0
 1875              		@ frame_needed = 0, uses_anonymous_args = 0
 1876 0000 10B5     		push	{r4, lr}
 1877              	.LCFI9:
 1878              		.cfi_def_cfa_offset 8
 1879              		.cfi_offset 4, -8
 1880              		.cfi_offset 14, -4
1051:Drivers/STM32C0xx_HAL_Driver/Src/stm32c0xx_hal_rcc.c **** 
 1881              		.loc 1 1051 3 view .LVU530
1051:Drivers/STM32C0xx_HAL_Driver/Src/stm32c0xx_hal_rcc.c **** 
 1882              		.loc 1 1051 12 is_stmt 0 view .LVU531
 1883 0002 084A     		ldr	r2, .L158
 1884 0004 D469     		ldr	r4, [r2, #28]
 1885              	.LVL117:
1054:Drivers/STM32C0xx_HAL_Driver/Src/stm32c0xx_hal_rcc.c **** 
 1886              		.loc 1 1054 3 is_stmt 1 view .LVU532
1054:Drivers/STM32C0xx_HAL_Driver/Src/stm32c0xx_hal_rcc.c **** 
 1887              		.loc 1 1054 23 is_stmt 0 view .LVU533
 1888 0006 C023     		movs	r3, #192
 1889 0008 9B00     		lsls	r3, r3, #2
 1890 000a 2340     		ands	r3, r4
1054:Drivers/STM32C0xx_HAL_Driver/Src/stm32c0xx_hal_rcc.c **** 
 1891              		.loc 1 1054 13 view .LVU534
 1892 000c 1362     		str	r3, [r2, #32]
1057:Drivers/STM32C0xx_HAL_Driver/Src/stm32c0xx_hal_rcc.c ****   {
 1893              		.loc 1 1057 3 is_stmt 1 view .LVU535
1057:Drivers/STM32C0xx_HAL_Driver/Src/stm32c0xx_hal_rcc.c ****   {
 1894              		.loc 1 1057 6 is_stmt 0 view .LVU536
 1895 000e E305     		lsls	r3, r4, #23
 1896 0010 02D4     		bmi	.L156
 1897              	.L154:
ARM GAS  /var/folders/nl/kwfz41d55ync1k9vlz8wmkc80000gn/T//ccPpmmCA.s 			page 79


1064:Drivers/STM32C0xx_HAL_Driver/Src/stm32c0xx_hal_rcc.c ****   {
 1898              		.loc 1 1064 3 is_stmt 1 view .LVU537
1064:Drivers/STM32C0xx_HAL_Driver/Src/stm32c0xx_hal_rcc.c ****   {
 1899              		.loc 1 1064 6 is_stmt 0 view .LVU538
 1900 0012 A305     		lsls	r3, r4, #22
 1901 0014 03D4     		bmi	.L157
 1902              	.L153:
1069:Drivers/STM32C0xx_HAL_Driver/Src/stm32c0xx_hal_rcc.c **** 
 1903              		.loc 1 1069 1 view .LVU539
 1904              		@ sp needed
 1905              	.LVL118:
1069:Drivers/STM32C0xx_HAL_Driver/Src/stm32c0xx_hal_rcc.c **** 
 1906              		.loc 1 1069 1 view .LVU540
 1907 0016 10BD     		pop	{r4, pc}
 1908              	.LVL119:
 1909              	.L156:
1060:Drivers/STM32C0xx_HAL_Driver/Src/stm32c0xx_hal_rcc.c ****   }
 1910              		.loc 1 1060 5 is_stmt 1 view .LVU541
 1911 0018 FFF7FEFF 		bl	HAL_RCC_CSSCallback
 1912              	.LVL120:
 1913 001c F9E7     		b	.L154
 1914              	.L157:
1067:Drivers/STM32C0xx_HAL_Driver/Src/stm32c0xx_hal_rcc.c ****   }
 1915              		.loc 1 1067 5 view .LVU542
 1916 001e FFF7FEFF 		bl	HAL_RCC_LSECSSCallback
 1917              	.LVL121:
1069:Drivers/STM32C0xx_HAL_Driver/Src/stm32c0xx_hal_rcc.c **** 
 1918              		.loc 1 1069 1 is_stmt 0 view .LVU543
 1919 0022 F8E7     		b	.L153
 1920              	.L159:
 1921              		.align	2
 1922              	.L158:
 1923 0024 00100240 		.word	1073876992
 1924              		.cfi_endproc
 1925              	.LFE226:
 1927              		.text
 1928              	.Letext0:
 1929              		.file 3 "/usr/local/arm-none-eabi/include/machine/_default_types.h"
 1930              		.file 4 "/usr/local/arm-none-eabi/include/sys/_stdint.h"
 1931              		.file 5 "Drivers/CMSIS/Device/ST/STM32C0xx/Include/system_stm32c0xx.h"
 1932              		.file 6 "Drivers/CMSIS/Device/ST/STM32C0xx/Include/stm32c031xx.h"
 1933              		.file 7 "Drivers/CMSIS/Device/ST/STM32C0xx/Include/stm32c0xx.h"
 1934              		.file 8 "Drivers/STM32C0xx_HAL_Driver/Inc/stm32c0xx_hal_def.h"
 1935              		.file 9 "Drivers/STM32C0xx_HAL_Driver/Inc/stm32c0xx_hal_rcc.h"
 1936              		.file 10 "Drivers/STM32C0xx_HAL_Driver/Inc/stm32c0xx_hal_gpio.h"
 1937              		.file 11 "Drivers/STM32C0xx_HAL_Driver/Inc/stm32c0xx_hal.h"
ARM GAS  /var/folders/nl/kwfz41d55ync1k9vlz8wmkc80000gn/T//ccPpmmCA.s 			page 80


DEFINED SYMBOLS
                            *ABS*:0000000000000000 stm32c0xx_hal_rcc.c
/var/folders/nl/kwfz41d55ync1k9vlz8wmkc80000gn/T//ccPpmmCA.s:18     .text.HAL_RCC_DeInit:0000000000000000 $t
/var/folders/nl/kwfz41d55ync1k9vlz8wmkc80000gn/T//ccPpmmCA.s:24     .text.HAL_RCC_DeInit:0000000000000000 HAL_RCC_DeInit
/var/folders/nl/kwfz41d55ync1k9vlz8wmkc80000gn/T//ccPpmmCA.s:193    .text.HAL_RCC_DeInit:00000000000000a4 $d
/var/folders/nl/kwfz41d55ync1k9vlz8wmkc80000gn/T//ccPpmmCA.s:204    .text.HAL_RCC_OscConfig:0000000000000000 $t
/var/folders/nl/kwfz41d55ync1k9vlz8wmkc80000gn/T//ccPpmmCA.s:210    .text.HAL_RCC_OscConfig:0000000000000000 HAL_RCC_OscConfig
/var/folders/nl/kwfz41d55ync1k9vlz8wmkc80000gn/T//ccPpmmCA.s:844    .text.HAL_RCC_OscConfig:0000000000000294 $d
/var/folders/nl/kwfz41d55ync1k9vlz8wmkc80000gn/T//ccPpmmCA.s:859    .text.HAL_RCC_MCOConfig:0000000000000000 $t
/var/folders/nl/kwfz41d55ync1k9vlz8wmkc80000gn/T//ccPpmmCA.s:865    .text.HAL_RCC_MCOConfig:0000000000000000 HAL_RCC_MCOConfig
/var/folders/nl/kwfz41d55ync1k9vlz8wmkc80000gn/T//ccPpmmCA.s:1029   .text.HAL_RCC_MCOConfig:0000000000000080 $d
/var/folders/nl/kwfz41d55ync1k9vlz8wmkc80000gn/T//ccPpmmCA.s:1035   .text.HAL_RCC_GetSysClockFreq:0000000000000000 $t
/var/folders/nl/kwfz41d55ync1k9vlz8wmkc80000gn/T//ccPpmmCA.s:1041   .text.HAL_RCC_GetSysClockFreq:0000000000000000 HAL_RCC_GetSysClockFreq
/var/folders/nl/kwfz41d55ync1k9vlz8wmkc80000gn/T//ccPpmmCA.s:1128   .text.HAL_RCC_GetSysClockFreq:0000000000000054 $d
/var/folders/nl/kwfz41d55ync1k9vlz8wmkc80000gn/T//ccPpmmCA.s:1134   .text.HAL_RCC_ClockConfig:0000000000000000 $t
/var/folders/nl/kwfz41d55ync1k9vlz8wmkc80000gn/T//ccPpmmCA.s:1140   .text.HAL_RCC_ClockConfig:0000000000000000 HAL_RCC_ClockConfig
/var/folders/nl/kwfz41d55ync1k9vlz8wmkc80000gn/T//ccPpmmCA.s:1478   .text.HAL_RCC_ClockConfig:000000000000016c $d
/var/folders/nl/kwfz41d55ync1k9vlz8wmkc80000gn/T//ccPpmmCA.s:1491   .text.HAL_RCC_GetHCLKFreq:0000000000000000 $t
/var/folders/nl/kwfz41d55ync1k9vlz8wmkc80000gn/T//ccPpmmCA.s:1497   .text.HAL_RCC_GetHCLKFreq:0000000000000000 HAL_RCC_GetHCLKFreq
/var/folders/nl/kwfz41d55ync1k9vlz8wmkc80000gn/T//ccPpmmCA.s:1514   .text.HAL_RCC_GetHCLKFreq:0000000000000008 $d
/var/folders/nl/kwfz41d55ync1k9vlz8wmkc80000gn/T//ccPpmmCA.s:1519   .text.HAL_RCC_GetPCLK1Freq:0000000000000000 $t
/var/folders/nl/kwfz41d55ync1k9vlz8wmkc80000gn/T//ccPpmmCA.s:1525   .text.HAL_RCC_GetPCLK1Freq:0000000000000000 HAL_RCC_GetPCLK1Freq
/var/folders/nl/kwfz41d55ync1k9vlz8wmkc80000gn/T//ccPpmmCA.s:1562   .text.HAL_RCC_GetPCLK1Freq:0000000000000020 $d
/var/folders/nl/kwfz41d55ync1k9vlz8wmkc80000gn/T//ccPpmmCA.s:1568   .text.HAL_RCC_GetOscConfig:0000000000000000 $t
/var/folders/nl/kwfz41d55ync1k9vlz8wmkc80000gn/T//ccPpmmCA.s:1574   .text.HAL_RCC_GetOscConfig:0000000000000000 HAL_RCC_GetOscConfig
/var/folders/nl/kwfz41d55ync1k9vlz8wmkc80000gn/T//ccPpmmCA.s:1656   .text.HAL_RCC_GetOscConfig:0000000000000040 $d
/var/folders/nl/kwfz41d55ync1k9vlz8wmkc80000gn/T//ccPpmmCA.s:1661   .text.HAL_RCC_GetClockConfig:0000000000000000 $t
/var/folders/nl/kwfz41d55ync1k9vlz8wmkc80000gn/T//ccPpmmCA.s:1667   .text.HAL_RCC_GetClockConfig:0000000000000000 HAL_RCC_GetClockConfig
/var/folders/nl/kwfz41d55ync1k9vlz8wmkc80000gn/T//ccPpmmCA.s:1727   .text.HAL_RCC_GetClockConfig:000000000000002c $d
/var/folders/nl/kwfz41d55ync1k9vlz8wmkc80000gn/T//ccPpmmCA.s:1733   .text.HAL_RCC_EnableCSS:0000000000000000 $t
/var/folders/nl/kwfz41d55ync1k9vlz8wmkc80000gn/T//ccPpmmCA.s:1739   .text.HAL_RCC_EnableCSS:0000000000000000 HAL_RCC_EnableCSS
/var/folders/nl/kwfz41d55ync1k9vlz8wmkc80000gn/T//ccPpmmCA.s:1759   .text.HAL_RCC_EnableCSS:0000000000000010 $d
/var/folders/nl/kwfz41d55ync1k9vlz8wmkc80000gn/T//ccPpmmCA.s:1764   .text.HAL_RCC_EnableLSECSS:0000000000000000 $t
/var/folders/nl/kwfz41d55ync1k9vlz8wmkc80000gn/T//ccPpmmCA.s:1770   .text.HAL_RCC_EnableLSECSS:0000000000000000 HAL_RCC_EnableLSECSS
/var/folders/nl/kwfz41d55ync1k9vlz8wmkc80000gn/T//ccPpmmCA.s:1789   .text.HAL_RCC_EnableLSECSS:000000000000000c $d
/var/folders/nl/kwfz41d55ync1k9vlz8wmkc80000gn/T//ccPpmmCA.s:1794   .text.HAL_RCC_DisableLSECSS:0000000000000000 $t
/var/folders/nl/kwfz41d55ync1k9vlz8wmkc80000gn/T//ccPpmmCA.s:1800   .text.HAL_RCC_DisableLSECSS:0000000000000000 HAL_RCC_DisableLSECSS
/var/folders/nl/kwfz41d55ync1k9vlz8wmkc80000gn/T//ccPpmmCA.s:1819   .text.HAL_RCC_DisableLSECSS:000000000000000c $d
/var/folders/nl/kwfz41d55ync1k9vlz8wmkc80000gn/T//ccPpmmCA.s:1824   .text.HAL_RCC_CSSCallback:0000000000000000 $t
/var/folders/nl/kwfz41d55ync1k9vlz8wmkc80000gn/T//ccPpmmCA.s:1830   .text.HAL_RCC_CSSCallback:0000000000000000 HAL_RCC_CSSCallback
/var/folders/nl/kwfz41d55ync1k9vlz8wmkc80000gn/T//ccPpmmCA.s:1844   .text.HAL_RCC_LSECSSCallback:0000000000000000 $t
/var/folders/nl/kwfz41d55ync1k9vlz8wmkc80000gn/T//ccPpmmCA.s:1850   .text.HAL_RCC_LSECSSCallback:0000000000000000 HAL_RCC_LSECSSCallback
/var/folders/nl/kwfz41d55ync1k9vlz8wmkc80000gn/T//ccPpmmCA.s:1864   .text.HAL_RCC_NMI_IRQHandler:0000000000000000 $t
/var/folders/nl/kwfz41d55ync1k9vlz8wmkc80000gn/T//ccPpmmCA.s:1870   .text.HAL_RCC_NMI_IRQHandler:0000000000000000 HAL_RCC_NMI_IRQHandler
/var/folders/nl/kwfz41d55ync1k9vlz8wmkc80000gn/T//ccPpmmCA.s:1923   .text.HAL_RCC_NMI_IRQHandler:0000000000000024 $d

UNDEFINED SYMBOLS
HAL_GetTick
HAL_InitTick
SystemCoreClock
uwTickPrio
HAL_GPIO_Init
AHBPrescTable
APBPrescTable
