ARM GAS  /var/folders/nl/kwfz41d55ync1k9vlz8wmkc80000gn/T//ccmKWUpy.s 			page 1


   1              		.cpu cortex-m0plus
   2              		.arch armv6s-m
   3              		.fpu softvfp
   4              		.eabi_attribute 20, 1
   5              		.eabi_attribute 21, 1
   6              		.eabi_attribute 23, 3
   7              		.eabi_attribute 24, 1
   8              		.eabi_attribute 25, 1
   9              		.eabi_attribute 26, 1
  10              		.eabi_attribute 30, 1
  11              		.eabi_attribute 34, 0
  12              		.eabi_attribute 18, 4
  13              		.file	"stm32c0xx_hal_gpio.c"
  14              		.text
  15              	.Ltext0:
  16              		.cfi_sections	.debug_frame
  17              		.section	.text.HAL_GPIO_Init,"ax",%progbits
  18              		.align	1
  19              		.global	HAL_GPIO_Init
  20              		.syntax unified
  21              		.code	16
  22              		.thumb_func
  24              	HAL_GPIO_Init:
  25              	.LVL0:
  26              	.LFB214:
  27              		.file 1 "Drivers/STM32C0xx_HAL_Driver/Src/stm32c0xx_hal_gpio.c"
   1:Drivers/STM32C0xx_HAL_Driver/Src/stm32c0xx_hal_gpio.c **** /**
   2:Drivers/STM32C0xx_HAL_Driver/Src/stm32c0xx_hal_gpio.c ****   ******************************************************************************
   3:Drivers/STM32C0xx_HAL_Driver/Src/stm32c0xx_hal_gpio.c ****   * @file    stm32c0xx_hal_gpio.c
   4:Drivers/STM32C0xx_HAL_Driver/Src/stm32c0xx_hal_gpio.c ****   * @author  MCD Application Team
   5:Drivers/STM32C0xx_HAL_Driver/Src/stm32c0xx_hal_gpio.c ****   * @brief   GPIO HAL module driver.
   6:Drivers/STM32C0xx_HAL_Driver/Src/stm32c0xx_hal_gpio.c ****   *          This file provides firmware functions to manage the following
   7:Drivers/STM32C0xx_HAL_Driver/Src/stm32c0xx_hal_gpio.c ****   *          functionalities of the General Purpose Input/Output (GPIO) peripheral:
   8:Drivers/STM32C0xx_HAL_Driver/Src/stm32c0xx_hal_gpio.c ****   *           + Initialization and de-initialization functions
   9:Drivers/STM32C0xx_HAL_Driver/Src/stm32c0xx_hal_gpio.c ****   *           + IO operation functions
  10:Drivers/STM32C0xx_HAL_Driver/Src/stm32c0xx_hal_gpio.c ****   ******************************************************************************
  11:Drivers/STM32C0xx_HAL_Driver/Src/stm32c0xx_hal_gpio.c ****   * @attention
  12:Drivers/STM32C0xx_HAL_Driver/Src/stm32c0xx_hal_gpio.c ****   *
  13:Drivers/STM32C0xx_HAL_Driver/Src/stm32c0xx_hal_gpio.c ****   * Copyright (c) 2022 STMicroelectronics.
  14:Drivers/STM32C0xx_HAL_Driver/Src/stm32c0xx_hal_gpio.c ****   * All rights reserved.
  15:Drivers/STM32C0xx_HAL_Driver/Src/stm32c0xx_hal_gpio.c ****   *
  16:Drivers/STM32C0xx_HAL_Driver/Src/stm32c0xx_hal_gpio.c ****   * This software is licensed under terms that can be found in the LICENSE file
  17:Drivers/STM32C0xx_HAL_Driver/Src/stm32c0xx_hal_gpio.c ****   * in the root directory of this software component.
  18:Drivers/STM32C0xx_HAL_Driver/Src/stm32c0xx_hal_gpio.c ****   * If no LICENSE file comes with this software, it is provided AS-IS.
  19:Drivers/STM32C0xx_HAL_Driver/Src/stm32c0xx_hal_gpio.c ****   *
  20:Drivers/STM32C0xx_HAL_Driver/Src/stm32c0xx_hal_gpio.c ****   ******************************************************************************
  21:Drivers/STM32C0xx_HAL_Driver/Src/stm32c0xx_hal_gpio.c ****   @verbatim
  22:Drivers/STM32C0xx_HAL_Driver/Src/stm32c0xx_hal_gpio.c ****   ==============================================================================
  23:Drivers/STM32C0xx_HAL_Driver/Src/stm32c0xx_hal_gpio.c ****                     ##### GPIO Peripheral features #####
  24:Drivers/STM32C0xx_HAL_Driver/Src/stm32c0xx_hal_gpio.c ****   ==============================================================================
  25:Drivers/STM32C0xx_HAL_Driver/Src/stm32c0xx_hal_gpio.c ****   [..]
  26:Drivers/STM32C0xx_HAL_Driver/Src/stm32c0xx_hal_gpio.c ****     (+) Each port bit of the general-purpose I/O (GPIO) ports can be individually
  27:Drivers/STM32C0xx_HAL_Driver/Src/stm32c0xx_hal_gpio.c ****         configured by software in several modes:
  28:Drivers/STM32C0xx_HAL_Driver/Src/stm32c0xx_hal_gpio.c ****         (++) Input mode
  29:Drivers/STM32C0xx_HAL_Driver/Src/stm32c0xx_hal_gpio.c ****         (++) Analog mode
  30:Drivers/STM32C0xx_HAL_Driver/Src/stm32c0xx_hal_gpio.c ****         (++) Output mode
  31:Drivers/STM32C0xx_HAL_Driver/Src/stm32c0xx_hal_gpio.c ****         (++) Alternate function mode
ARM GAS  /var/folders/nl/kwfz41d55ync1k9vlz8wmkc80000gn/T//ccmKWUpy.s 			page 2


  32:Drivers/STM32C0xx_HAL_Driver/Src/stm32c0xx_hal_gpio.c ****         (++) External interrupt/event lines
  33:Drivers/STM32C0xx_HAL_Driver/Src/stm32c0xx_hal_gpio.c **** 
  34:Drivers/STM32C0xx_HAL_Driver/Src/stm32c0xx_hal_gpio.c ****     (+) During and just after reset, the alternate functions and external interrupt
  35:Drivers/STM32C0xx_HAL_Driver/Src/stm32c0xx_hal_gpio.c ****         lines are not active and the I/O ports are configured in input floating mode.
  36:Drivers/STM32C0xx_HAL_Driver/Src/stm32c0xx_hal_gpio.c **** 
  37:Drivers/STM32C0xx_HAL_Driver/Src/stm32c0xx_hal_gpio.c ****     (+) All GPIO pins have weak internal pull-up and pull-down resistors, which can be
  38:Drivers/STM32C0xx_HAL_Driver/Src/stm32c0xx_hal_gpio.c ****         activated or not.
  39:Drivers/STM32C0xx_HAL_Driver/Src/stm32c0xx_hal_gpio.c **** 
  40:Drivers/STM32C0xx_HAL_Driver/Src/stm32c0xx_hal_gpio.c ****     (+) In Output or Alternate mode, each IO can be configured on open-drain or push-pull
  41:Drivers/STM32C0xx_HAL_Driver/Src/stm32c0xx_hal_gpio.c ****         type and the IO speed can be selected depending on the VDD value.
  42:Drivers/STM32C0xx_HAL_Driver/Src/stm32c0xx_hal_gpio.c **** 
  43:Drivers/STM32C0xx_HAL_Driver/Src/stm32c0xx_hal_gpio.c ****     (+) The microcontroller IO pins are connected to onboard peripherals/modules through a
  44:Drivers/STM32C0xx_HAL_Driver/Src/stm32c0xx_hal_gpio.c ****         multiplexer that allows only one peripheral alternate function (AF) connected
  45:Drivers/STM32C0xx_HAL_Driver/Src/stm32c0xx_hal_gpio.c ****        to an IO pin at a time. In this way, there can be no conflict between peripherals
  46:Drivers/STM32C0xx_HAL_Driver/Src/stm32c0xx_hal_gpio.c ****        sharing the same IO pin.
  47:Drivers/STM32C0xx_HAL_Driver/Src/stm32c0xx_hal_gpio.c **** 
  48:Drivers/STM32C0xx_HAL_Driver/Src/stm32c0xx_hal_gpio.c ****     (+) All ports have external interrupt/event capability. To use external interrupt
  49:Drivers/STM32C0xx_HAL_Driver/Src/stm32c0xx_hal_gpio.c ****         lines, the port must be configured in input mode. All available GPIO pins are
  50:Drivers/STM32C0xx_HAL_Driver/Src/stm32c0xx_hal_gpio.c ****         connected to the 16 external interrupt/event lines from EXTI0 to EXTI15.
  51:Drivers/STM32C0xx_HAL_Driver/Src/stm32c0xx_hal_gpio.c **** 
  52:Drivers/STM32C0xx_HAL_Driver/Src/stm32c0xx_hal_gpio.c ****     (+) The external interrupt/event controller consists of up to 28 edge detectors
  53:Drivers/STM32C0xx_HAL_Driver/Src/stm32c0xx_hal_gpio.c ****         (16 lines are connected to GPIO) for generating event/interrupt requests (each
  54:Drivers/STM32C0xx_HAL_Driver/Src/stm32c0xx_hal_gpio.c ****         input line can be independently configured to select the type (interrupt or event)
  55:Drivers/STM32C0xx_HAL_Driver/Src/stm32c0xx_hal_gpio.c ****         and the corresponding trigger event (rising or falling or both). Each line can
  56:Drivers/STM32C0xx_HAL_Driver/Src/stm32c0xx_hal_gpio.c ****         also be masked independently.
  57:Drivers/STM32C0xx_HAL_Driver/Src/stm32c0xx_hal_gpio.c **** 
  58:Drivers/STM32C0xx_HAL_Driver/Src/stm32c0xx_hal_gpio.c ****                      ##### How to use this driver #####
  59:Drivers/STM32C0xx_HAL_Driver/Src/stm32c0xx_hal_gpio.c ****   ==============================================================================
  60:Drivers/STM32C0xx_HAL_Driver/Src/stm32c0xx_hal_gpio.c ****   [..]
  61:Drivers/STM32C0xx_HAL_Driver/Src/stm32c0xx_hal_gpio.c ****     (#) Enable the GPIO AHB clock using the following function: __HAL_RCC_GPIOx_CLK_ENABLE().
  62:Drivers/STM32C0xx_HAL_Driver/Src/stm32c0xx_hal_gpio.c **** 
  63:Drivers/STM32C0xx_HAL_Driver/Src/stm32c0xx_hal_gpio.c ****     (#) Configure the GPIO pin(s) using HAL_GPIO_Init().
  64:Drivers/STM32C0xx_HAL_Driver/Src/stm32c0xx_hal_gpio.c ****         (++) Configure the IO mode using "Mode" member from GPIO_InitTypeDef structure
  65:Drivers/STM32C0xx_HAL_Driver/Src/stm32c0xx_hal_gpio.c ****         (++) Activate Pull-up, Pull-down resistor using "Pull" member from GPIO_InitTypeDef
  66:Drivers/STM32C0xx_HAL_Driver/Src/stm32c0xx_hal_gpio.c ****              structure.
  67:Drivers/STM32C0xx_HAL_Driver/Src/stm32c0xx_hal_gpio.c ****         (++) In case of Output or alternate function mode selection: the speed is
  68:Drivers/STM32C0xx_HAL_Driver/Src/stm32c0xx_hal_gpio.c ****              configured through "Speed" member from GPIO_InitTypeDef structure.
  69:Drivers/STM32C0xx_HAL_Driver/Src/stm32c0xx_hal_gpio.c ****         (++) In alternate mode is selection, the alternate function connected to the IO
  70:Drivers/STM32C0xx_HAL_Driver/Src/stm32c0xx_hal_gpio.c ****              is configured through "Alternate" member from GPIO_InitTypeDef structure.
  71:Drivers/STM32C0xx_HAL_Driver/Src/stm32c0xx_hal_gpio.c ****         (++) Analog mode is required when a pin is to be used as ADC channel
  72:Drivers/STM32C0xx_HAL_Driver/Src/stm32c0xx_hal_gpio.c ****              or DAC output.
  73:Drivers/STM32C0xx_HAL_Driver/Src/stm32c0xx_hal_gpio.c ****         (++) In case of external interrupt/event selection the "Mode" member from
  74:Drivers/STM32C0xx_HAL_Driver/Src/stm32c0xx_hal_gpio.c ****              GPIO_InitTypeDef structure select the type (interrupt or event) and
  75:Drivers/STM32C0xx_HAL_Driver/Src/stm32c0xx_hal_gpio.c ****              the corresponding trigger event (rising or falling or both).
  76:Drivers/STM32C0xx_HAL_Driver/Src/stm32c0xx_hal_gpio.c **** 
  77:Drivers/STM32C0xx_HAL_Driver/Src/stm32c0xx_hal_gpio.c ****     (#) In case of external interrupt/event mode selection, configure NVIC IRQ priority
  78:Drivers/STM32C0xx_HAL_Driver/Src/stm32c0xx_hal_gpio.c ****         mapped to the EXTI line using HAL_NVIC_SetPriority() and enable it using
  79:Drivers/STM32C0xx_HAL_Driver/Src/stm32c0xx_hal_gpio.c ****         HAL_NVIC_EnableIRQ().
  80:Drivers/STM32C0xx_HAL_Driver/Src/stm32c0xx_hal_gpio.c **** 
  81:Drivers/STM32C0xx_HAL_Driver/Src/stm32c0xx_hal_gpio.c ****     (#) To get the level of a pin configured in input mode use HAL_GPIO_ReadPin().
  82:Drivers/STM32C0xx_HAL_Driver/Src/stm32c0xx_hal_gpio.c **** 
  83:Drivers/STM32C0xx_HAL_Driver/Src/stm32c0xx_hal_gpio.c ****     (#) To set/reset the level of a pin configured in output mode use
  84:Drivers/STM32C0xx_HAL_Driver/Src/stm32c0xx_hal_gpio.c ****         HAL_GPIO_WritePin()/HAL_GPIO_TogglePin().
  85:Drivers/STM32C0xx_HAL_Driver/Src/stm32c0xx_hal_gpio.c **** 
  86:Drivers/STM32C0xx_HAL_Driver/Src/stm32c0xx_hal_gpio.c ****     (#) To set the level of several pins and reset level of several other pins in
  87:Drivers/STM32C0xx_HAL_Driver/Src/stm32c0xx_hal_gpio.c ****         same cycle, use HAL_GPIO_WriteMultipleStatePin().
  88:Drivers/STM32C0xx_HAL_Driver/Src/stm32c0xx_hal_gpio.c **** 
ARM GAS  /var/folders/nl/kwfz41d55ync1k9vlz8wmkc80000gn/T//ccmKWUpy.s 			page 3


  89:Drivers/STM32C0xx_HAL_Driver/Src/stm32c0xx_hal_gpio.c ****     (#) To lock pin configuration until next reset use HAL_GPIO_LockPin().
  90:Drivers/STM32C0xx_HAL_Driver/Src/stm32c0xx_hal_gpio.c **** 
  91:Drivers/STM32C0xx_HAL_Driver/Src/stm32c0xx_hal_gpio.c ****     (#) During and just after reset, the alternate functions are not
  92:Drivers/STM32C0xx_HAL_Driver/Src/stm32c0xx_hal_gpio.c ****         active and the GPIO pins are configured in input floating mode (except JTAG
  93:Drivers/STM32C0xx_HAL_Driver/Src/stm32c0xx_hal_gpio.c ****         pins).
  94:Drivers/STM32C0xx_HAL_Driver/Src/stm32c0xx_hal_gpio.c **** 
  95:Drivers/STM32C0xx_HAL_Driver/Src/stm32c0xx_hal_gpio.c ****     (#) The LSE oscillator pins OSC32_IN and OSC32_OUT can be used as general purpose
  96:Drivers/STM32C0xx_HAL_Driver/Src/stm32c0xx_hal_gpio.c ****         (PC14 and PC15, respectively) when the LSE oscillator is off. The LSE has
  97:Drivers/STM32C0xx_HAL_Driver/Src/stm32c0xx_hal_gpio.c ****         priority over the GPIO function.
  98:Drivers/STM32C0xx_HAL_Driver/Src/stm32c0xx_hal_gpio.c **** 
  99:Drivers/STM32C0xx_HAL_Driver/Src/stm32c0xx_hal_gpio.c ****     (#) The HSE oscillator pins OSC_IN/OSC_OUT can be used as
 100:Drivers/STM32C0xx_HAL_Driver/Src/stm32c0xx_hal_gpio.c ****         general purpose PF0 and PF1, respectively, when the HSE oscillator is off.
 101:Drivers/STM32C0xx_HAL_Driver/Src/stm32c0xx_hal_gpio.c ****         The HSE has priority over the GPIO function.
 102:Drivers/STM32C0xx_HAL_Driver/Src/stm32c0xx_hal_gpio.c **** 
 103:Drivers/STM32C0xx_HAL_Driver/Src/stm32c0xx_hal_gpio.c ****   @endverbatim
 104:Drivers/STM32C0xx_HAL_Driver/Src/stm32c0xx_hal_gpio.c ****   ******************************************************************************
 105:Drivers/STM32C0xx_HAL_Driver/Src/stm32c0xx_hal_gpio.c ****   */
 106:Drivers/STM32C0xx_HAL_Driver/Src/stm32c0xx_hal_gpio.c **** 
 107:Drivers/STM32C0xx_HAL_Driver/Src/stm32c0xx_hal_gpio.c **** /* Includes ------------------------------------------------------------------*/
 108:Drivers/STM32C0xx_HAL_Driver/Src/stm32c0xx_hal_gpio.c **** #include "stm32c0xx_hal.h"
 109:Drivers/STM32C0xx_HAL_Driver/Src/stm32c0xx_hal_gpio.c **** 
 110:Drivers/STM32C0xx_HAL_Driver/Src/stm32c0xx_hal_gpio.c **** /** @addtogroup STM32C0xx_HAL_Driver
 111:Drivers/STM32C0xx_HAL_Driver/Src/stm32c0xx_hal_gpio.c ****   * @{
 112:Drivers/STM32C0xx_HAL_Driver/Src/stm32c0xx_hal_gpio.c ****   */
 113:Drivers/STM32C0xx_HAL_Driver/Src/stm32c0xx_hal_gpio.c **** 
 114:Drivers/STM32C0xx_HAL_Driver/Src/stm32c0xx_hal_gpio.c **** /** @defgroup GPIO GPIO
 115:Drivers/STM32C0xx_HAL_Driver/Src/stm32c0xx_hal_gpio.c ****   * @brief GPIO HAL module driver
 116:Drivers/STM32C0xx_HAL_Driver/Src/stm32c0xx_hal_gpio.c ****   * @{
 117:Drivers/STM32C0xx_HAL_Driver/Src/stm32c0xx_hal_gpio.c ****   */
 118:Drivers/STM32C0xx_HAL_Driver/Src/stm32c0xx_hal_gpio.c **** #ifdef HAL_GPIO_MODULE_ENABLED
 119:Drivers/STM32C0xx_HAL_Driver/Src/stm32c0xx_hal_gpio.c **** 
 120:Drivers/STM32C0xx_HAL_Driver/Src/stm32c0xx_hal_gpio.c **** /* Private typedef -----------------------------------------------------------*/
 121:Drivers/STM32C0xx_HAL_Driver/Src/stm32c0xx_hal_gpio.c **** /* Private defines -----------------------------------------------------------*/
 122:Drivers/STM32C0xx_HAL_Driver/Src/stm32c0xx_hal_gpio.c **** /** @defgroup GPIO_Private_Defines GPIO Private Defines
 123:Drivers/STM32C0xx_HAL_Driver/Src/stm32c0xx_hal_gpio.c ****   * @{
 124:Drivers/STM32C0xx_HAL_Driver/Src/stm32c0xx_hal_gpio.c ****   */
 125:Drivers/STM32C0xx_HAL_Driver/Src/stm32c0xx_hal_gpio.c **** #define GPIO_MODE             (0x00000003U)
 126:Drivers/STM32C0xx_HAL_Driver/Src/stm32c0xx_hal_gpio.c **** #define EXTI_MODE             (0x10000000U)
 127:Drivers/STM32C0xx_HAL_Driver/Src/stm32c0xx_hal_gpio.c **** #define GPIO_MODE_IT          (0x00010000U)
 128:Drivers/STM32C0xx_HAL_Driver/Src/stm32c0xx_hal_gpio.c **** #define GPIO_MODE_EVT         (0x00020000U)
 129:Drivers/STM32C0xx_HAL_Driver/Src/stm32c0xx_hal_gpio.c **** #define RISING_EDGE           (0x00100000U)
 130:Drivers/STM32C0xx_HAL_Driver/Src/stm32c0xx_hal_gpio.c **** #define FALLING_EDGE          (0x00200000U)
 131:Drivers/STM32C0xx_HAL_Driver/Src/stm32c0xx_hal_gpio.c **** #define GPIO_OUTPUT_TYPE      (0x00000010U)
 132:Drivers/STM32C0xx_HAL_Driver/Src/stm32c0xx_hal_gpio.c **** #define GPIO_NUMBER           (16U)
 133:Drivers/STM32C0xx_HAL_Driver/Src/stm32c0xx_hal_gpio.c **** 
 134:Drivers/STM32C0xx_HAL_Driver/Src/stm32c0xx_hal_gpio.c **** /**
 135:Drivers/STM32C0xx_HAL_Driver/Src/stm32c0xx_hal_gpio.c ****   * @}
 136:Drivers/STM32C0xx_HAL_Driver/Src/stm32c0xx_hal_gpio.c ****   */
 137:Drivers/STM32C0xx_HAL_Driver/Src/stm32c0xx_hal_gpio.c **** 
 138:Drivers/STM32C0xx_HAL_Driver/Src/stm32c0xx_hal_gpio.c **** /* Private macros ------------------------------------------------------------*/
 139:Drivers/STM32C0xx_HAL_Driver/Src/stm32c0xx_hal_gpio.c **** /* Private variables ---------------------------------------------------------*/
 140:Drivers/STM32C0xx_HAL_Driver/Src/stm32c0xx_hal_gpio.c **** /** @defgroup GPIO_Private_Macros GPIO Private Macros
 141:Drivers/STM32C0xx_HAL_Driver/Src/stm32c0xx_hal_gpio.c ****   * @{
 142:Drivers/STM32C0xx_HAL_Driver/Src/stm32c0xx_hal_gpio.c ****   */
 143:Drivers/STM32C0xx_HAL_Driver/Src/stm32c0xx_hal_gpio.c **** /**
 144:Drivers/STM32C0xx_HAL_Driver/Src/stm32c0xx_hal_gpio.c ****   * @}
 145:Drivers/STM32C0xx_HAL_Driver/Src/stm32c0xx_hal_gpio.c ****   */
ARM GAS  /var/folders/nl/kwfz41d55ync1k9vlz8wmkc80000gn/T//ccmKWUpy.s 			page 4


 146:Drivers/STM32C0xx_HAL_Driver/Src/stm32c0xx_hal_gpio.c **** 
 147:Drivers/STM32C0xx_HAL_Driver/Src/stm32c0xx_hal_gpio.c **** /* Private function prototypes -----------------------------------------------*/
 148:Drivers/STM32C0xx_HAL_Driver/Src/stm32c0xx_hal_gpio.c **** /* Exported functions --------------------------------------------------------*/
 149:Drivers/STM32C0xx_HAL_Driver/Src/stm32c0xx_hal_gpio.c **** 
 150:Drivers/STM32C0xx_HAL_Driver/Src/stm32c0xx_hal_gpio.c **** /** @defgroup GPIO_Exported_Functions GPIO Exported Functions
 151:Drivers/STM32C0xx_HAL_Driver/Src/stm32c0xx_hal_gpio.c ****   * @{
 152:Drivers/STM32C0xx_HAL_Driver/Src/stm32c0xx_hal_gpio.c ****   */
 153:Drivers/STM32C0xx_HAL_Driver/Src/stm32c0xx_hal_gpio.c **** 
 154:Drivers/STM32C0xx_HAL_Driver/Src/stm32c0xx_hal_gpio.c **** /** @defgroup GPIO_Exported_Functions_Group1 Initialization/de-initialization functions
 155:Drivers/STM32C0xx_HAL_Driver/Src/stm32c0xx_hal_gpio.c ****   *  @brief    Initialization and Configuration functions
 156:Drivers/STM32C0xx_HAL_Driver/Src/stm32c0xx_hal_gpio.c ****   *
 157:Drivers/STM32C0xx_HAL_Driver/Src/stm32c0xx_hal_gpio.c **** @verbatim
 158:Drivers/STM32C0xx_HAL_Driver/Src/stm32c0xx_hal_gpio.c ****  ===============================================================================
 159:Drivers/STM32C0xx_HAL_Driver/Src/stm32c0xx_hal_gpio.c ****               ##### Initialization and de-initialization functions #####
 160:Drivers/STM32C0xx_HAL_Driver/Src/stm32c0xx_hal_gpio.c ****  ===============================================================================
 161:Drivers/STM32C0xx_HAL_Driver/Src/stm32c0xx_hal_gpio.c **** 
 162:Drivers/STM32C0xx_HAL_Driver/Src/stm32c0xx_hal_gpio.c **** @endverbatim
 163:Drivers/STM32C0xx_HAL_Driver/Src/stm32c0xx_hal_gpio.c ****   * @{
 164:Drivers/STM32C0xx_HAL_Driver/Src/stm32c0xx_hal_gpio.c ****   */
 165:Drivers/STM32C0xx_HAL_Driver/Src/stm32c0xx_hal_gpio.c **** 
 166:Drivers/STM32C0xx_HAL_Driver/Src/stm32c0xx_hal_gpio.c **** /**
 167:Drivers/STM32C0xx_HAL_Driver/Src/stm32c0xx_hal_gpio.c ****   * @brief  Initialize the GPIOx peripheral according to the specified parameters in the GPIO_Init.
 168:Drivers/STM32C0xx_HAL_Driver/Src/stm32c0xx_hal_gpio.c ****   * @param  GPIOx where x can be (A..F) to select the GPIO peripheral for STM32C0xx family
 169:Drivers/STM32C0xx_HAL_Driver/Src/stm32c0xx_hal_gpio.c ****   * @param  pGPIO_Init pointer to a GPIO_InitTypeDef structure that contains
 170:Drivers/STM32C0xx_HAL_Driver/Src/stm32c0xx_hal_gpio.c ****   *         the configuration information for the specified GPIO peripheral.
 171:Drivers/STM32C0xx_HAL_Driver/Src/stm32c0xx_hal_gpio.c ****   * @retval None
 172:Drivers/STM32C0xx_HAL_Driver/Src/stm32c0xx_hal_gpio.c ****   */
 173:Drivers/STM32C0xx_HAL_Driver/Src/stm32c0xx_hal_gpio.c **** void HAL_GPIO_Init(GPIO_TypeDef  *GPIOx, const GPIO_InitTypeDef *pGPIO_Init)
 174:Drivers/STM32C0xx_HAL_Driver/Src/stm32c0xx_hal_gpio.c **** {
  28              		.loc 1 174 1 view -0
  29              		.cfi_startproc
  30              		@ args = 0, pretend = 0, frame = 0
  31              		@ frame_needed = 0, uses_anonymous_args = 0
  32              		.loc 1 174 1 is_stmt 0 view .LVU1
  33 0000 F0B5     		push	{r4, r5, r6, r7, lr}
  34              	.LCFI0:
  35              		.cfi_def_cfa_offset 20
  36              		.cfi_offset 4, -20
  37              		.cfi_offset 5, -16
  38              		.cfi_offset 6, -12
  39              		.cfi_offset 7, -8
  40              		.cfi_offset 14, -4
  41 0002 D646     		mov	lr, r10
  42 0004 4F46     		mov	r7, r9
  43 0006 4646     		mov	r6, r8
  44 0008 C0B5     		push	{r6, r7, lr}
  45              	.LCFI1:
  46              		.cfi_def_cfa_offset 32
  47              		.cfi_offset 8, -32
  48              		.cfi_offset 9, -28
  49              		.cfi_offset 10, -24
 175:Drivers/STM32C0xx_HAL_Driver/Src/stm32c0xx_hal_gpio.c ****   uint32_t tmp;
  50              		.loc 1 175 3 is_stmt 1 view .LVU2
 176:Drivers/STM32C0xx_HAL_Driver/Src/stm32c0xx_hal_gpio.c ****   uint32_t iocurrent;
  51              		.loc 1 176 3 view .LVU3
 177:Drivers/STM32C0xx_HAL_Driver/Src/stm32c0xx_hal_gpio.c ****   uint32_t position = 0U;
  52              		.loc 1 177 3 view .LVU4
ARM GAS  /var/folders/nl/kwfz41d55ync1k9vlz8wmkc80000gn/T//ccmKWUpy.s 			page 5


  53              	.LVL1:
 178:Drivers/STM32C0xx_HAL_Driver/Src/stm32c0xx_hal_gpio.c **** 
 179:Drivers/STM32C0xx_HAL_Driver/Src/stm32c0xx_hal_gpio.c ****   /* Check the parameters */
 180:Drivers/STM32C0xx_HAL_Driver/Src/stm32c0xx_hal_gpio.c ****   assert_param(IS_GPIO_ALL_INSTANCE(GPIOx));
  54              		.loc 1 180 3 view .LVU5
 181:Drivers/STM32C0xx_HAL_Driver/Src/stm32c0xx_hal_gpio.c ****   assert_param(IS_GPIO_PIN(pGPIO_Init->Pin));
  55              		.loc 1 181 3 view .LVU6
 182:Drivers/STM32C0xx_HAL_Driver/Src/stm32c0xx_hal_gpio.c ****   assert_param(IS_GPIO_MODE(pGPIO_Init->Mode));
  56              		.loc 1 182 3 view .LVU7
 183:Drivers/STM32C0xx_HAL_Driver/Src/stm32c0xx_hal_gpio.c **** 
 184:Drivers/STM32C0xx_HAL_Driver/Src/stm32c0xx_hal_gpio.c ****   /* Configure the port pins */
 185:Drivers/STM32C0xx_HAL_Driver/Src/stm32c0xx_hal_gpio.c ****   while (((pGPIO_Init->Pin) >> position) != 0U)
  57              		.loc 1 185 3 view .LVU8
 177:Drivers/STM32C0xx_HAL_Driver/Src/stm32c0xx_hal_gpio.c **** 
  58              		.loc 1 177 12 is_stmt 0 view .LVU9
  59 000a 0023     		movs	r3, #0
  60              		.loc 1 185 9 view .LVU10
  61 000c 3BE0     		b	.L2
  62              	.LVL2:
  63              	.L21:
 186:Drivers/STM32C0xx_HAL_Driver/Src/stm32c0xx_hal_gpio.c ****   {
 187:Drivers/STM32C0xx_HAL_Driver/Src/stm32c0xx_hal_gpio.c ****     /* Get current io position */
 188:Drivers/STM32C0xx_HAL_Driver/Src/stm32c0xx_hal_gpio.c ****     iocurrent = (pGPIO_Init->Pin) & (1UL << position);
 189:Drivers/STM32C0xx_HAL_Driver/Src/stm32c0xx_hal_gpio.c **** 
 190:Drivers/STM32C0xx_HAL_Driver/Src/stm32c0xx_hal_gpio.c ****     if (iocurrent != 0U)
 191:Drivers/STM32C0xx_HAL_Driver/Src/stm32c0xx_hal_gpio.c ****     {
 192:Drivers/STM32C0xx_HAL_Driver/Src/stm32c0xx_hal_gpio.c ****       /*--------------------- GPIO Mode Configuration ------------------------*/
 193:Drivers/STM32C0xx_HAL_Driver/Src/stm32c0xx_hal_gpio.c ****       /* In case of Alternate function mode selection */
 194:Drivers/STM32C0xx_HAL_Driver/Src/stm32c0xx_hal_gpio.c ****       if ((pGPIO_Init->Mode == GPIO_MODE_AF_PP) || (pGPIO_Init->Mode == GPIO_MODE_AF_OD))
 195:Drivers/STM32C0xx_HAL_Driver/Src/stm32c0xx_hal_gpio.c ****       {
 196:Drivers/STM32C0xx_HAL_Driver/Src/stm32c0xx_hal_gpio.c ****         /* Check the Alternate function parameters */
 197:Drivers/STM32C0xx_HAL_Driver/Src/stm32c0xx_hal_gpio.c ****         assert_param(IS_GPIO_AF_INSTANCE(GPIOx));
 198:Drivers/STM32C0xx_HAL_Driver/Src/stm32c0xx_hal_gpio.c ****         assert_param(IS_GPIO_AF(pGPIO_Init->Alternate));
 199:Drivers/STM32C0xx_HAL_Driver/Src/stm32c0xx_hal_gpio.c **** 
 200:Drivers/STM32C0xx_HAL_Driver/Src/stm32c0xx_hal_gpio.c ****         /* Configure Alternate function mapped with the current IO */
 201:Drivers/STM32C0xx_HAL_Driver/Src/stm32c0xx_hal_gpio.c ****         tmp = GPIOx->AFR[position >> 3U];
 202:Drivers/STM32C0xx_HAL_Driver/Src/stm32c0xx_hal_gpio.c ****         tmp &= ~(0xFUL << ((position & 0x07U) * 4U)) ;
 203:Drivers/STM32C0xx_HAL_Driver/Src/stm32c0xx_hal_gpio.c ****         tmp |= ((pGPIO_Init->Alternate & 0x0FUL) << ((position & 0x07U) * 4U));
 204:Drivers/STM32C0xx_HAL_Driver/Src/stm32c0xx_hal_gpio.c ****         GPIOx->AFR[position >> 3U] = tmp;
 205:Drivers/STM32C0xx_HAL_Driver/Src/stm32c0xx_hal_gpio.c ****       }
 206:Drivers/STM32C0xx_HAL_Driver/Src/stm32c0xx_hal_gpio.c **** 
 207:Drivers/STM32C0xx_HAL_Driver/Src/stm32c0xx_hal_gpio.c ****       /* Configure IO Direction mode (Input, Output, Alternate or Analog) */
 208:Drivers/STM32C0xx_HAL_Driver/Src/stm32c0xx_hal_gpio.c ****       tmp = GPIOx->MODER;
 209:Drivers/STM32C0xx_HAL_Driver/Src/stm32c0xx_hal_gpio.c ****       tmp &= ~(GPIO_MODER_MODE0 << (position * 2U));
 210:Drivers/STM32C0xx_HAL_Driver/Src/stm32c0xx_hal_gpio.c ****       tmp |= ((pGPIO_Init->Mode & GPIO_MODE) << (position * 2U));
 211:Drivers/STM32C0xx_HAL_Driver/Src/stm32c0xx_hal_gpio.c ****       GPIOx->MODER = tmp;
 212:Drivers/STM32C0xx_HAL_Driver/Src/stm32c0xx_hal_gpio.c **** 
 213:Drivers/STM32C0xx_HAL_Driver/Src/stm32c0xx_hal_gpio.c ****       /* In case of Output or Alternate function mode selection */
 214:Drivers/STM32C0xx_HAL_Driver/Src/stm32c0xx_hal_gpio.c ****       if ((pGPIO_Init->Mode == GPIO_MODE_OUTPUT_PP) || (pGPIO_Init->Mode == GPIO_MODE_AF_PP) ||
 215:Drivers/STM32C0xx_HAL_Driver/Src/stm32c0xx_hal_gpio.c ****           (pGPIO_Init->Mode == GPIO_MODE_OUTPUT_OD) || (pGPIO_Init->Mode == GPIO_MODE_AF_OD))
 216:Drivers/STM32C0xx_HAL_Driver/Src/stm32c0xx_hal_gpio.c ****       {
 217:Drivers/STM32C0xx_HAL_Driver/Src/stm32c0xx_hal_gpio.c ****         /* Check the Speed parameter */
 218:Drivers/STM32C0xx_HAL_Driver/Src/stm32c0xx_hal_gpio.c ****         assert_param(IS_GPIO_SPEED(pGPIO_Init->Speed));
 219:Drivers/STM32C0xx_HAL_Driver/Src/stm32c0xx_hal_gpio.c **** 
 220:Drivers/STM32C0xx_HAL_Driver/Src/stm32c0xx_hal_gpio.c ****         /* Configure the IO Speed */
 221:Drivers/STM32C0xx_HAL_Driver/Src/stm32c0xx_hal_gpio.c ****         tmp = GPIOx->OSPEEDR;
 222:Drivers/STM32C0xx_HAL_Driver/Src/stm32c0xx_hal_gpio.c ****         tmp &= ~(GPIO_OSPEEDR_OSPEED0 << (position * 2U));
ARM GAS  /var/folders/nl/kwfz41d55ync1k9vlz8wmkc80000gn/T//ccmKWUpy.s 			page 6


 223:Drivers/STM32C0xx_HAL_Driver/Src/stm32c0xx_hal_gpio.c ****         tmp |= (pGPIO_Init->Speed << (position * 2U));
 224:Drivers/STM32C0xx_HAL_Driver/Src/stm32c0xx_hal_gpio.c ****         GPIOx->OSPEEDR = tmp;
 225:Drivers/STM32C0xx_HAL_Driver/Src/stm32c0xx_hal_gpio.c **** 
 226:Drivers/STM32C0xx_HAL_Driver/Src/stm32c0xx_hal_gpio.c ****         /* Configure the IO Output Type */
 227:Drivers/STM32C0xx_HAL_Driver/Src/stm32c0xx_hal_gpio.c ****         tmp = GPIOx->OTYPER;
 228:Drivers/STM32C0xx_HAL_Driver/Src/stm32c0xx_hal_gpio.c ****         tmp &= ~(GPIO_OTYPER_OT0 << position) ;
 229:Drivers/STM32C0xx_HAL_Driver/Src/stm32c0xx_hal_gpio.c ****         tmp |= (((pGPIO_Init->Mode & GPIO_OUTPUT_TYPE) >> 4U) << position);
 230:Drivers/STM32C0xx_HAL_Driver/Src/stm32c0xx_hal_gpio.c ****         GPIOx->OTYPER = tmp;
 231:Drivers/STM32C0xx_HAL_Driver/Src/stm32c0xx_hal_gpio.c ****       }
 232:Drivers/STM32C0xx_HAL_Driver/Src/stm32c0xx_hal_gpio.c **** 
 233:Drivers/STM32C0xx_HAL_Driver/Src/stm32c0xx_hal_gpio.c ****       if (pGPIO_Init->Mode != GPIO_MODE_ANALOG)
 234:Drivers/STM32C0xx_HAL_Driver/Src/stm32c0xx_hal_gpio.c ****       {
 235:Drivers/STM32C0xx_HAL_Driver/Src/stm32c0xx_hal_gpio.c ****         /* Check the Pull parameters */
 236:Drivers/STM32C0xx_HAL_Driver/Src/stm32c0xx_hal_gpio.c ****         assert_param(IS_GPIO_PULL(pGPIO_Init->Pull));
 237:Drivers/STM32C0xx_HAL_Driver/Src/stm32c0xx_hal_gpio.c **** 
 238:Drivers/STM32C0xx_HAL_Driver/Src/stm32c0xx_hal_gpio.c ****         /* Activate the Pull-up or Pull down resistor for the current IO */
 239:Drivers/STM32C0xx_HAL_Driver/Src/stm32c0xx_hal_gpio.c ****         tmp = GPIOx->PUPDR;
 240:Drivers/STM32C0xx_HAL_Driver/Src/stm32c0xx_hal_gpio.c ****         tmp &= ~(GPIO_PUPDR_PUPD0 << (position * 2U));
 241:Drivers/STM32C0xx_HAL_Driver/Src/stm32c0xx_hal_gpio.c ****         tmp |= ((pGPIO_Init->Pull) << (position * 2U));
 242:Drivers/STM32C0xx_HAL_Driver/Src/stm32c0xx_hal_gpio.c ****         GPIOx->PUPDR = tmp;
 243:Drivers/STM32C0xx_HAL_Driver/Src/stm32c0xx_hal_gpio.c ****       }
 244:Drivers/STM32C0xx_HAL_Driver/Src/stm32c0xx_hal_gpio.c **** 
 245:Drivers/STM32C0xx_HAL_Driver/Src/stm32c0xx_hal_gpio.c ****       /*--------------------- EXTI Mode Configuration ------------------------*/
 246:Drivers/STM32C0xx_HAL_Driver/Src/stm32c0xx_hal_gpio.c ****       /* Configure the External Interrupt or event for the current IO */
 247:Drivers/STM32C0xx_HAL_Driver/Src/stm32c0xx_hal_gpio.c ****       if ((pGPIO_Init->Mode & EXTI_MODE) == EXTI_MODE)
 248:Drivers/STM32C0xx_HAL_Driver/Src/stm32c0xx_hal_gpio.c ****       {
 249:Drivers/STM32C0xx_HAL_Driver/Src/stm32c0xx_hal_gpio.c ****         tmp = EXTI->EXTICR[position >> 2U];
 250:Drivers/STM32C0xx_HAL_Driver/Src/stm32c0xx_hal_gpio.c ****         tmp &= ~((0x0FUL) << (8U * (position & 0x03U)));
 251:Drivers/STM32C0xx_HAL_Driver/Src/stm32c0xx_hal_gpio.c ****         tmp |= (GPIO_GET_INDEX(GPIOx) << (8U * (position & 0x03U)));
  64              		.loc 1 251 17 view .LVU11
  65 000e 0525     		movs	r5, #5
  66 0010 00E0     		b	.L9
  67              	.L15:
  68 0012 0025     		movs	r5, #0
  69              	.L9:
  70              		.loc 1 251 39 discriminator 20 view .LVU12
  71 0014 A540     		lsls	r5, r5, r4
  72 0016 2C00     		movs	r4, r5
  73              		.loc 1 251 13 discriminator 20 view .LVU13
  74 0018 3C43     		orrs	r4, r7
  75              	.LVL3:
 252:Drivers/STM32C0xx_HAL_Driver/Src/stm32c0xx_hal_gpio.c ****         EXTI->EXTICR[position >> 2U] = tmp;
  76              		.loc 1 252 9 is_stmt 1 discriminator 20 view .LVU14
  77              		.loc 1 252 38 is_stmt 0 discriminator 20 view .LVU15
  78 001a 634D     		ldr	r5, .L22
  79 001c 1832     		adds	r2, r2, #24
  80 001e 9200     		lsls	r2, r2, #2
  81 0020 5451     		str	r4, [r2, r5]
 253:Drivers/STM32C0xx_HAL_Driver/Src/stm32c0xx_hal_gpio.c **** 
 254:Drivers/STM32C0xx_HAL_Driver/Src/stm32c0xx_hal_gpio.c ****         /* Clear EXTI line configuration */
 255:Drivers/STM32C0xx_HAL_Driver/Src/stm32c0xx_hal_gpio.c ****         tmp = EXTI->IMR1;
  82              		.loc 1 255 9 is_stmt 1 discriminator 20 view .LVU16
  83              		.loc 1 255 13 is_stmt 0 discriminator 20 view .LVU17
  84 0022 8022     		movs	r2, #128
  85 0024 AC58     		ldr	r4, [r5, r2]
  86              	.LVL4:
 256:Drivers/STM32C0xx_HAL_Driver/Src/stm32c0xx_hal_gpio.c ****         tmp &= ~((uint32_t)iocurrent);
ARM GAS  /var/folders/nl/kwfz41d55ync1k9vlz8wmkc80000gn/T//ccmKWUpy.s 			page 7


  87              		.loc 1 256 9 is_stmt 1 discriminator 20 view .LVU18
  88              		.loc 1 256 16 is_stmt 0 discriminator 20 view .LVU19
  89 0026 4A46     		mov	r2, r9
  90 0028 D243     		mvns	r2, r2
  91              		.loc 1 256 13 discriminator 20 view .LVU20
  92 002a 2500     		movs	r5, r4
  93 002c 4E46     		mov	r6, r9
  94 002e B543     		bics	r5, r6
  95              	.LVL5:
 257:Drivers/STM32C0xx_HAL_Driver/Src/stm32c0xx_hal_gpio.c ****         if ((pGPIO_Init->Mode & GPIO_MODE_IT) == GPIO_MODE_IT)
  96              		.loc 1 257 9 is_stmt 1 discriminator 20 view .LVU21
  97              		.loc 1 257 12 is_stmt 0 discriminator 20 view .LVU22
  98 0030 4E68     		ldr	r6, [r1, #4]
  99 0032 F603     		lsls	r6, r6, #15
 100 0034 02D5     		bpl	.L10
 258:Drivers/STM32C0xx_HAL_Driver/Src/stm32c0xx_hal_gpio.c ****         {
 259:Drivers/STM32C0xx_HAL_Driver/Src/stm32c0xx_hal_gpio.c ****           tmp |= iocurrent;
 101              		.loc 1 259 11 is_stmt 1 view .LVU23
 102              		.loc 1 259 15 is_stmt 0 view .LVU24
 103 0036 4D46     		mov	r5, r9
 104              	.LVL6:
 105              		.loc 1 259 15 view .LVU25
 106 0038 2C43     		orrs	r4, r5
 107              	.LVL7:
 108              		.loc 1 259 15 view .LVU26
 109 003a 2500     		movs	r5, r4
 110              	.LVL8:
 111              	.L10:
 260:Drivers/STM32C0xx_HAL_Driver/Src/stm32c0xx_hal_gpio.c ****         }
 261:Drivers/STM32C0xx_HAL_Driver/Src/stm32c0xx_hal_gpio.c ****         EXTI->IMR1 = tmp;
 112              		.loc 1 261 9 is_stmt 1 view .LVU27
 113              		.loc 1 261 20 is_stmt 0 view .LVU28
 114 003c 5A4C     		ldr	r4, .L22
 115 003e 8027     		movs	r7, #128
 116 0040 E551     		str	r5, [r4, r7]
 262:Drivers/STM32C0xx_HAL_Driver/Src/stm32c0xx_hal_gpio.c **** 
 263:Drivers/STM32C0xx_HAL_Driver/Src/stm32c0xx_hal_gpio.c ****         tmp = EXTI->EMR1;
 117              		.loc 1 263 9 is_stmt 1 view .LVU29
 118              		.loc 1 263 13 is_stmt 0 view .LVU30
 119 0042 8425     		movs	r5, #132
 120              	.LVL9:
 121              		.loc 1 263 13 view .LVU31
 122 0044 6459     		ldr	r4, [r4, r5]
 123              	.LVL10:
 264:Drivers/STM32C0xx_HAL_Driver/Src/stm32c0xx_hal_gpio.c ****         tmp &= ~((uint32_t)iocurrent);
 124              		.loc 1 264 9 is_stmt 1 view .LVU32
 125              		.loc 1 264 13 is_stmt 0 view .LVU33
 126 0046 2500     		movs	r5, r4
 127 0048 1540     		ands	r5, r2
 128              	.LVL11:
 265:Drivers/STM32C0xx_HAL_Driver/Src/stm32c0xx_hal_gpio.c ****         if ((pGPIO_Init->Mode & GPIO_MODE_EVT) == GPIO_MODE_EVT)
 129              		.loc 1 265 9 is_stmt 1 view .LVU34
 130              		.loc 1 265 12 is_stmt 0 view .LVU35
 131 004a 4E68     		ldr	r6, [r1, #4]
 132 004c B603     		lsls	r6, r6, #14
 133 004e 02D5     		bpl	.L11
 266:Drivers/STM32C0xx_HAL_Driver/Src/stm32c0xx_hal_gpio.c ****         {
ARM GAS  /var/folders/nl/kwfz41d55ync1k9vlz8wmkc80000gn/T//ccmKWUpy.s 			page 8


 267:Drivers/STM32C0xx_HAL_Driver/Src/stm32c0xx_hal_gpio.c ****           tmp |= iocurrent;
 134              		.loc 1 267 11 is_stmt 1 view .LVU36
 135              		.loc 1 267 15 is_stmt 0 view .LVU37
 136 0050 4D46     		mov	r5, r9
 137              	.LVL12:
 138              		.loc 1 267 15 view .LVU38
 139 0052 2C43     		orrs	r4, r5
 140              	.LVL13:
 141              		.loc 1 267 15 view .LVU39
 142 0054 2500     		movs	r5, r4
 143              	.LVL14:
 144              	.L11:
 268:Drivers/STM32C0xx_HAL_Driver/Src/stm32c0xx_hal_gpio.c ****         }
 269:Drivers/STM32C0xx_HAL_Driver/Src/stm32c0xx_hal_gpio.c ****         EXTI->EMR1 = tmp;
 145              		.loc 1 269 9 is_stmt 1 view .LVU40
 146              		.loc 1 269 20 is_stmt 0 view .LVU41
 147 0056 544C     		ldr	r4, .L22
 148 0058 8427     		movs	r7, #132
 149 005a E551     		str	r5, [r4, r7]
 270:Drivers/STM32C0xx_HAL_Driver/Src/stm32c0xx_hal_gpio.c **** 
 271:Drivers/STM32C0xx_HAL_Driver/Src/stm32c0xx_hal_gpio.c ****         /* Clear Rising Falling edge configuration */
 272:Drivers/STM32C0xx_HAL_Driver/Src/stm32c0xx_hal_gpio.c ****         tmp = EXTI->RTSR1;
 150              		.loc 1 272 9 is_stmt 1 view .LVU42
 151              		.loc 1 272 13 is_stmt 0 view .LVU43
 152 005c 2468     		ldr	r4, [r4]
 153              	.LVL15:
 273:Drivers/STM32C0xx_HAL_Driver/Src/stm32c0xx_hal_gpio.c ****         tmp &= ~((uint32_t)iocurrent);
 154              		.loc 1 273 9 is_stmt 1 view .LVU44
 155              		.loc 1 273 13 is_stmt 0 view .LVU45
 156 005e 2500     		movs	r5, r4
 157 0060 1540     		ands	r5, r2
 158              	.LVL16:
 274:Drivers/STM32C0xx_HAL_Driver/Src/stm32c0xx_hal_gpio.c ****         if ((pGPIO_Init->Mode & RISING_EDGE) == RISING_EDGE)
 159              		.loc 1 274 9 is_stmt 1 view .LVU46
 160              		.loc 1 274 12 is_stmt 0 view .LVU47
 161 0062 4E68     		ldr	r6, [r1, #4]
 162 0064 F602     		lsls	r6, r6, #11
 163 0066 02D5     		bpl	.L12
 275:Drivers/STM32C0xx_HAL_Driver/Src/stm32c0xx_hal_gpio.c ****         {
 276:Drivers/STM32C0xx_HAL_Driver/Src/stm32c0xx_hal_gpio.c ****           tmp |= iocurrent;
 164              		.loc 1 276 11 is_stmt 1 view .LVU48
 165              		.loc 1 276 15 is_stmt 0 view .LVU49
 166 0068 4D46     		mov	r5, r9
 167              	.LVL17:
 168              		.loc 1 276 15 view .LVU50
 169 006a 2C43     		orrs	r4, r5
 170              	.LVL18:
 171              		.loc 1 276 15 view .LVU51
 172 006c 2500     		movs	r5, r4
 173              	.LVL19:
 174              	.L12:
 277:Drivers/STM32C0xx_HAL_Driver/Src/stm32c0xx_hal_gpio.c ****         }
 278:Drivers/STM32C0xx_HAL_Driver/Src/stm32c0xx_hal_gpio.c ****         EXTI->RTSR1 = tmp;
 175              		.loc 1 278 9 is_stmt 1 view .LVU52
 176              		.loc 1 278 21 is_stmt 0 view .LVU53
 177 006e 4E4C     		ldr	r4, .L22
 178 0070 2560     		str	r5, [r4]
ARM GAS  /var/folders/nl/kwfz41d55ync1k9vlz8wmkc80000gn/T//ccmKWUpy.s 			page 9


 279:Drivers/STM32C0xx_HAL_Driver/Src/stm32c0xx_hal_gpio.c **** 
 280:Drivers/STM32C0xx_HAL_Driver/Src/stm32c0xx_hal_gpio.c ****         tmp = EXTI->FTSR1;
 179              		.loc 1 280 9 is_stmt 1 view .LVU54
 180              		.loc 1 280 13 is_stmt 0 view .LVU55
 181 0072 6468     		ldr	r4, [r4, #4]
 182              	.LVL20:
 281:Drivers/STM32C0xx_HAL_Driver/Src/stm32c0xx_hal_gpio.c ****         tmp &= ~((uint32_t)iocurrent);
 183              		.loc 1 281 9 is_stmt 1 view .LVU56
 184              		.loc 1 281 13 is_stmt 0 view .LVU57
 185 0074 2240     		ands	r2, r4
 186              	.LVL21:
 282:Drivers/STM32C0xx_HAL_Driver/Src/stm32c0xx_hal_gpio.c ****         if ((pGPIO_Init->Mode & FALLING_EDGE) == FALLING_EDGE)
 187              		.loc 1 282 9 is_stmt 1 view .LVU58
 188              		.loc 1 282 12 is_stmt 0 view .LVU59
 189 0076 4D68     		ldr	r5, [r1, #4]
 190 0078 AD02     		lsls	r5, r5, #10
 191 007a 01D5     		bpl	.L13
 283:Drivers/STM32C0xx_HAL_Driver/Src/stm32c0xx_hal_gpio.c ****         {
 284:Drivers/STM32C0xx_HAL_Driver/Src/stm32c0xx_hal_gpio.c ****           tmp |= iocurrent;
 192              		.loc 1 284 11 is_stmt 1 view .LVU60
 193              		.loc 1 284 15 is_stmt 0 view .LVU61
 194 007c 4A46     		mov	r2, r9
 195              	.LVL22:
 196              		.loc 1 284 15 view .LVU62
 197 007e 2243     		orrs	r2, r4
 198              	.LVL23:
 199              	.L13:
 285:Drivers/STM32C0xx_HAL_Driver/Src/stm32c0xx_hal_gpio.c ****         }
 286:Drivers/STM32C0xx_HAL_Driver/Src/stm32c0xx_hal_gpio.c ****         EXTI->FTSR1 = tmp;
 200              		.loc 1 286 9 is_stmt 1 view .LVU63
 201              		.loc 1 286 21 is_stmt 0 view .LVU64
 202 0080 494C     		ldr	r4, .L22
 203 0082 6260     		str	r2, [r4, #4]
 204              	.LVL24:
 205              	.L3:
 287:Drivers/STM32C0xx_HAL_Driver/Src/stm32c0xx_hal_gpio.c ****       }
 288:Drivers/STM32C0xx_HAL_Driver/Src/stm32c0xx_hal_gpio.c ****     }
 289:Drivers/STM32C0xx_HAL_Driver/Src/stm32c0xx_hal_gpio.c **** 
 290:Drivers/STM32C0xx_HAL_Driver/Src/stm32c0xx_hal_gpio.c ****     position++;
 206              		.loc 1 290 5 is_stmt 1 view .LVU65
 207              		.loc 1 290 13 is_stmt 0 view .LVU66
 208 0084 0133     		adds	r3, r3, #1
 209              	.LVL25:
 210              	.L2:
 185:Drivers/STM32C0xx_HAL_Driver/Src/stm32c0xx_hal_gpio.c ****   {
 211              		.loc 1 185 9 is_stmt 1 view .LVU67
 185:Drivers/STM32C0xx_HAL_Driver/Src/stm32c0xx_hal_gpio.c ****   {
 212              		.loc 1 185 22 is_stmt 0 view .LVU68
 213 0086 0C68     		ldr	r4, [r1]
 185:Drivers/STM32C0xx_HAL_Driver/Src/stm32c0xx_hal_gpio.c ****   {
 214              		.loc 1 185 29 view .LVU69
 215 0088 2200     		movs	r2, r4
 216 008a DA40     		lsrs	r2, r2, r3
 185:Drivers/STM32C0xx_HAL_Driver/Src/stm32c0xx_hal_gpio.c ****   {
 217              		.loc 1 185 9 view .LVU70
 218 008c 00D1     		bne	.LCB206
 219 008e 86E0     		b	.L20	@long jump
ARM GAS  /var/folders/nl/kwfz41d55ync1k9vlz8wmkc80000gn/T//ccmKWUpy.s 			page 10


 220              	.LCB206:
 188:Drivers/STM32C0xx_HAL_Driver/Src/stm32c0xx_hal_gpio.c **** 
 221              		.loc 1 188 5 is_stmt 1 view .LVU71
 188:Drivers/STM32C0xx_HAL_Driver/Src/stm32c0xx_hal_gpio.c **** 
 222              		.loc 1 188 42 is_stmt 0 view .LVU72
 223 0090 0122     		movs	r2, #1
 224 0092 9A40     		lsls	r2, r2, r3
 188:Drivers/STM32C0xx_HAL_Driver/Src/stm32c0xx_hal_gpio.c **** 
 225              		.loc 1 188 15 view .LVU73
 226 0094 2600     		movs	r6, r4
 227 0096 1640     		ands	r6, r2
 228 0098 B146     		mov	r9, r6
 229              	.LVL26:
 190:Drivers/STM32C0xx_HAL_Driver/Src/stm32c0xx_hal_gpio.c ****     {
 230              		.loc 1 190 5 is_stmt 1 view .LVU74
 190:Drivers/STM32C0xx_HAL_Driver/Src/stm32c0xx_hal_gpio.c ****     {
 231              		.loc 1 190 8 is_stmt 0 view .LVU75
 232 009a 1442     		tst	r4, r2
 233 009c F2D0     		beq	.L3
 194:Drivers/STM32C0xx_HAL_Driver/Src/stm32c0xx_hal_gpio.c ****       {
 234              		.loc 1 194 7 is_stmt 1 view .LVU76
 194:Drivers/STM32C0xx_HAL_Driver/Src/stm32c0xx_hal_gpio.c ****       {
 235              		.loc 1 194 22 is_stmt 0 view .LVU77
 236 009e 4C68     		ldr	r4, [r1, #4]
 194:Drivers/STM32C0xx_HAL_Driver/Src/stm32c0xx_hal_gpio.c ****       {
 237              		.loc 1 194 10 view .LVU78
 238 00a0 022C     		cmp	r4, #2
 239 00a2 01D0     		beq	.L4
 194:Drivers/STM32C0xx_HAL_Driver/Src/stm32c0xx_hal_gpio.c ****       {
 240              		.loc 1 194 49 discriminator 1 view .LVU79
 241 00a4 122C     		cmp	r4, #18
 242 00a6 18D1     		bne	.L5
 243              	.L4:
 197:Drivers/STM32C0xx_HAL_Driver/Src/stm32c0xx_hal_gpio.c ****         assert_param(IS_GPIO_AF(pGPIO_Init->Alternate));
 244              		.loc 1 197 9 is_stmt 1 view .LVU80
 198:Drivers/STM32C0xx_HAL_Driver/Src/stm32c0xx_hal_gpio.c **** 
 245              		.loc 1 198 9 view .LVU81
 201:Drivers/STM32C0xx_HAL_Driver/Src/stm32c0xx_hal_gpio.c ****         tmp &= ~(0xFUL << ((position & 0x07U) * 4U)) ;
 246              		.loc 1 201 9 view .LVU82
 201:Drivers/STM32C0xx_HAL_Driver/Src/stm32c0xx_hal_gpio.c ****         tmp &= ~(0xFUL << ((position & 0x07U) * 4U)) ;
 247              		.loc 1 201 35 is_stmt 0 view .LVU83
 248 00a8 DD08     		lsrs	r5, r3, #3
 201:Drivers/STM32C0xx_HAL_Driver/Src/stm32c0xx_hal_gpio.c ****         tmp &= ~(0xFUL << ((position & 0x07U) * 4U)) ;
 249              		.loc 1 201 13 view .LVU84
 250 00aa 0835     		adds	r5, r5, #8
 251 00ac AD00     		lsls	r5, r5, #2
 252 00ae 2C58     		ldr	r4, [r5, r0]
 253 00b0 A446     		mov	ip, r4
 254              	.LVL27:
 202:Drivers/STM32C0xx_HAL_Driver/Src/stm32c0xx_hal_gpio.c ****         tmp |= ((pGPIO_Init->Alternate & 0x0FUL) << ((position & 0x07U) * 4U));
 255              		.loc 1 202 9 is_stmt 1 view .LVU85
 202:Drivers/STM32C0xx_HAL_Driver/Src/stm32c0xx_hal_gpio.c ****         tmp |= ((pGPIO_Init->Alternate & 0x0FUL) << ((position & 0x07U) * 4U));
 256              		.loc 1 202 38 is_stmt 0 view .LVU86
 257 00b2 0727     		movs	r7, #7
 258 00b4 1F40     		ands	r7, r3
 202:Drivers/STM32C0xx_HAL_Driver/Src/stm32c0xx_hal_gpio.c ****         tmp |= ((pGPIO_Init->Alternate & 0x0FUL) << ((position & 0x07U) * 4U));
 259              		.loc 1 202 47 view .LVU87
ARM GAS  /var/folders/nl/kwfz41d55ync1k9vlz8wmkc80000gn/T//ccmKWUpy.s 			page 11


 260 00b6 BF00     		lsls	r7, r7, #2
 202:Drivers/STM32C0xx_HAL_Driver/Src/stm32c0xx_hal_gpio.c ****         tmp |= ((pGPIO_Init->Alternate & 0x0FUL) << ((position & 0x07U) * 4U));
 261              		.loc 1 202 24 view .LVU88
 262 00b8 0F24     		movs	r4, #15
 263              	.LVL28:
 202:Drivers/STM32C0xx_HAL_Driver/Src/stm32c0xx_hal_gpio.c ****         tmp |= ((pGPIO_Init->Alternate & 0x0FUL) << ((position & 0x07U) * 4U));
 264              		.loc 1 202 24 view .LVU89
 265 00ba A246     		mov	r10, r4
 266 00bc 2600     		movs	r6, r4
 267              	.LVL29:
 202:Drivers/STM32C0xx_HAL_Driver/Src/stm32c0xx_hal_gpio.c ****         tmp |= ((pGPIO_Init->Alternate & 0x0FUL) << ((position & 0x07U) * 4U));
 268              		.loc 1 202 24 view .LVU90
 269 00be BE40     		lsls	r6, r6, r7
 270 00c0 B046     		mov	r8, r6
 202:Drivers/STM32C0xx_HAL_Driver/Src/stm32c0xx_hal_gpio.c ****         tmp |= ((pGPIO_Init->Alternate & 0x0FUL) << ((position & 0x07U) * 4U));
 271              		.loc 1 202 13 view .LVU91
 272 00c2 6646     		mov	r6, ip
 273 00c4 4446     		mov	r4, r8
 274 00c6 A643     		bics	r6, r4
 275 00c8 B446     		mov	ip, r6
 276              	.LVL30:
 203:Drivers/STM32C0xx_HAL_Driver/Src/stm32c0xx_hal_gpio.c ****         GPIOx->AFR[position >> 3U] = tmp;
 277              		.loc 1 203 9 is_stmt 1 view .LVU92
 203:Drivers/STM32C0xx_HAL_Driver/Src/stm32c0xx_hal_gpio.c ****         GPIOx->AFR[position >> 3U] = tmp;
 278              		.loc 1 203 40 is_stmt 0 view .LVU93
 279 00ca 0C69     		ldr	r4, [r1, #16]
 280 00cc 5646     		mov	r6, r10
 281              	.LVL31:
 203:Drivers/STM32C0xx_HAL_Driver/Src/stm32c0xx_hal_gpio.c ****         GPIOx->AFR[position >> 3U] = tmp;
 282              		.loc 1 203 40 view .LVU94
 283 00ce 2640     		ands	r6, r4
 284 00d0 3400     		movs	r4, r6
 203:Drivers/STM32C0xx_HAL_Driver/Src/stm32c0xx_hal_gpio.c ****         GPIOx->AFR[position >> 3U] = tmp;
 285              		.loc 1 203 50 view .LVU95
 286 00d2 BC40     		lsls	r4, r4, r7
 203:Drivers/STM32C0xx_HAL_Driver/Src/stm32c0xx_hal_gpio.c ****         GPIOx->AFR[position >> 3U] = tmp;
 287              		.loc 1 203 13 view .LVU96
 288 00d4 6646     		mov	r6, ip
 289 00d6 3443     		orrs	r4, r6
 290              	.LVL32:
 204:Drivers/STM32C0xx_HAL_Driver/Src/stm32c0xx_hal_gpio.c ****       }
 291              		.loc 1 204 9 is_stmt 1 view .LVU97
 204:Drivers/STM32C0xx_HAL_Driver/Src/stm32c0xx_hal_gpio.c ****       }
 292              		.loc 1 204 36 is_stmt 0 view .LVU98
 293 00d8 2C50     		str	r4, [r5, r0]
 294              	.LVL33:
 295              	.L5:
 208:Drivers/STM32C0xx_HAL_Driver/Src/stm32c0xx_hal_gpio.c ****       tmp &= ~(GPIO_MODER_MODE0 << (position * 2U));
 296              		.loc 1 208 7 is_stmt 1 view .LVU99
 208:Drivers/STM32C0xx_HAL_Driver/Src/stm32c0xx_hal_gpio.c ****       tmp &= ~(GPIO_MODER_MODE0 << (position * 2U));
 297              		.loc 1 208 11 is_stmt 0 view .LVU100
 298 00da 0468     		ldr	r4, [r0]
 299 00dc A446     		mov	ip, r4
 300              	.LVL34:
 209:Drivers/STM32C0xx_HAL_Driver/Src/stm32c0xx_hal_gpio.c ****       tmp |= ((pGPIO_Init->Mode & GPIO_MODE) << (position * 2U));
 301              		.loc 1 209 7 is_stmt 1 view .LVU101
 209:Drivers/STM32C0xx_HAL_Driver/Src/stm32c0xx_hal_gpio.c ****       tmp |= ((pGPIO_Init->Mode & GPIO_MODE) << (position * 2U));
ARM GAS  /var/folders/nl/kwfz41d55ync1k9vlz8wmkc80000gn/T//ccmKWUpy.s 			page 12


 302              		.loc 1 209 46 is_stmt 0 view .LVU102
 303 00de 5D00     		lsls	r5, r3, #1
 209:Drivers/STM32C0xx_HAL_Driver/Src/stm32c0xx_hal_gpio.c ****       tmp |= ((pGPIO_Init->Mode & GPIO_MODE) << (position * 2U));
 304              		.loc 1 209 33 view .LVU103
 305 00e0 0324     		movs	r4, #3
 306              	.LVL35:
 209:Drivers/STM32C0xx_HAL_Driver/Src/stm32c0xx_hal_gpio.c ****       tmp |= ((pGPIO_Init->Mode & GPIO_MODE) << (position * 2U));
 307              		.loc 1 209 33 view .LVU104
 308 00e2 A246     		mov	r10, r4
 309 00e4 2700     		movs	r7, r4
 310 00e6 AF40     		lsls	r7, r7, r5
 311 00e8 B846     		mov	r8, r7
 209:Drivers/STM32C0xx_HAL_Driver/Src/stm32c0xx_hal_gpio.c ****       tmp |= ((pGPIO_Init->Mode & GPIO_MODE) << (position * 2U));
 312              		.loc 1 209 14 view .LVU105
 313 00ea FF43     		mvns	r7, r7
 209:Drivers/STM32C0xx_HAL_Driver/Src/stm32c0xx_hal_gpio.c ****       tmp |= ((pGPIO_Init->Mode & GPIO_MODE) << (position * 2U));
 314              		.loc 1 209 11 view .LVU106
 315 00ec 6646     		mov	r6, ip
 316 00ee 4446     		mov	r4, r8
 317 00f0 A643     		bics	r6, r4
 318 00f2 B446     		mov	ip, r6
 319              	.LVL36:
 210:Drivers/STM32C0xx_HAL_Driver/Src/stm32c0xx_hal_gpio.c ****       GPIOx->MODER = tmp;
 320              		.loc 1 210 7 is_stmt 1 view .LVU107
 210:Drivers/STM32C0xx_HAL_Driver/Src/stm32c0xx_hal_gpio.c ****       GPIOx->MODER = tmp;
 321              		.loc 1 210 33 is_stmt 0 view .LVU108
 322 00f4 4C68     		ldr	r4, [r1, #4]
 323 00f6 5646     		mov	r6, r10
 324              	.LVL37:
 210:Drivers/STM32C0xx_HAL_Driver/Src/stm32c0xx_hal_gpio.c ****       GPIOx->MODER = tmp;
 325              		.loc 1 210 33 view .LVU109
 326 00f8 2640     		ands	r6, r4
 327 00fa 3400     		movs	r4, r6
 210:Drivers/STM32C0xx_HAL_Driver/Src/stm32c0xx_hal_gpio.c ****       GPIOx->MODER = tmp;
 328              		.loc 1 210 46 view .LVU110
 329 00fc AC40     		lsls	r4, r4, r5
 210:Drivers/STM32C0xx_HAL_Driver/Src/stm32c0xx_hal_gpio.c ****       GPIOx->MODER = tmp;
 330              		.loc 1 210 11 view .LVU111
 331 00fe 6646     		mov	r6, ip
 332 0100 3443     		orrs	r4, r6
 333              	.LVL38:
 211:Drivers/STM32C0xx_HAL_Driver/Src/stm32c0xx_hal_gpio.c **** 
 334              		.loc 1 211 7 is_stmt 1 view .LVU112
 211:Drivers/STM32C0xx_HAL_Driver/Src/stm32c0xx_hal_gpio.c **** 
 335              		.loc 1 211 20 is_stmt 0 view .LVU113
 336 0102 0460     		str	r4, [r0]
 214:Drivers/STM32C0xx_HAL_Driver/Src/stm32c0xx_hal_gpio.c ****           (pGPIO_Init->Mode == GPIO_MODE_OUTPUT_OD) || (pGPIO_Init->Mode == GPIO_MODE_AF_OD))
 337              		.loc 1 214 7 is_stmt 1 view .LVU114
 214:Drivers/STM32C0xx_HAL_Driver/Src/stm32c0xx_hal_gpio.c ****           (pGPIO_Init->Mode == GPIO_MODE_OUTPUT_OD) || (pGPIO_Init->Mode == GPIO_MODE_AF_OD))
 338              		.loc 1 214 22 is_stmt 0 view .LVU115
 339 0104 4C68     		ldr	r4, [r1, #4]
 340              	.LVL39:
 214:Drivers/STM32C0xx_HAL_Driver/Src/stm32c0xx_hal_gpio.c ****           (pGPIO_Init->Mode == GPIO_MODE_OUTPUT_OD) || (pGPIO_Init->Mode == GPIO_MODE_AF_OD))
 341              		.loc 1 214 53 view .LVU116
 342 0106 661E     		subs	r6, r4, #1
 214:Drivers/STM32C0xx_HAL_Driver/Src/stm32c0xx_hal_gpio.c ****           (pGPIO_Init->Mode == GPIO_MODE_OUTPUT_OD) || (pGPIO_Init->Mode == GPIO_MODE_AF_OD))
 343              		.loc 1 214 10 view .LVU117
ARM GAS  /var/folders/nl/kwfz41d55ync1k9vlz8wmkc80000gn/T//ccmKWUpy.s 			page 13


 344 0108 012E     		cmp	r6, #1
 345 010a 03D9     		bls	.L6
 214:Drivers/STM32C0xx_HAL_Driver/Src/stm32c0xx_hal_gpio.c ****           (pGPIO_Init->Mode == GPIO_MODE_OUTPUT_OD) || (pGPIO_Init->Mode == GPIO_MODE_AF_OD))
 346              		.loc 1 214 94 discriminator 1 view .LVU118
 347 010c 112C     		cmp	r4, #17
 348 010e 01D0     		beq	.L6
 215:Drivers/STM32C0xx_HAL_Driver/Src/stm32c0xx_hal_gpio.c ****       {
 349              		.loc 1 215 53 view .LVU119
 350 0110 122C     		cmp	r4, #18
 351 0112 12D1     		bne	.L7
 352              	.L6:
 218:Drivers/STM32C0xx_HAL_Driver/Src/stm32c0xx_hal_gpio.c **** 
 353              		.loc 1 218 9 is_stmt 1 view .LVU120
 221:Drivers/STM32C0xx_HAL_Driver/Src/stm32c0xx_hal_gpio.c ****         tmp &= ~(GPIO_OSPEEDR_OSPEED0 << (position * 2U));
 354              		.loc 1 221 9 view .LVU121
 221:Drivers/STM32C0xx_HAL_Driver/Src/stm32c0xx_hal_gpio.c ****         tmp &= ~(GPIO_OSPEEDR_OSPEED0 << (position * 2U));
 355              		.loc 1 221 13 is_stmt 0 view .LVU122
 356 0114 8468     		ldr	r4, [r0, #8]
 357              	.LVL40:
 222:Drivers/STM32C0xx_HAL_Driver/Src/stm32c0xx_hal_gpio.c ****         tmp |= (pGPIO_Init->Speed << (position * 2U));
 358              		.loc 1 222 9 is_stmt 1 view .LVU123
 222:Drivers/STM32C0xx_HAL_Driver/Src/stm32c0xx_hal_gpio.c ****         tmp |= (pGPIO_Init->Speed << (position * 2U));
 359              		.loc 1 222 13 is_stmt 0 view .LVU124
 360 0116 3C40     		ands	r4, r7
 361              	.LVL41:
 222:Drivers/STM32C0xx_HAL_Driver/Src/stm32c0xx_hal_gpio.c ****         tmp |= (pGPIO_Init->Speed << (position * 2U));
 362              		.loc 1 222 13 view .LVU125
 363 0118 A446     		mov	ip, r4
 364              	.LVL42:
 223:Drivers/STM32C0xx_HAL_Driver/Src/stm32c0xx_hal_gpio.c ****         GPIOx->OSPEEDR = tmp;
 365              		.loc 1 223 9 is_stmt 1 view .LVU126
 223:Drivers/STM32C0xx_HAL_Driver/Src/stm32c0xx_hal_gpio.c ****         GPIOx->OSPEEDR = tmp;
 366              		.loc 1 223 35 is_stmt 0 view .LVU127
 367 011a CC68     		ldr	r4, [r1, #12]
 368              	.LVL43:
 223:Drivers/STM32C0xx_HAL_Driver/Src/stm32c0xx_hal_gpio.c ****         GPIOx->OSPEEDR = tmp;
 369              		.loc 1 223 35 view .LVU128
 370 011c AC40     		lsls	r4, r4, r5
 223:Drivers/STM32C0xx_HAL_Driver/Src/stm32c0xx_hal_gpio.c ****         GPIOx->OSPEEDR = tmp;
 371              		.loc 1 223 13 view .LVU129
 372 011e 6646     		mov	r6, ip
 373 0120 3443     		orrs	r4, r6
 374              	.LVL44:
 224:Drivers/STM32C0xx_HAL_Driver/Src/stm32c0xx_hal_gpio.c **** 
 375              		.loc 1 224 9 is_stmt 1 view .LVU130
 224:Drivers/STM32C0xx_HAL_Driver/Src/stm32c0xx_hal_gpio.c **** 
 376              		.loc 1 224 24 is_stmt 0 view .LVU131
 377 0122 8460     		str	r4, [r0, #8]
 227:Drivers/STM32C0xx_HAL_Driver/Src/stm32c0xx_hal_gpio.c ****         tmp &= ~(GPIO_OTYPER_OT0 << position) ;
 378              		.loc 1 227 9 is_stmt 1 view .LVU132
 227:Drivers/STM32C0xx_HAL_Driver/Src/stm32c0xx_hal_gpio.c ****         tmp &= ~(GPIO_OTYPER_OT0 << position) ;
 379              		.loc 1 227 13 is_stmt 0 view .LVU133
 380 0124 4468     		ldr	r4, [r0, #4]
 381              	.LVL45:
 228:Drivers/STM32C0xx_HAL_Driver/Src/stm32c0xx_hal_gpio.c ****         tmp |= (((pGPIO_Init->Mode & GPIO_OUTPUT_TYPE) >> 4U) << position);
 382              		.loc 1 228 9 is_stmt 1 view .LVU134
 228:Drivers/STM32C0xx_HAL_Driver/Src/stm32c0xx_hal_gpio.c ****         tmp |= (((pGPIO_Init->Mode & GPIO_OUTPUT_TYPE) >> 4U) << position);
ARM GAS  /var/folders/nl/kwfz41d55ync1k9vlz8wmkc80000gn/T//ccmKWUpy.s 			page 14


 383              		.loc 1 228 13 is_stmt 0 view .LVU135
 384 0126 9443     		bics	r4, r2
 385              	.LVL46:
 229:Drivers/STM32C0xx_HAL_Driver/Src/stm32c0xx_hal_gpio.c ****         GPIOx->OTYPER = tmp;
 386              		.loc 1 229 9 is_stmt 1 view .LVU136
 229:Drivers/STM32C0xx_HAL_Driver/Src/stm32c0xx_hal_gpio.c ****         GPIOx->OTYPER = tmp;
 387              		.loc 1 229 56 is_stmt 0 view .LVU137
 388 0128 4A68     		ldr	r2, [r1, #4]
 389 012a 1209     		lsrs	r2, r2, #4
 390 012c 9446     		mov	ip, r2
 391 012e 0122     		movs	r2, #1
 392 0130 6646     		mov	r6, ip
 393 0132 3240     		ands	r2, r6
 229:Drivers/STM32C0xx_HAL_Driver/Src/stm32c0xx_hal_gpio.c ****         GPIOx->OTYPER = tmp;
 394              		.loc 1 229 63 view .LVU138
 395 0134 9A40     		lsls	r2, r2, r3
 229:Drivers/STM32C0xx_HAL_Driver/Src/stm32c0xx_hal_gpio.c ****         GPIOx->OTYPER = tmp;
 396              		.loc 1 229 13 view .LVU139
 397 0136 2243     		orrs	r2, r4
 398              	.LVL47:
 230:Drivers/STM32C0xx_HAL_Driver/Src/stm32c0xx_hal_gpio.c ****       }
 399              		.loc 1 230 9 is_stmt 1 view .LVU140
 230:Drivers/STM32C0xx_HAL_Driver/Src/stm32c0xx_hal_gpio.c ****       }
 400              		.loc 1 230 23 is_stmt 0 view .LVU141
 401 0138 4260     		str	r2, [r0, #4]
 402              	.LVL48:
 403              	.L7:
 233:Drivers/STM32C0xx_HAL_Driver/Src/stm32c0xx_hal_gpio.c ****       {
 404              		.loc 1 233 7 is_stmt 1 view .LVU142
 233:Drivers/STM32C0xx_HAL_Driver/Src/stm32c0xx_hal_gpio.c ****       {
 405              		.loc 1 233 10 is_stmt 0 view .LVU143
 406 013a 4A68     		ldr	r2, [r1, #4]
 407 013c 032A     		cmp	r2, #3
 408 013e 05D0     		beq	.L8
 236:Drivers/STM32C0xx_HAL_Driver/Src/stm32c0xx_hal_gpio.c **** 
 409              		.loc 1 236 9 is_stmt 1 view .LVU144
 239:Drivers/STM32C0xx_HAL_Driver/Src/stm32c0xx_hal_gpio.c ****         tmp &= ~(GPIO_PUPDR_PUPD0 << (position * 2U));
 410              		.loc 1 239 9 view .LVU145
 239:Drivers/STM32C0xx_HAL_Driver/Src/stm32c0xx_hal_gpio.c ****         tmp &= ~(GPIO_PUPDR_PUPD0 << (position * 2U));
 411              		.loc 1 239 13 is_stmt 0 view .LVU146
 412 0140 C268     		ldr	r2, [r0, #12]
 413              	.LVL49:
 240:Drivers/STM32C0xx_HAL_Driver/Src/stm32c0xx_hal_gpio.c ****         tmp |= ((pGPIO_Init->Pull) << (position * 2U));
 414              		.loc 1 240 9 is_stmt 1 view .LVU147
 240:Drivers/STM32C0xx_HAL_Driver/Src/stm32c0xx_hal_gpio.c ****         tmp |= ((pGPIO_Init->Pull) << (position * 2U));
 415              		.loc 1 240 13 is_stmt 0 view .LVU148
 416 0142 3A40     		ands	r2, r7
 417              	.LVL50:
 241:Drivers/STM32C0xx_HAL_Driver/Src/stm32c0xx_hal_gpio.c ****         GPIOx->PUPDR = tmp;
 418              		.loc 1 241 9 is_stmt 1 view .LVU149
 241:Drivers/STM32C0xx_HAL_Driver/Src/stm32c0xx_hal_gpio.c ****         GPIOx->PUPDR = tmp;
 419              		.loc 1 241 36 is_stmt 0 view .LVU150
 420 0144 8F68     		ldr	r7, [r1, #8]
 421 0146 AF40     		lsls	r7, r7, r5
 241:Drivers/STM32C0xx_HAL_Driver/Src/stm32c0xx_hal_gpio.c ****         GPIOx->PUPDR = tmp;
 422              		.loc 1 241 13 view .LVU151
 423 0148 1743     		orrs	r7, r2
ARM GAS  /var/folders/nl/kwfz41d55ync1k9vlz8wmkc80000gn/T//ccmKWUpy.s 			page 15


 424              	.LVL51:
 242:Drivers/STM32C0xx_HAL_Driver/Src/stm32c0xx_hal_gpio.c ****       }
 425              		.loc 1 242 9 is_stmt 1 view .LVU152
 242:Drivers/STM32C0xx_HAL_Driver/Src/stm32c0xx_hal_gpio.c ****       }
 426              		.loc 1 242 22 is_stmt 0 view .LVU153
 427 014a C760     		str	r7, [r0, #12]
 428              	.LVL52:
 429              	.L8:
 247:Drivers/STM32C0xx_HAL_Driver/Src/stm32c0xx_hal_gpio.c ****       {
 430              		.loc 1 247 7 is_stmt 1 view .LVU154
 247:Drivers/STM32C0xx_HAL_Driver/Src/stm32c0xx_hal_gpio.c ****       {
 431              		.loc 1 247 10 is_stmt 0 view .LVU155
 432 014c 4A68     		ldr	r2, [r1, #4]
 433 014e D200     		lsls	r2, r2, #3
 434 0150 98D5     		bpl	.L3
 249:Drivers/STM32C0xx_HAL_Driver/Src/stm32c0xx_hal_gpio.c ****         tmp &= ~((0x0FUL) << (8U * (position & 0x03U)));
 435              		.loc 1 249 9 is_stmt 1 view .LVU156
 249:Drivers/STM32C0xx_HAL_Driver/Src/stm32c0xx_hal_gpio.c ****         tmp &= ~((0x0FUL) << (8U * (position & 0x03U)));
 436              		.loc 1 249 37 is_stmt 0 view .LVU157
 437 0152 9A08     		lsrs	r2, r3, #2
 249:Drivers/STM32C0xx_HAL_Driver/Src/stm32c0xx_hal_gpio.c ****         tmp &= ~((0x0FUL) << (8U * (position & 0x03U)));
 438              		.loc 1 249 13 view .LVU158
 439 0154 1400     		movs	r4, r2
 440 0156 1834     		adds	r4, r4, #24
 441 0158 A400     		lsls	r4, r4, #2
 442 015a 134D     		ldr	r5, .L22
 443 015c 6759     		ldr	r7, [r4, r5]
 444              	.LVL53:
 250:Drivers/STM32C0xx_HAL_Driver/Src/stm32c0xx_hal_gpio.c ****         tmp |= (GPIO_GET_INDEX(GPIOx) << (8U * (position & 0x03U)));
 445              		.loc 1 250 9 is_stmt 1 view .LVU159
 250:Drivers/STM32C0xx_HAL_Driver/Src/stm32c0xx_hal_gpio.c ****         tmp |= (GPIO_GET_INDEX(GPIOx) << (8U * (position & 0x03U)));
 446              		.loc 1 250 46 is_stmt 0 view .LVU160
 447 015e 0325     		movs	r5, #3
 448 0160 1D40     		ands	r5, r3
 250:Drivers/STM32C0xx_HAL_Driver/Src/stm32c0xx_hal_gpio.c ****         tmp |= (GPIO_GET_INDEX(GPIOx) << (8U * (position & 0x03U)));
 449              		.loc 1 250 34 view .LVU161
 450 0162 EC00     		lsls	r4, r5, #3
 250:Drivers/STM32C0xx_HAL_Driver/Src/stm32c0xx_hal_gpio.c ****         tmp |= (GPIO_GET_INDEX(GPIOx) << (8U * (position & 0x03U)));
 451              		.loc 1 250 27 view .LVU162
 452 0164 0F25     		movs	r5, #15
 453 0166 A540     		lsls	r5, r5, r4
 250:Drivers/STM32C0xx_HAL_Driver/Src/stm32c0xx_hal_gpio.c ****         tmp |= (GPIO_GET_INDEX(GPIOx) << (8U * (position & 0x03U)));
 454              		.loc 1 250 13 view .LVU163
 455 0168 AF43     		bics	r7, r5
 456              	.LVL54:
 251:Drivers/STM32C0xx_HAL_Driver/Src/stm32c0xx_hal_gpio.c ****         EXTI->EXTICR[position >> 2U] = tmp;
 457              		.loc 1 251 9 is_stmt 1 view .LVU164
 251:Drivers/STM32C0xx_HAL_Driver/Src/stm32c0xx_hal_gpio.c ****         EXTI->EXTICR[position >> 2U] = tmp;
 458              		.loc 1 251 17 is_stmt 0 view .LVU165
 459 016a A025     		movs	r5, #160
 460 016c ED05     		lsls	r5, r5, #23
 461 016e A842     		cmp	r0, r5
 462 0170 00D1     		bne	.LCB415
 463 0172 4EE7     		b	.L15	@long jump
 464              	.LCB415:
 251:Drivers/STM32C0xx_HAL_Driver/Src/stm32c0xx_hal_gpio.c ****         EXTI->EXTICR[position >> 2U] = tmp;
 465              		.loc 1 251 17 discriminator 1 view .LVU166
ARM GAS  /var/folders/nl/kwfz41d55ync1k9vlz8wmkc80000gn/T//ccmKWUpy.s 			page 16


 466 0174 0D4D     		ldr	r5, .L22+4
 467 0176 A842     		cmp	r0, r5
 468 0178 0BD0     		beq	.L16
 251:Drivers/STM32C0xx_HAL_Driver/Src/stm32c0xx_hal_gpio.c ****         EXTI->EXTICR[position >> 2U] = tmp;
 469              		.loc 1 251 17 discriminator 3 view .LVU167
 470 017a 0D4D     		ldr	r5, .L22+8
 471 017c A842     		cmp	r0, r5
 472 017e 0AD0     		beq	.L17
 251:Drivers/STM32C0xx_HAL_Driver/Src/stm32c0xx_hal_gpio.c ****         EXTI->EXTICR[position >> 2U] = tmp;
 473              		.loc 1 251 17 discriminator 5 view .LVU168
 474 0180 0C4D     		ldr	r5, .L22+12
 475 0182 A842     		cmp	r0, r5
 476 0184 09D0     		beq	.L18
 251:Drivers/STM32C0xx_HAL_Driver/Src/stm32c0xx_hal_gpio.c ****         EXTI->EXTICR[position >> 2U] = tmp;
 477              		.loc 1 251 17 discriminator 7 view .LVU169
 478 0186 0C4D     		ldr	r5, .L22+16
 479 0188 A842     		cmp	r0, r5
 480 018a 00D1     		bne	.LCB427
 481 018c 3FE7     		b	.L21	@long jump
 482              	.LCB427:
 251:Drivers/STM32C0xx_HAL_Driver/Src/stm32c0xx_hal_gpio.c ****         EXTI->EXTICR[position >> 2U] = tmp;
 483              		.loc 1 251 17 view .LVU170
 484 018e 0625     		movs	r5, #6
 485 0190 40E7     		b	.L9
 486              	.L16:
 487 0192 0125     		movs	r5, #1
 488 0194 3EE7     		b	.L9
 489              	.L17:
 490 0196 0225     		movs	r5, #2
 491 0198 3CE7     		b	.L9
 492              	.L18:
 493 019a 0325     		movs	r5, #3
 494 019c 3AE7     		b	.L9
 495              	.LVL55:
 496              	.L20:
 291:Drivers/STM32C0xx_HAL_Driver/Src/stm32c0xx_hal_gpio.c ****   }
 292:Drivers/STM32C0xx_HAL_Driver/Src/stm32c0xx_hal_gpio.c **** }
 497              		.loc 1 292 1 view .LVU171
 498              		@ sp needed
 499 019e E0BC     		pop	{r5, r6, r7}
 500 01a0 BA46     		mov	r10, r7
 501 01a2 B146     		mov	r9, r6
 502 01a4 A846     		mov	r8, r5
 503 01a6 F0BD     		pop	{r4, r5, r6, r7, pc}
 504              	.L23:
 505              		.align	2
 506              	.L22:
 507 01a8 00180240 		.word	1073879040
 508 01ac 00040050 		.word	1342178304
 509 01b0 00080050 		.word	1342179328
 510 01b4 000C0050 		.word	1342180352
 511 01b8 00140050 		.word	1342182400
 512              		.cfi_endproc
 513              	.LFE214:
 515              		.section	.text.HAL_GPIO_DeInit,"ax",%progbits
 516              		.align	1
 517              		.global	HAL_GPIO_DeInit
ARM GAS  /var/folders/nl/kwfz41d55ync1k9vlz8wmkc80000gn/T//ccmKWUpy.s 			page 17


 518              		.syntax unified
 519              		.code	16
 520              		.thumb_func
 522              	HAL_GPIO_DeInit:
 523              	.LVL56:
 524              	.LFB215:
 293:Drivers/STM32C0xx_HAL_Driver/Src/stm32c0xx_hal_gpio.c **** 
 294:Drivers/STM32C0xx_HAL_Driver/Src/stm32c0xx_hal_gpio.c **** /**
 295:Drivers/STM32C0xx_HAL_Driver/Src/stm32c0xx_hal_gpio.c ****   * @brief  De-initialize the GPIOx peripheral registers to their default reset values.
 296:Drivers/STM32C0xx_HAL_Driver/Src/stm32c0xx_hal_gpio.c ****   * @param  GPIOx where x can be (A..F) to select the GPIO peripheral for STM32C0xx family
 297:Drivers/STM32C0xx_HAL_Driver/Src/stm32c0xx_hal_gpio.c ****   * @param  GPIO_Pin specifies the port bit to be written.
 298:Drivers/STM32C0xx_HAL_Driver/Src/stm32c0xx_hal_gpio.c ****   *         This parameter can be any combination of GPIO_Pin_x where x can be (0..15).
 299:Drivers/STM32C0xx_HAL_Driver/Src/stm32c0xx_hal_gpio.c ****   * @retval None
 300:Drivers/STM32C0xx_HAL_Driver/Src/stm32c0xx_hal_gpio.c ****   */
 301:Drivers/STM32C0xx_HAL_Driver/Src/stm32c0xx_hal_gpio.c **** void HAL_GPIO_DeInit(GPIO_TypeDef  *GPIOx, uint32_t GPIO_Pin)
 302:Drivers/STM32C0xx_HAL_Driver/Src/stm32c0xx_hal_gpio.c **** {
 525              		.loc 1 302 1 is_stmt 1 view -0
 526              		.cfi_startproc
 527              		@ args = 0, pretend = 0, frame = 0
 528              		@ frame_needed = 0, uses_anonymous_args = 0
 529              		.loc 1 302 1 is_stmt 0 view .LVU173
 530 0000 F0B5     		push	{r4, r5, r6, r7, lr}
 531              	.LCFI2:
 532              		.cfi_def_cfa_offset 20
 533              		.cfi_offset 4, -20
 534              		.cfi_offset 5, -16
 535              		.cfi_offset 6, -12
 536              		.cfi_offset 7, -8
 537              		.cfi_offset 14, -4
 538 0002 CE46     		mov	lr, r9
 539 0004 4746     		mov	r7, r8
 540 0006 80B5     		push	{r7, lr}
 541              	.LCFI3:
 542              		.cfi_def_cfa_offset 28
 543              		.cfi_offset 8, -28
 544              		.cfi_offset 9, -24
 545 0008 8946     		mov	r9, r1
 303:Drivers/STM32C0xx_HAL_Driver/Src/stm32c0xx_hal_gpio.c ****   uint32_t tmp;
 546              		.loc 1 303 3 is_stmt 1 view .LVU174
 304:Drivers/STM32C0xx_HAL_Driver/Src/stm32c0xx_hal_gpio.c ****   uint32_t iocurrent;
 547              		.loc 1 304 3 view .LVU175
 305:Drivers/STM32C0xx_HAL_Driver/Src/stm32c0xx_hal_gpio.c ****   uint32_t position = 0U;
 548              		.loc 1 305 3 view .LVU176
 549              	.LVL57:
 306:Drivers/STM32C0xx_HAL_Driver/Src/stm32c0xx_hal_gpio.c **** 
 307:Drivers/STM32C0xx_HAL_Driver/Src/stm32c0xx_hal_gpio.c ****   /* Check the parameters */
 308:Drivers/STM32C0xx_HAL_Driver/Src/stm32c0xx_hal_gpio.c ****   assert_param(IS_GPIO_ALL_INSTANCE(GPIOx));
 550              		.loc 1 308 3 view .LVU177
 309:Drivers/STM32C0xx_HAL_Driver/Src/stm32c0xx_hal_gpio.c ****   assert_param(IS_GPIO_PIN(GPIO_Pin));
 551              		.loc 1 309 3 view .LVU178
 310:Drivers/STM32C0xx_HAL_Driver/Src/stm32c0xx_hal_gpio.c **** 
 311:Drivers/STM32C0xx_HAL_Driver/Src/stm32c0xx_hal_gpio.c ****   /* Configure the port pins */
 312:Drivers/STM32C0xx_HAL_Driver/Src/stm32c0xx_hal_gpio.c ****   while ((GPIO_Pin >> position) != 0U)
 552              		.loc 1 312 3 view .LVU179
 305:Drivers/STM32C0xx_HAL_Driver/Src/stm32c0xx_hal_gpio.c **** 
 553              		.loc 1 305 12 is_stmt 0 view .LVU180
 554 000a 0023     		movs	r3, #0
ARM GAS  /var/folders/nl/kwfz41d55ync1k9vlz8wmkc80000gn/T//ccmKWUpy.s 			page 18


 555              		.loc 1 312 9 view .LVU181
 556 000c 23E0     		b	.L25
 557              	.LVL58:
 558              	.L37:
 313:Drivers/STM32C0xx_HAL_Driver/Src/stm32c0xx_hal_gpio.c ****   {
 314:Drivers/STM32C0xx_HAL_Driver/Src/stm32c0xx_hal_gpio.c ****     /* Get current io position */
 315:Drivers/STM32C0xx_HAL_Driver/Src/stm32c0xx_hal_gpio.c ****     iocurrent = (GPIO_Pin) & (1UL << position);
 316:Drivers/STM32C0xx_HAL_Driver/Src/stm32c0xx_hal_gpio.c **** 
 317:Drivers/STM32C0xx_HAL_Driver/Src/stm32c0xx_hal_gpio.c ****     if (iocurrent != 0U)
 318:Drivers/STM32C0xx_HAL_Driver/Src/stm32c0xx_hal_gpio.c ****     {
 319:Drivers/STM32C0xx_HAL_Driver/Src/stm32c0xx_hal_gpio.c ****       /*------------------------- EXTI Mode Configuration --------------------*/
 320:Drivers/STM32C0xx_HAL_Driver/Src/stm32c0xx_hal_gpio.c ****       /* Clear the External Interrupt or Event for the current IO */
 321:Drivers/STM32C0xx_HAL_Driver/Src/stm32c0xx_hal_gpio.c ****       tmp = EXTI->EXTICR[position >> 2U];
 322:Drivers/STM32C0xx_HAL_Driver/Src/stm32c0xx_hal_gpio.c ****       tmp &= ((0x0FUL) << (8U * (position & 0x03U)));
 323:Drivers/STM32C0xx_HAL_Driver/Src/stm32c0xx_hal_gpio.c ****       if (tmp == (GPIO_GET_INDEX(GPIOx) << (8U * (position & 0x03U))))
 559              		.loc 1 323 19 view .LVU182
 560 000e 0521     		movs	r1, #5
 561 0010 8846     		mov	r8, r1
 562 0012 01E0     		b	.L27
 563              	.L30:
 564 0014 0021     		movs	r1, #0
 565 0016 8846     		mov	r8, r1
 566              	.L27:
 567              		.loc 1 323 41 discriminator 20 view .LVU183
 568 0018 4146     		mov	r1, r8
 569 001a A140     		lsls	r1, r1, r4
 570              		.loc 1 323 10 discriminator 20 view .LVU184
 571 001c A942     		cmp	r1, r5
 572 001e 4DD0     		beq	.L35
 573              	.LVL59:
 574              	.L28:
 324:Drivers/STM32C0xx_HAL_Driver/Src/stm32c0xx_hal_gpio.c ****       {
 325:Drivers/STM32C0xx_HAL_Driver/Src/stm32c0xx_hal_gpio.c ****         /* Clear EXTI line configuration */
 326:Drivers/STM32C0xx_HAL_Driver/Src/stm32c0xx_hal_gpio.c ****         EXTI->IMR1 &= ~(iocurrent);
 327:Drivers/STM32C0xx_HAL_Driver/Src/stm32c0xx_hal_gpio.c ****         EXTI->EMR1 &= ~(iocurrent);
 328:Drivers/STM32C0xx_HAL_Driver/Src/stm32c0xx_hal_gpio.c **** 
 329:Drivers/STM32C0xx_HAL_Driver/Src/stm32c0xx_hal_gpio.c ****         /* Clear Rising Falling edge configuration */
 330:Drivers/STM32C0xx_HAL_Driver/Src/stm32c0xx_hal_gpio.c ****         EXTI->RTSR1 &= ~(iocurrent);
 331:Drivers/STM32C0xx_HAL_Driver/Src/stm32c0xx_hal_gpio.c ****         EXTI->FTSR1 &= ~(iocurrent);
 332:Drivers/STM32C0xx_HAL_Driver/Src/stm32c0xx_hal_gpio.c **** 
 333:Drivers/STM32C0xx_HAL_Driver/Src/stm32c0xx_hal_gpio.c ****         tmp = (0x0FUL) << (8U * (position & 0x03U));
 334:Drivers/STM32C0xx_HAL_Driver/Src/stm32c0xx_hal_gpio.c ****         EXTI->EXTICR[position >> 2U] &= ~tmp;
 335:Drivers/STM32C0xx_HAL_Driver/Src/stm32c0xx_hal_gpio.c ****       }
 336:Drivers/STM32C0xx_HAL_Driver/Src/stm32c0xx_hal_gpio.c **** 
 337:Drivers/STM32C0xx_HAL_Driver/Src/stm32c0xx_hal_gpio.c ****       /*------------------------- GPIO Mode Configuration --------------------*/
 338:Drivers/STM32C0xx_HAL_Driver/Src/stm32c0xx_hal_gpio.c ****       /* Configure IO in Analog Mode */
 339:Drivers/STM32C0xx_HAL_Driver/Src/stm32c0xx_hal_gpio.c ****       GPIOx->MODER |= (GPIO_MODER_MODE0 << (position * 2U));
 575              		.loc 1 339 7 is_stmt 1 view .LVU185
 576              		.loc 1 339 20 is_stmt 0 view .LVU186
 577 0020 0468     		ldr	r4, [r0]
 578              		.loc 1 339 54 view .LVU187
 579 0022 5E00     		lsls	r6, r3, #1
 580              		.loc 1 339 41 view .LVU188
 581 0024 0325     		movs	r5, #3
 582 0026 B540     		lsls	r5, r5, r6
 583              		.loc 1 339 20 view .LVU189
 584 0028 2C43     		orrs	r4, r5
ARM GAS  /var/folders/nl/kwfz41d55ync1k9vlz8wmkc80000gn/T//ccmKWUpy.s 			page 19


 585 002a 0460     		str	r4, [r0]
 340:Drivers/STM32C0xx_HAL_Driver/Src/stm32c0xx_hal_gpio.c **** 
 341:Drivers/STM32C0xx_HAL_Driver/Src/stm32c0xx_hal_gpio.c ****       /* Configure the default Alternate Function in current IO */
 342:Drivers/STM32C0xx_HAL_Driver/Src/stm32c0xx_hal_gpio.c ****       GPIOx->AFR[position >> 3U] &= ~(0x0FUL << ((position & 0x07U) * 4U)) ;
 586              		.loc 1 342 7 is_stmt 1 view .LVU190
 587              		.loc 1 342 34 is_stmt 0 view .LVU191
 588 002c DC08     		lsrs	r4, r3, #3
 589 002e 0834     		adds	r4, r4, #8
 590 0030 A400     		lsls	r4, r4, #2
 591 0032 2758     		ldr	r7, [r4, r0]
 592              		.loc 1 342 60 view .LVU192
 593 0034 0726     		movs	r6, #7
 594 0036 1E40     		ands	r6, r3
 595              		.loc 1 342 69 view .LVU193
 596 0038 B600     		lsls	r6, r6, #2
 597              		.loc 1 342 46 view .LVU194
 598 003a 0F21     		movs	r1, #15
 599 003c B140     		lsls	r1, r1, r6
 600              		.loc 1 342 34 view .LVU195
 601 003e 8F43     		bics	r7, r1
 602 0040 2750     		str	r7, [r4, r0]
 343:Drivers/STM32C0xx_HAL_Driver/Src/stm32c0xx_hal_gpio.c **** 
 344:Drivers/STM32C0xx_HAL_Driver/Src/stm32c0xx_hal_gpio.c ****       /* Configure the default value for IO Speed */
 345:Drivers/STM32C0xx_HAL_Driver/Src/stm32c0xx_hal_gpio.c ****       GPIOx->OSPEEDR &= ~(GPIO_OSPEEDR_OSPEED0 << (position * 2U));
 603              		.loc 1 345 7 is_stmt 1 view .LVU196
 604              		.loc 1 345 22 is_stmt 0 view .LVU197
 605 0042 8468     		ldr	r4, [r0, #8]
 606 0044 AC43     		bics	r4, r5
 607 0046 8460     		str	r4, [r0, #8]
 346:Drivers/STM32C0xx_HAL_Driver/Src/stm32c0xx_hal_gpio.c **** 
 347:Drivers/STM32C0xx_HAL_Driver/Src/stm32c0xx_hal_gpio.c ****       /* Configure the default value IO Output Type */
 348:Drivers/STM32C0xx_HAL_Driver/Src/stm32c0xx_hal_gpio.c ****       GPIOx->OTYPER  &= ~(GPIO_OTYPER_OT0 << position);
 608              		.loc 1 348 7 is_stmt 1 view .LVU198
 609              		.loc 1 348 22 is_stmt 0 view .LVU199
 610 0048 4468     		ldr	r4, [r0, #4]
 611 004a 9443     		bics	r4, r2
 612 004c 4460     		str	r4, [r0, #4]
 349:Drivers/STM32C0xx_HAL_Driver/Src/stm32c0xx_hal_gpio.c **** 
 350:Drivers/STM32C0xx_HAL_Driver/Src/stm32c0xx_hal_gpio.c ****       /* Deactivate the Pull-up and Pull-down resistor for the current IO */
 351:Drivers/STM32C0xx_HAL_Driver/Src/stm32c0xx_hal_gpio.c ****       GPIOx->PUPDR &= ~(GPIO_PUPDR_PUPD0 << (position * 2U));
 613              		.loc 1 351 7 is_stmt 1 view .LVU200
 614              		.loc 1 351 20 is_stmt 0 view .LVU201
 615 004e C268     		ldr	r2, [r0, #12]
 616 0050 AA43     		bics	r2, r5
 617 0052 C260     		str	r2, [r0, #12]
 618              	.L26:
 352:Drivers/STM32C0xx_HAL_Driver/Src/stm32c0xx_hal_gpio.c ****     }
 353:Drivers/STM32C0xx_HAL_Driver/Src/stm32c0xx_hal_gpio.c **** 
 354:Drivers/STM32C0xx_HAL_Driver/Src/stm32c0xx_hal_gpio.c ****     position++;
 619              		.loc 1 354 5 is_stmt 1 view .LVU202
 620              		.loc 1 354 13 is_stmt 0 view .LVU203
 621 0054 0133     		adds	r3, r3, #1
 622              	.LVL60:
 623              	.L25:
 312:Drivers/STM32C0xx_HAL_Driver/Src/stm32c0xx_hal_gpio.c ****   {
 624              		.loc 1 312 9 is_stmt 1 view .LVU204
 312:Drivers/STM32C0xx_HAL_Driver/Src/stm32c0xx_hal_gpio.c ****   {
ARM GAS  /var/folders/nl/kwfz41d55ync1k9vlz8wmkc80000gn/T//ccmKWUpy.s 			page 20


 625              		.loc 1 312 20 is_stmt 0 view .LVU205
 626 0056 4A46     		mov	r2, r9
 627 0058 DA40     		lsrs	r2, r2, r3
 312:Drivers/STM32C0xx_HAL_Driver/Src/stm32c0xx_hal_gpio.c ****   {
 628              		.loc 1 312 9 view .LVU206
 629 005a 4CD0     		beq	.L36
 315:Drivers/STM32C0xx_HAL_Driver/Src/stm32c0xx_hal_gpio.c **** 
 630              		.loc 1 315 5 is_stmt 1 view .LVU207
 315:Drivers/STM32C0xx_HAL_Driver/Src/stm32c0xx_hal_gpio.c **** 
 631              		.loc 1 315 35 is_stmt 0 view .LVU208
 632 005c 0122     		movs	r2, #1
 633 005e 9A40     		lsls	r2, r2, r3
 315:Drivers/STM32C0xx_HAL_Driver/Src/stm32c0xx_hal_gpio.c **** 
 634              		.loc 1 315 15 view .LVU209
 635 0060 4C46     		mov	r4, r9
 636 0062 1440     		ands	r4, r2
 637 0064 A446     		mov	ip, r4
 638              	.LVL61:
 317:Drivers/STM32C0xx_HAL_Driver/Src/stm32c0xx_hal_gpio.c ****     {
 639              		.loc 1 317 5 is_stmt 1 view .LVU210
 317:Drivers/STM32C0xx_HAL_Driver/Src/stm32c0xx_hal_gpio.c ****     {
 640              		.loc 1 317 8 is_stmt 0 view .LVU211
 641 0066 4946     		mov	r1, r9
 642 0068 1142     		tst	r1, r2
 643 006a F3D0     		beq	.L26
 644              	.LVL62:
 321:Drivers/STM32C0xx_HAL_Driver/Src/stm32c0xx_hal_gpio.c ****       tmp &= ((0x0FUL) << (8U * (position & 0x03U)));
 645              		.loc 1 321 7 is_stmt 1 view .LVU212
 321:Drivers/STM32C0xx_HAL_Driver/Src/stm32c0xx_hal_gpio.c ****       tmp &= ((0x0FUL) << (8U * (position & 0x03U)));
 646              		.loc 1 321 35 is_stmt 0 view .LVU213
 647 006c 9F08     		lsrs	r7, r3, #2
 321:Drivers/STM32C0xx_HAL_Driver/Src/stm32c0xx_hal_gpio.c ****       tmp &= ((0x0FUL) << (8U * (position & 0x03U)));
 648              		.loc 1 321 11 view .LVU214
 649 006e 3C00     		movs	r4, r7
 650              	.LVL63:
 321:Drivers/STM32C0xx_HAL_Driver/Src/stm32c0xx_hal_gpio.c ****       tmp &= ((0x0FUL) << (8U * (position & 0x03U)));
 651              		.loc 1 321 11 view .LVU215
 652 0070 1834     		adds	r4, r4, #24
 653 0072 A400     		lsls	r4, r4, #2
 654 0074 224D     		ldr	r5, .L38
 655 0076 6559     		ldr	r5, [r4, r5]
 656              	.LVL64:
 322:Drivers/STM32C0xx_HAL_Driver/Src/stm32c0xx_hal_gpio.c ****       if (tmp == (GPIO_GET_INDEX(GPIOx) << (8U * (position & 0x03U))))
 657              		.loc 1 322 7 is_stmt 1 view .LVU216
 322:Drivers/STM32C0xx_HAL_Driver/Src/stm32c0xx_hal_gpio.c ****       if (tmp == (GPIO_GET_INDEX(GPIOx) << (8U * (position & 0x03U))))
 658              		.loc 1 322 43 is_stmt 0 view .LVU217
 659 0078 0324     		movs	r4, #3
 660 007a 1C40     		ands	r4, r3
 322:Drivers/STM32C0xx_HAL_Driver/Src/stm32c0xx_hal_gpio.c ****       if (tmp == (GPIO_GET_INDEX(GPIOx) << (8U * (position & 0x03U))))
 661              		.loc 1 322 31 view .LVU218
 662 007c E400     		lsls	r4, r4, #3
 322:Drivers/STM32C0xx_HAL_Driver/Src/stm32c0xx_hal_gpio.c ****       if (tmp == (GPIO_GET_INDEX(GPIOx) << (8U * (position & 0x03U))))
 663              		.loc 1 322 24 view .LVU219
 664 007e 0F26     		movs	r6, #15
 665 0080 A640     		lsls	r6, r6, r4
 322:Drivers/STM32C0xx_HAL_Driver/Src/stm32c0xx_hal_gpio.c ****       if (tmp == (GPIO_GET_INDEX(GPIOx) << (8U * (position & 0x03U))))
 666              		.loc 1 322 11 view .LVU220
ARM GAS  /var/folders/nl/kwfz41d55ync1k9vlz8wmkc80000gn/T//ccmKWUpy.s 			page 21


 667 0082 3540     		ands	r5, r6
 668              	.LVL65:
 323:Drivers/STM32C0xx_HAL_Driver/Src/stm32c0xx_hal_gpio.c ****       {
 669              		.loc 1 323 7 is_stmt 1 view .LVU221
 323:Drivers/STM32C0xx_HAL_Driver/Src/stm32c0xx_hal_gpio.c ****       {
 670              		.loc 1 323 19 is_stmt 0 view .LVU222
 671 0084 A021     		movs	r1, #160
 672              	.LVL66:
 323:Drivers/STM32C0xx_HAL_Driver/Src/stm32c0xx_hal_gpio.c ****       {
 673              		.loc 1 323 19 view .LVU223
 674 0086 C905     		lsls	r1, r1, #23
 675 0088 8842     		cmp	r0, r1
 676 008a C3D0     		beq	.L30
 323:Drivers/STM32C0xx_HAL_Driver/Src/stm32c0xx_hal_gpio.c ****       {
 677              		.loc 1 323 19 discriminator 1 view .LVU224
 678 008c 1D49     		ldr	r1, .L38+4
 679 008e 8842     		cmp	r0, r1
 680 0090 0BD0     		beq	.L31
 323:Drivers/STM32C0xx_HAL_Driver/Src/stm32c0xx_hal_gpio.c ****       {
 681              		.loc 1 323 19 discriminator 3 view .LVU225
 682 0092 1D49     		ldr	r1, .L38+8
 683 0094 8842     		cmp	r0, r1
 684 0096 0BD0     		beq	.L32
 323:Drivers/STM32C0xx_HAL_Driver/Src/stm32c0xx_hal_gpio.c ****       {
 685              		.loc 1 323 19 discriminator 5 view .LVU226
 686 0098 1C49     		ldr	r1, .L38+12
 687 009a 8842     		cmp	r0, r1
 688 009c 0BD0     		beq	.L33
 323:Drivers/STM32C0xx_HAL_Driver/Src/stm32c0xx_hal_gpio.c ****       {
 689              		.loc 1 323 19 discriminator 7 view .LVU227
 690 009e 1C49     		ldr	r1, .L38+16
 691 00a0 8842     		cmp	r0, r1
 692 00a2 B4D0     		beq	.L37
 323:Drivers/STM32C0xx_HAL_Driver/Src/stm32c0xx_hal_gpio.c ****       {
 693              		.loc 1 323 19 view .LVU228
 694 00a4 0621     		movs	r1, #6
 695 00a6 8846     		mov	r8, r1
 696 00a8 B6E7     		b	.L27
 697              	.L31:
 698 00aa 0121     		movs	r1, #1
 699 00ac 8846     		mov	r8, r1
 700 00ae B3E7     		b	.L27
 701              	.L32:
 702 00b0 0221     		movs	r1, #2
 703 00b2 8846     		mov	r8, r1
 704 00b4 B0E7     		b	.L27
 705              	.L33:
 706 00b6 0321     		movs	r1, #3
 707 00b8 8846     		mov	r8, r1
 708 00ba ADE7     		b	.L27
 709              	.L35:
 326:Drivers/STM32C0xx_HAL_Driver/Src/stm32c0xx_hal_gpio.c ****         EXTI->EMR1 &= ~(iocurrent);
 710              		.loc 1 326 9 is_stmt 1 view .LVU229
 326:Drivers/STM32C0xx_HAL_Driver/Src/stm32c0xx_hal_gpio.c ****         EXTI->EMR1 &= ~(iocurrent);
 711              		.loc 1 326 20 is_stmt 0 view .LVU230
 712 00bc 104D     		ldr	r5, .L38
 713              	.LVL67:
ARM GAS  /var/folders/nl/kwfz41d55ync1k9vlz8wmkc80000gn/T//ccmKWUpy.s 			page 22


 326:Drivers/STM32C0xx_HAL_Driver/Src/stm32c0xx_hal_gpio.c ****         EXTI->EMR1 &= ~(iocurrent);
 714              		.loc 1 326 20 view .LVU231
 715 00be 8021     		movs	r1, #128
 716 00c0 8846     		mov	r8, r1
 717 00c2 6C58     		ldr	r4, [r5, r1]
 718 00c4 6146     		mov	r1, ip
 719 00c6 8C43     		bics	r4, r1
 720 00c8 4146     		mov	r1, r8
 721 00ca 6C50     		str	r4, [r5, r1]
 327:Drivers/STM32C0xx_HAL_Driver/Src/stm32c0xx_hal_gpio.c **** 
 722              		.loc 1 327 9 is_stmt 1 view .LVU232
 327:Drivers/STM32C0xx_HAL_Driver/Src/stm32c0xx_hal_gpio.c **** 
 723              		.loc 1 327 20 is_stmt 0 view .LVU233
 724 00cc 0431     		adds	r1, r1, #4
 725 00ce 8846     		mov	r8, r1
 726 00d0 6C58     		ldr	r4, [r5, r1]
 727 00d2 6146     		mov	r1, ip
 728 00d4 8C43     		bics	r4, r1
 729 00d6 4146     		mov	r1, r8
 730 00d8 6C50     		str	r4, [r5, r1]
 330:Drivers/STM32C0xx_HAL_Driver/Src/stm32c0xx_hal_gpio.c ****         EXTI->FTSR1 &= ~(iocurrent);
 731              		.loc 1 330 9 is_stmt 1 view .LVU234
 330:Drivers/STM32C0xx_HAL_Driver/Src/stm32c0xx_hal_gpio.c ****         EXTI->FTSR1 &= ~(iocurrent);
 732              		.loc 1 330 21 is_stmt 0 view .LVU235
 733 00da 2C68     		ldr	r4, [r5]
 734 00dc 6146     		mov	r1, ip
 735 00de 8C43     		bics	r4, r1
 736 00e0 2C60     		str	r4, [r5]
 331:Drivers/STM32C0xx_HAL_Driver/Src/stm32c0xx_hal_gpio.c **** 
 737              		.loc 1 331 9 is_stmt 1 view .LVU236
 331:Drivers/STM32C0xx_HAL_Driver/Src/stm32c0xx_hal_gpio.c **** 
 738              		.loc 1 331 21 is_stmt 0 view .LVU237
 739 00e2 6C68     		ldr	r4, [r5, #4]
 740 00e4 8C43     		bics	r4, r1
 741 00e6 6C60     		str	r4, [r5, #4]
 333:Drivers/STM32C0xx_HAL_Driver/Src/stm32c0xx_hal_gpio.c ****         EXTI->EXTICR[position >> 2U] &= ~tmp;
 742              		.loc 1 333 9 is_stmt 1 view .LVU238
 743              	.LVL68:
 334:Drivers/STM32C0xx_HAL_Driver/Src/stm32c0xx_hal_gpio.c ****       }
 744              		.loc 1 334 9 view .LVU239
 334:Drivers/STM32C0xx_HAL_Driver/Src/stm32c0xx_hal_gpio.c ****       }
 745              		.loc 1 334 38 is_stmt 0 view .LVU240
 746 00e8 3C00     		movs	r4, r7
 747 00ea 1834     		adds	r4, r4, #24
 748 00ec A400     		lsls	r4, r4, #2
 749 00ee 6759     		ldr	r7, [r4, r5]
 750 00f0 B743     		bics	r7, r6
 751 00f2 6751     		str	r7, [r4, r5]
 752 00f4 94E7     		b	.L28
 753              	.LVL69:
 754              	.L36:
 355:Drivers/STM32C0xx_HAL_Driver/Src/stm32c0xx_hal_gpio.c ****   }
 356:Drivers/STM32C0xx_HAL_Driver/Src/stm32c0xx_hal_gpio.c **** }
 755              		.loc 1 356 1 view .LVU241
 756              		@ sp needed
 757              	.LVL70:
 758              		.loc 1 356 1 view .LVU242
ARM GAS  /var/folders/nl/kwfz41d55ync1k9vlz8wmkc80000gn/T//ccmKWUpy.s 			page 23


 759 00f6 C0BC     		pop	{r6, r7}
 760 00f8 B946     		mov	r9, r7
 761 00fa B046     		mov	r8, r6
 762 00fc F0BD     		pop	{r4, r5, r6, r7, pc}
 763              	.L39:
 764 00fe C046     		.align	2
 765              	.L38:
 766 0100 00180240 		.word	1073879040
 767 0104 00040050 		.word	1342178304
 768 0108 00080050 		.word	1342179328
 769 010c 000C0050 		.word	1342180352
 770 0110 00140050 		.word	1342182400
 771              		.cfi_endproc
 772              	.LFE215:
 774              		.section	.text.HAL_GPIO_ReadPin,"ax",%progbits
 775              		.align	1
 776              		.global	HAL_GPIO_ReadPin
 777              		.syntax unified
 778              		.code	16
 779              		.thumb_func
 781              	HAL_GPIO_ReadPin:
 782              	.LVL71:
 783              	.LFB216:
 357:Drivers/STM32C0xx_HAL_Driver/Src/stm32c0xx_hal_gpio.c **** 
 358:Drivers/STM32C0xx_HAL_Driver/Src/stm32c0xx_hal_gpio.c **** /**
 359:Drivers/STM32C0xx_HAL_Driver/Src/stm32c0xx_hal_gpio.c ****   * @}
 360:Drivers/STM32C0xx_HAL_Driver/Src/stm32c0xx_hal_gpio.c ****   */
 361:Drivers/STM32C0xx_HAL_Driver/Src/stm32c0xx_hal_gpio.c **** 
 362:Drivers/STM32C0xx_HAL_Driver/Src/stm32c0xx_hal_gpio.c **** /** @addtogroup GPIO_Exported_Functions_Group2
 363:Drivers/STM32C0xx_HAL_Driver/Src/stm32c0xx_hal_gpio.c ****   *  @brief GPIO Read, Write, Toggle, Lock and EXTI management functions.
 364:Drivers/STM32C0xx_HAL_Driver/Src/stm32c0xx_hal_gpio.c ****   *
 365:Drivers/STM32C0xx_HAL_Driver/Src/stm32c0xx_hal_gpio.c **** @verbatim
 366:Drivers/STM32C0xx_HAL_Driver/Src/stm32c0xx_hal_gpio.c ****  ===============================================================================
 367:Drivers/STM32C0xx_HAL_Driver/Src/stm32c0xx_hal_gpio.c ****                        ##### IO operation functions #####
 368:Drivers/STM32C0xx_HAL_Driver/Src/stm32c0xx_hal_gpio.c ****  ===============================================================================
 369:Drivers/STM32C0xx_HAL_Driver/Src/stm32c0xx_hal_gpio.c **** 
 370:Drivers/STM32C0xx_HAL_Driver/Src/stm32c0xx_hal_gpio.c **** @endverbatim
 371:Drivers/STM32C0xx_HAL_Driver/Src/stm32c0xx_hal_gpio.c ****   * @{
 372:Drivers/STM32C0xx_HAL_Driver/Src/stm32c0xx_hal_gpio.c ****   */
 373:Drivers/STM32C0xx_HAL_Driver/Src/stm32c0xx_hal_gpio.c **** 
 374:Drivers/STM32C0xx_HAL_Driver/Src/stm32c0xx_hal_gpio.c **** /**
 375:Drivers/STM32C0xx_HAL_Driver/Src/stm32c0xx_hal_gpio.c ****   * @brief  Read the specified input port pin.
 376:Drivers/STM32C0xx_HAL_Driver/Src/stm32c0xx_hal_gpio.c ****   * @param  GPIOx where x can be (A..F) to select the GPIO peripheral for STM32C0xx family
 377:Drivers/STM32C0xx_HAL_Driver/Src/stm32c0xx_hal_gpio.c ****   * @param  GPIO_Pin specifies the port bit to read.
 378:Drivers/STM32C0xx_HAL_Driver/Src/stm32c0xx_hal_gpio.c ****   *         This parameter can be any combination of GPIO_Pin_x where x can be (0..15).
 379:Drivers/STM32C0xx_HAL_Driver/Src/stm32c0xx_hal_gpio.c ****   * @retval The input port pin value.
 380:Drivers/STM32C0xx_HAL_Driver/Src/stm32c0xx_hal_gpio.c ****   */
 381:Drivers/STM32C0xx_HAL_Driver/Src/stm32c0xx_hal_gpio.c **** GPIO_PinState HAL_GPIO_ReadPin(const GPIO_TypeDef *GPIOx, uint16_t GPIO_Pin)
 382:Drivers/STM32C0xx_HAL_Driver/Src/stm32c0xx_hal_gpio.c **** {
 784              		.loc 1 382 1 is_stmt 1 view -0
 785              		.cfi_startproc
 786              		@ args = 0, pretend = 0, frame = 0
 787              		@ frame_needed = 0, uses_anonymous_args = 0
 788              		@ link register save eliminated.
 383:Drivers/STM32C0xx_HAL_Driver/Src/stm32c0xx_hal_gpio.c ****   GPIO_PinState bitstatus;
 789              		.loc 1 383 3 view .LVU244
 384:Drivers/STM32C0xx_HAL_Driver/Src/stm32c0xx_hal_gpio.c **** 
ARM GAS  /var/folders/nl/kwfz41d55ync1k9vlz8wmkc80000gn/T//ccmKWUpy.s 			page 24


 385:Drivers/STM32C0xx_HAL_Driver/Src/stm32c0xx_hal_gpio.c ****   /* Check the parameters */
 386:Drivers/STM32C0xx_HAL_Driver/Src/stm32c0xx_hal_gpio.c ****   assert_param(IS_GPIO_PIN(GPIO_Pin));
 790              		.loc 1 386 3 view .LVU245
 387:Drivers/STM32C0xx_HAL_Driver/Src/stm32c0xx_hal_gpio.c **** 
 388:Drivers/STM32C0xx_HAL_Driver/Src/stm32c0xx_hal_gpio.c ****   if ((GPIOx->IDR & GPIO_Pin) != 0U)
 791              		.loc 1 388 3 view .LVU246
 792              		.loc 1 388 13 is_stmt 0 view .LVU247
 793 0000 0369     		ldr	r3, [r0, #16]
 794              		.loc 1 388 6 view .LVU248
 795 0002 0B42     		tst	r3, r1
 796 0004 01D0     		beq	.L42
 389:Drivers/STM32C0xx_HAL_Driver/Src/stm32c0xx_hal_gpio.c ****   {
 390:Drivers/STM32C0xx_HAL_Driver/Src/stm32c0xx_hal_gpio.c ****     bitstatus = GPIO_PIN_SET;
 797              		.loc 1 390 15 view .LVU249
 798 0006 0120     		movs	r0, #1
 799              	.LVL72:
 800              	.L41:
 391:Drivers/STM32C0xx_HAL_Driver/Src/stm32c0xx_hal_gpio.c ****   }
 392:Drivers/STM32C0xx_HAL_Driver/Src/stm32c0xx_hal_gpio.c ****   else
 393:Drivers/STM32C0xx_HAL_Driver/Src/stm32c0xx_hal_gpio.c ****   {
 394:Drivers/STM32C0xx_HAL_Driver/Src/stm32c0xx_hal_gpio.c ****     bitstatus = GPIO_PIN_RESET;
 395:Drivers/STM32C0xx_HAL_Driver/Src/stm32c0xx_hal_gpio.c ****   }
 396:Drivers/STM32C0xx_HAL_Driver/Src/stm32c0xx_hal_gpio.c ****   return bitstatus;
 801              		.loc 1 396 3 is_stmt 1 view .LVU250
 397:Drivers/STM32C0xx_HAL_Driver/Src/stm32c0xx_hal_gpio.c **** }
 802              		.loc 1 397 1 is_stmt 0 view .LVU251
 803              		@ sp needed
 804 0008 7047     		bx	lr
 805              	.LVL73:
 806              	.L42:
 394:Drivers/STM32C0xx_HAL_Driver/Src/stm32c0xx_hal_gpio.c ****   }
 807              		.loc 1 394 15 view .LVU252
 808 000a 0020     		movs	r0, #0
 809              	.LVL74:
 394:Drivers/STM32C0xx_HAL_Driver/Src/stm32c0xx_hal_gpio.c ****   }
 810              		.loc 1 394 15 view .LVU253
 811 000c FCE7     		b	.L41
 812              		.cfi_endproc
 813              	.LFE216:
 815              		.section	.text.HAL_GPIO_WritePin,"ax",%progbits
 816              		.align	1
 817              		.global	HAL_GPIO_WritePin
 818              		.syntax unified
 819              		.code	16
 820              		.thumb_func
 822              	HAL_GPIO_WritePin:
 823              	.LVL75:
 824              	.LFB217:
 398:Drivers/STM32C0xx_HAL_Driver/Src/stm32c0xx_hal_gpio.c **** 
 399:Drivers/STM32C0xx_HAL_Driver/Src/stm32c0xx_hal_gpio.c **** /**
 400:Drivers/STM32C0xx_HAL_Driver/Src/stm32c0xx_hal_gpio.c ****   * @brief  Set or clear the selected data port bit.
 401:Drivers/STM32C0xx_HAL_Driver/Src/stm32c0xx_hal_gpio.c ****   * @note   This function uses GPIOx_BSRR and GPIOx_BRR registers to allow atomic read/modify
 402:Drivers/STM32C0xx_HAL_Driver/Src/stm32c0xx_hal_gpio.c ****   *         accesses. In this way, there is no risk of an IRQ occurring between
 403:Drivers/STM32C0xx_HAL_Driver/Src/stm32c0xx_hal_gpio.c ****   *         the read and the modify access.
 404:Drivers/STM32C0xx_HAL_Driver/Src/stm32c0xx_hal_gpio.c ****   * @param  GPIOx where x can be (A..F) to select the GPIO peripheral for STM32C0xx family
 405:Drivers/STM32C0xx_HAL_Driver/Src/stm32c0xx_hal_gpio.c ****   * @param  GPIO_Pin specifies the port bit to be written.
 406:Drivers/STM32C0xx_HAL_Driver/Src/stm32c0xx_hal_gpio.c ****   *         This parameter can be any combination of GPIO_Pin_x where x can be (0..15).
ARM GAS  /var/folders/nl/kwfz41d55ync1k9vlz8wmkc80000gn/T//ccmKWUpy.s 			page 25


 407:Drivers/STM32C0xx_HAL_Driver/Src/stm32c0xx_hal_gpio.c ****   * @param  PinState specifies the value to be written to the selected bit.
 408:Drivers/STM32C0xx_HAL_Driver/Src/stm32c0xx_hal_gpio.c ****   *         This parameter can be one of the GPIO_PinState enum values:
 409:Drivers/STM32C0xx_HAL_Driver/Src/stm32c0xx_hal_gpio.c ****   *            @arg GPIO_PIN_RESET: to clear the port pin
 410:Drivers/STM32C0xx_HAL_Driver/Src/stm32c0xx_hal_gpio.c ****   *            @arg GPIO_PIN_SET: to set the port pin
 411:Drivers/STM32C0xx_HAL_Driver/Src/stm32c0xx_hal_gpio.c ****   * @retval None
 412:Drivers/STM32C0xx_HAL_Driver/Src/stm32c0xx_hal_gpio.c ****   */
 413:Drivers/STM32C0xx_HAL_Driver/Src/stm32c0xx_hal_gpio.c **** void HAL_GPIO_WritePin(GPIO_TypeDef *GPIOx, uint16_t GPIO_Pin, GPIO_PinState PinState)
 414:Drivers/STM32C0xx_HAL_Driver/Src/stm32c0xx_hal_gpio.c **** {
 825              		.loc 1 414 1 is_stmt 1 view -0
 826              		.cfi_startproc
 827              		@ args = 0, pretend = 0, frame = 0
 828              		@ frame_needed = 0, uses_anonymous_args = 0
 829              		@ link register save eliminated.
 415:Drivers/STM32C0xx_HAL_Driver/Src/stm32c0xx_hal_gpio.c ****   /* Check the parameters */
 416:Drivers/STM32C0xx_HAL_Driver/Src/stm32c0xx_hal_gpio.c ****   assert_param(IS_GPIO_PIN(GPIO_Pin));
 830              		.loc 1 416 3 view .LVU255
 417:Drivers/STM32C0xx_HAL_Driver/Src/stm32c0xx_hal_gpio.c ****   assert_param(IS_GPIO_PIN_ACTION(PinState));
 831              		.loc 1 417 3 view .LVU256
 418:Drivers/STM32C0xx_HAL_Driver/Src/stm32c0xx_hal_gpio.c **** 
 419:Drivers/STM32C0xx_HAL_Driver/Src/stm32c0xx_hal_gpio.c ****   if (PinState != GPIO_PIN_RESET)
 832              		.loc 1 419 3 view .LVU257
 833              		.loc 1 419 6 is_stmt 0 view .LVU258
 834 0000 002A     		cmp	r2, #0
 835 0002 01D0     		beq	.L44
 420:Drivers/STM32C0xx_HAL_Driver/Src/stm32c0xx_hal_gpio.c ****   {
 421:Drivers/STM32C0xx_HAL_Driver/Src/stm32c0xx_hal_gpio.c ****     GPIOx->BSRR = (uint32_t)GPIO_Pin;
 836              		.loc 1 421 5 is_stmt 1 view .LVU259
 837              		.loc 1 421 17 is_stmt 0 view .LVU260
 838 0004 8161     		str	r1, [r0, #24]
 839              	.L43:
 422:Drivers/STM32C0xx_HAL_Driver/Src/stm32c0xx_hal_gpio.c ****   }
 423:Drivers/STM32C0xx_HAL_Driver/Src/stm32c0xx_hal_gpio.c ****   else
 424:Drivers/STM32C0xx_HAL_Driver/Src/stm32c0xx_hal_gpio.c ****   {
 425:Drivers/STM32C0xx_HAL_Driver/Src/stm32c0xx_hal_gpio.c ****     GPIOx->BRR = (uint32_t)GPIO_Pin;
 426:Drivers/STM32C0xx_HAL_Driver/Src/stm32c0xx_hal_gpio.c ****   }
 427:Drivers/STM32C0xx_HAL_Driver/Src/stm32c0xx_hal_gpio.c **** }
 840              		.loc 1 427 1 view .LVU261
 841              		@ sp needed
 842 0006 7047     		bx	lr
 843              	.L44:
 425:Drivers/STM32C0xx_HAL_Driver/Src/stm32c0xx_hal_gpio.c ****   }
 844              		.loc 1 425 5 is_stmt 1 view .LVU262
 425:Drivers/STM32C0xx_HAL_Driver/Src/stm32c0xx_hal_gpio.c ****   }
 845              		.loc 1 425 16 is_stmt 0 view .LVU263
 846 0008 8162     		str	r1, [r0, #40]
 847              		.loc 1 427 1 view .LVU264
 848 000a FCE7     		b	.L43
 849              		.cfi_endproc
 850              	.LFE217:
 852              		.section	.text.HAL_GPIO_WriteMultipleStatePin,"ax",%progbits
 853              		.align	1
 854              		.global	HAL_GPIO_WriteMultipleStatePin
 855              		.syntax unified
 856              		.code	16
 857              		.thumb_func
 859              	HAL_GPIO_WriteMultipleStatePin:
 860              	.LVL76:
ARM GAS  /var/folders/nl/kwfz41d55ync1k9vlz8wmkc80000gn/T//ccmKWUpy.s 			page 26


 861              	.LFB218:
 428:Drivers/STM32C0xx_HAL_Driver/Src/stm32c0xx_hal_gpio.c **** 
 429:Drivers/STM32C0xx_HAL_Driver/Src/stm32c0xx_hal_gpio.c **** /**
 430:Drivers/STM32C0xx_HAL_Driver/Src/stm32c0xx_hal_gpio.c ****   * @brief  Set and clear several pins of a dedicated port in same cycle.
 431:Drivers/STM32C0xx_HAL_Driver/Src/stm32c0xx_hal_gpio.c ****   * @note   This function uses GPIOx_BSRR and GPIOx_BRR registers to allow atomic read/modify
 432:Drivers/STM32C0xx_HAL_Driver/Src/stm32c0xx_hal_gpio.c ****   *         accesses.
 433:Drivers/STM32C0xx_HAL_Driver/Src/stm32c0xx_hal_gpio.c ****   * @param  GPIOx where x can be (A..F) to select the GPIO peripheral for STM32C0xx family
 434:Drivers/STM32C0xx_HAL_Driver/Src/stm32c0xx_hal_gpio.c ****   * @param  PinReset specifies the port bits to be reset
 435:Drivers/STM32C0xx_HAL_Driver/Src/stm32c0xx_hal_gpio.c ****   *         This parameter can be any combination of GPIO_Pin_x where x can be (0..15) or zero.
 436:Drivers/STM32C0xx_HAL_Driver/Src/stm32c0xx_hal_gpio.c ****   * @param  PinSet specifies the port bits to be set
 437:Drivers/STM32C0xx_HAL_Driver/Src/stm32c0xx_hal_gpio.c ****   *         This parameter can be any combination of GPIO_Pin_x where x can be (0..15) or zero.
 438:Drivers/STM32C0xx_HAL_Driver/Src/stm32c0xx_hal_gpio.c ****   * @note   Both PinReset and PinSet combinations shall not get any common bit, else
 439:Drivers/STM32C0xx_HAL_Driver/Src/stm32c0xx_hal_gpio.c ****   *         assert would be triggered.
 440:Drivers/STM32C0xx_HAL_Driver/Src/stm32c0xx_hal_gpio.c ****   * @note   At least one of the two parameters used to set or reset shall be different from zero.
 441:Drivers/STM32C0xx_HAL_Driver/Src/stm32c0xx_hal_gpio.c ****   * @retval None
 442:Drivers/STM32C0xx_HAL_Driver/Src/stm32c0xx_hal_gpio.c ****   */
 443:Drivers/STM32C0xx_HAL_Driver/Src/stm32c0xx_hal_gpio.c **** void HAL_GPIO_WriteMultipleStatePin(GPIO_TypeDef *GPIOx, uint16_t PinReset, uint16_t PinSet)
 444:Drivers/STM32C0xx_HAL_Driver/Src/stm32c0xx_hal_gpio.c **** {
 862              		.loc 1 444 1 is_stmt 1 view -0
 863              		.cfi_startproc
 864              		@ args = 0, pretend = 0, frame = 0
 865              		@ frame_needed = 0, uses_anonymous_args = 0
 866              		@ link register save eliminated.
 445:Drivers/STM32C0xx_HAL_Driver/Src/stm32c0xx_hal_gpio.c ****   uint32_t tmp;
 867              		.loc 1 445 3 view .LVU266
 446:Drivers/STM32C0xx_HAL_Driver/Src/stm32c0xx_hal_gpio.c **** 
 447:Drivers/STM32C0xx_HAL_Driver/Src/stm32c0xx_hal_gpio.c ****   /* Check the parameters */
 448:Drivers/STM32C0xx_HAL_Driver/Src/stm32c0xx_hal_gpio.c ****   /* Make sure at least one parameter is different from zero and that there is no common pin */
 449:Drivers/STM32C0xx_HAL_Driver/Src/stm32c0xx_hal_gpio.c ****   assert_param(IS_GPIO_PIN((uint32_t)PinReset | (uint32_t)PinSet));
 868              		.loc 1 449 3 view .LVU267
 450:Drivers/STM32C0xx_HAL_Driver/Src/stm32c0xx_hal_gpio.c ****   assert_param(IS_GPIO_COMMON_PIN(PinReset, PinSet));
 869              		.loc 1 450 3 view .LVU268
 451:Drivers/STM32C0xx_HAL_Driver/Src/stm32c0xx_hal_gpio.c **** 
 452:Drivers/STM32C0xx_HAL_Driver/Src/stm32c0xx_hal_gpio.c ****   tmp = (((uint32_t)PinReset << 16) | PinSet);
 870              		.loc 1 452 3 view .LVU269
 871              		.loc 1 452 30 is_stmt 0 view .LVU270
 872 0000 0904     		lsls	r1, r1, #16
 873              	.LVL77:
 874              		.loc 1 452 7 view .LVU271
 875 0002 1143     		orrs	r1, r2
 876              	.LVL78:
 453:Drivers/STM32C0xx_HAL_Driver/Src/stm32c0xx_hal_gpio.c ****   GPIOx->BSRR = tmp;
 877              		.loc 1 453 3 is_stmt 1 view .LVU272
 878              		.loc 1 453 15 is_stmt 0 view .LVU273
 879 0004 8161     		str	r1, [r0, #24]
 454:Drivers/STM32C0xx_HAL_Driver/Src/stm32c0xx_hal_gpio.c **** }
 880              		.loc 1 454 1 view .LVU274
 881              		@ sp needed
 882 0006 7047     		bx	lr
 883              		.cfi_endproc
 884              	.LFE218:
 886              		.section	.text.HAL_GPIO_TogglePin,"ax",%progbits
 887              		.align	1
 888              		.global	HAL_GPIO_TogglePin
 889              		.syntax unified
 890              		.code	16
 891              		.thumb_func
ARM GAS  /var/folders/nl/kwfz41d55ync1k9vlz8wmkc80000gn/T//ccmKWUpy.s 			page 27


 893              	HAL_GPIO_TogglePin:
 894              	.LVL79:
 895              	.LFB219:
 455:Drivers/STM32C0xx_HAL_Driver/Src/stm32c0xx_hal_gpio.c **** 
 456:Drivers/STM32C0xx_HAL_Driver/Src/stm32c0xx_hal_gpio.c **** /**
 457:Drivers/STM32C0xx_HAL_Driver/Src/stm32c0xx_hal_gpio.c ****   * @brief  Toggle the specified GPIO pin.
 458:Drivers/STM32C0xx_HAL_Driver/Src/stm32c0xx_hal_gpio.c ****   * @param  GPIOx: where x can be (A..I) to select the GPIO peripheral for STM32C0 family
 459:Drivers/STM32C0xx_HAL_Driver/Src/stm32c0xx_hal_gpio.c ****   * @param  GPIO_Pin: specifies the pin to be toggled.
 460:Drivers/STM32C0xx_HAL_Driver/Src/stm32c0xx_hal_gpio.c ****   * @retval None
 461:Drivers/STM32C0xx_HAL_Driver/Src/stm32c0xx_hal_gpio.c ****   */
 462:Drivers/STM32C0xx_HAL_Driver/Src/stm32c0xx_hal_gpio.c **** void HAL_GPIO_TogglePin(GPIO_TypeDef *GPIOx, uint16_t GPIO_Pin)
 463:Drivers/STM32C0xx_HAL_Driver/Src/stm32c0xx_hal_gpio.c **** {
 896              		.loc 1 463 1 is_stmt 1 view -0
 897              		.cfi_startproc
 898              		@ args = 0, pretend = 0, frame = 0
 899              		@ frame_needed = 0, uses_anonymous_args = 0
 900              		@ link register save eliminated.
 464:Drivers/STM32C0xx_HAL_Driver/Src/stm32c0xx_hal_gpio.c ****   uint32_t odr;
 901              		.loc 1 464 3 view .LVU276
 465:Drivers/STM32C0xx_HAL_Driver/Src/stm32c0xx_hal_gpio.c **** 
 466:Drivers/STM32C0xx_HAL_Driver/Src/stm32c0xx_hal_gpio.c ****   /* Check the parameters */
 467:Drivers/STM32C0xx_HAL_Driver/Src/stm32c0xx_hal_gpio.c ****   assert_param(IS_GPIO_PIN(GPIO_Pin));
 902              		.loc 1 467 3 view .LVU277
 468:Drivers/STM32C0xx_HAL_Driver/Src/stm32c0xx_hal_gpio.c **** 
 469:Drivers/STM32C0xx_HAL_Driver/Src/stm32c0xx_hal_gpio.c ****   /* get current Output Data Register value */
 470:Drivers/STM32C0xx_HAL_Driver/Src/stm32c0xx_hal_gpio.c ****   odr = GPIOx->ODR;
 903              		.loc 1 470 3 view .LVU278
 904              		.loc 1 470 7 is_stmt 0 view .LVU279
 905 0000 4269     		ldr	r2, [r0, #20]
 906              	.LVL80:
 471:Drivers/STM32C0xx_HAL_Driver/Src/stm32c0xx_hal_gpio.c **** 
 472:Drivers/STM32C0xx_HAL_Driver/Src/stm32c0xx_hal_gpio.c ****   /* Set selected pins that were at low level, and reset ones that were high */
 473:Drivers/STM32C0xx_HAL_Driver/Src/stm32c0xx_hal_gpio.c ****   GPIOx->BSRR = ((odr & GPIO_Pin) << GPIO_NUMBER) | (~odr & GPIO_Pin);
 907              		.loc 1 473 3 is_stmt 1 view .LVU280
 908              		.loc 1 473 23 is_stmt 0 view .LVU281
 909 0002 1300     		movs	r3, r2
 910 0004 0B40     		ands	r3, r1
 911              		.loc 1 473 35 view .LVU282
 912 0006 1B04     		lsls	r3, r3, #16
 913              		.loc 1 473 59 view .LVU283
 914 0008 9143     		bics	r1, r2
 915              	.LVL81:
 916              		.loc 1 473 51 view .LVU284
 917 000a 1943     		orrs	r1, r3
 918              		.loc 1 473 15 view .LVU285
 919 000c 8161     		str	r1, [r0, #24]
 474:Drivers/STM32C0xx_HAL_Driver/Src/stm32c0xx_hal_gpio.c **** }
 920              		.loc 1 474 1 view .LVU286
 921              		@ sp needed
 922 000e 7047     		bx	lr
 923              		.cfi_endproc
 924              	.LFE219:
 926              		.section	.text.HAL_GPIO_LockPin,"ax",%progbits
 927              		.align	1
 928              		.global	HAL_GPIO_LockPin
 929              		.syntax unified
 930              		.code	16
ARM GAS  /var/folders/nl/kwfz41d55ync1k9vlz8wmkc80000gn/T//ccmKWUpy.s 			page 28


 931              		.thumb_func
 933              	HAL_GPIO_LockPin:
 934              	.LVL82:
 935              	.LFB220:
 475:Drivers/STM32C0xx_HAL_Driver/Src/stm32c0xx_hal_gpio.c **** 
 476:Drivers/STM32C0xx_HAL_Driver/Src/stm32c0xx_hal_gpio.c **** /**
 477:Drivers/STM32C0xx_HAL_Driver/Src/stm32c0xx_hal_gpio.c ****   * @brief  Lock GPIO Pins configuration registers.
 478:Drivers/STM32C0xx_HAL_Driver/Src/stm32c0xx_hal_gpio.c ****   * @note   The locked registers are GPIOx_MODER, GPIOx_OTYPER, GPIOx_OSPEEDR,
 479:Drivers/STM32C0xx_HAL_Driver/Src/stm32c0xx_hal_gpio.c ****   *         GPIOx_PUPDR, GPIOx_AFRL and GPIOx_AFRH.
 480:Drivers/STM32C0xx_HAL_Driver/Src/stm32c0xx_hal_gpio.c ****   * @note   The configuration of the locked GPIO pins can no longer be modified
 481:Drivers/STM32C0xx_HAL_Driver/Src/stm32c0xx_hal_gpio.c ****   *         until the next reset.
 482:Drivers/STM32C0xx_HAL_Driver/Src/stm32c0xx_hal_gpio.c ****   * @param  GPIOx where x can be (A..F) to select the GPIO peripheral for STM32C0xx family
 483:Drivers/STM32C0xx_HAL_Driver/Src/stm32c0xx_hal_gpio.c ****   * @param  GPIO_Pin specifies the port bits to be locked.
 484:Drivers/STM32C0xx_HAL_Driver/Src/stm32c0xx_hal_gpio.c ****   *         This parameter can be any combination of GPIO_Pin_x where x can be (0..15).
 485:Drivers/STM32C0xx_HAL_Driver/Src/stm32c0xx_hal_gpio.c ****   * @retval None
 486:Drivers/STM32C0xx_HAL_Driver/Src/stm32c0xx_hal_gpio.c ****   */
 487:Drivers/STM32C0xx_HAL_Driver/Src/stm32c0xx_hal_gpio.c **** HAL_StatusTypeDef HAL_GPIO_LockPin(GPIO_TypeDef *GPIOx, uint16_t GPIO_Pin)
 488:Drivers/STM32C0xx_HAL_Driver/Src/stm32c0xx_hal_gpio.c **** {
 936              		.loc 1 488 1 is_stmt 1 view -0
 937              		.cfi_startproc
 938              		@ args = 0, pretend = 0, frame = 8
 939              		@ frame_needed = 0, uses_anonymous_args = 0
 940              		@ link register save eliminated.
 941              		.loc 1 488 1 is_stmt 0 view .LVU288
 942 0000 82B0     		sub	sp, sp, #8
 943              	.LCFI4:
 944              		.cfi_def_cfa_offset 8
 489:Drivers/STM32C0xx_HAL_Driver/Src/stm32c0xx_hal_gpio.c ****   __IO uint32_t tmp = GPIO_LCKR_LCKK;
 945              		.loc 1 489 3 is_stmt 1 view .LVU289
 946              		.loc 1 489 17 is_stmt 0 view .LVU290
 947 0002 8022     		movs	r2, #128
 948 0004 5202     		lsls	r2, r2, #9
 949 0006 0192     		str	r2, [sp, #4]
 490:Drivers/STM32C0xx_HAL_Driver/Src/stm32c0xx_hal_gpio.c **** 
 491:Drivers/STM32C0xx_HAL_Driver/Src/stm32c0xx_hal_gpio.c ****   /* Check the parameters */
 492:Drivers/STM32C0xx_HAL_Driver/Src/stm32c0xx_hal_gpio.c ****   assert_param(IS_GPIO_LOCK_INSTANCE(GPIOx));
 950              		.loc 1 492 3 is_stmt 1 view .LVU291
 493:Drivers/STM32C0xx_HAL_Driver/Src/stm32c0xx_hal_gpio.c ****   assert_param(IS_GPIO_PIN(GPIO_Pin));
 951              		.loc 1 493 3 view .LVU292
 494:Drivers/STM32C0xx_HAL_Driver/Src/stm32c0xx_hal_gpio.c **** 
 495:Drivers/STM32C0xx_HAL_Driver/Src/stm32c0xx_hal_gpio.c ****   /* Apply lock key write sequence */
 496:Drivers/STM32C0xx_HAL_Driver/Src/stm32c0xx_hal_gpio.c ****   tmp |= GPIO_Pin;
 952              		.loc 1 496 3 view .LVU293
 953              		.loc 1 496 7 is_stmt 0 view .LVU294
 954 0008 019B     		ldr	r3, [sp, #4]
 955 000a 0B43     		orrs	r3, r1
 956 000c 0193     		str	r3, [sp, #4]
 497:Drivers/STM32C0xx_HAL_Driver/Src/stm32c0xx_hal_gpio.c ****   /* Set LCKx bit(s): LCKK='1' + LCK[15-0] */
 498:Drivers/STM32C0xx_HAL_Driver/Src/stm32c0xx_hal_gpio.c ****   GPIOx->LCKR = tmp;
 957              		.loc 1 498 3 is_stmt 1 view .LVU295
 958              		.loc 1 498 15 is_stmt 0 view .LVU296
 959 000e 019B     		ldr	r3, [sp, #4]
 960 0010 C361     		str	r3, [r0, #28]
 499:Drivers/STM32C0xx_HAL_Driver/Src/stm32c0xx_hal_gpio.c ****   /* Reset LCKx bit(s): LCKK='0' + LCK[15-0] */
 500:Drivers/STM32C0xx_HAL_Driver/Src/stm32c0xx_hal_gpio.c ****   GPIOx->LCKR = GPIO_Pin;
 961              		.loc 1 500 3 is_stmt 1 view .LVU297
 962              		.loc 1 500 15 is_stmt 0 view .LVU298
ARM GAS  /var/folders/nl/kwfz41d55ync1k9vlz8wmkc80000gn/T//ccmKWUpy.s 			page 29


 963 0012 C161     		str	r1, [r0, #28]
 501:Drivers/STM32C0xx_HAL_Driver/Src/stm32c0xx_hal_gpio.c ****   /* Set LCKx bit(s): LCKK='1' + LCK[15-0] */
 502:Drivers/STM32C0xx_HAL_Driver/Src/stm32c0xx_hal_gpio.c ****   GPIOx->LCKR = tmp;
 964              		.loc 1 502 3 is_stmt 1 view .LVU299
 965              		.loc 1 502 15 is_stmt 0 view .LVU300
 966 0014 019B     		ldr	r3, [sp, #4]
 967 0016 C361     		str	r3, [r0, #28]
 503:Drivers/STM32C0xx_HAL_Driver/Src/stm32c0xx_hal_gpio.c ****   /* Read LCKK bit*/
 504:Drivers/STM32C0xx_HAL_Driver/Src/stm32c0xx_hal_gpio.c ****   tmp = GPIOx->LCKR;
 968              		.loc 1 504 3 is_stmt 1 view .LVU301
 969              		.loc 1 504 14 is_stmt 0 view .LVU302
 970 0018 C369     		ldr	r3, [r0, #28]
 971              		.loc 1 504 7 view .LVU303
 972 001a 0193     		str	r3, [sp, #4]
 505:Drivers/STM32C0xx_HAL_Driver/Src/stm32c0xx_hal_gpio.c **** 
 506:Drivers/STM32C0xx_HAL_Driver/Src/stm32c0xx_hal_gpio.c ****   /* read again in order to confirm lock is active */
 507:Drivers/STM32C0xx_HAL_Driver/Src/stm32c0xx_hal_gpio.c ****   if ((GPIOx->LCKR & GPIO_LCKR_LCKK) != GPIO_LCKR_LCKK)
 973              		.loc 1 507 3 is_stmt 1 view .LVU304
 974              		.loc 1 507 13 is_stmt 0 view .LVU305
 975 001c C369     		ldr	r3, [r0, #28]
 976              		.loc 1 507 6 view .LVU306
 977 001e 1342     		tst	r3, r2
 978 0020 02D0     		beq	.L50
 508:Drivers/STM32C0xx_HAL_Driver/Src/stm32c0xx_hal_gpio.c ****   {
 509:Drivers/STM32C0xx_HAL_Driver/Src/stm32c0xx_hal_gpio.c ****     return HAL_ERROR;
 510:Drivers/STM32C0xx_HAL_Driver/Src/stm32c0xx_hal_gpio.c ****   }
 511:Drivers/STM32C0xx_HAL_Driver/Src/stm32c0xx_hal_gpio.c ****   return HAL_OK;
 979              		.loc 1 511 10 view .LVU307
 980 0022 0020     		movs	r0, #0
 981              	.LVL83:
 982              	.L49:
 512:Drivers/STM32C0xx_HAL_Driver/Src/stm32c0xx_hal_gpio.c **** }
 983              		.loc 1 512 1 view .LVU308
 984 0024 02B0     		add	sp, sp, #8
 985              		@ sp needed
 986 0026 7047     		bx	lr
 987              	.LVL84:
 988              	.L50:
 509:Drivers/STM32C0xx_HAL_Driver/Src/stm32c0xx_hal_gpio.c ****   }
 989              		.loc 1 509 12 view .LVU309
 990 0028 0120     		movs	r0, #1
 991              	.LVL85:
 509:Drivers/STM32C0xx_HAL_Driver/Src/stm32c0xx_hal_gpio.c ****   }
 992              		.loc 1 509 12 view .LVU310
 993 002a FBE7     		b	.L49
 994              		.cfi_endproc
 995              	.LFE220:
 997              		.section	.text.HAL_GPIO_EXTI_Rising_Callback,"ax",%progbits
 998              		.align	1
 999              		.weak	HAL_GPIO_EXTI_Rising_Callback
 1000              		.syntax unified
 1001              		.code	16
 1002              		.thumb_func
 1004              	HAL_GPIO_EXTI_Rising_Callback:
 1005              	.LVL86:
 1006              	.LFB222:
 513:Drivers/STM32C0xx_HAL_Driver/Src/stm32c0xx_hal_gpio.c **** 
ARM GAS  /var/folders/nl/kwfz41d55ync1k9vlz8wmkc80000gn/T//ccmKWUpy.s 			page 30


 514:Drivers/STM32C0xx_HAL_Driver/Src/stm32c0xx_hal_gpio.c **** /**
 515:Drivers/STM32C0xx_HAL_Driver/Src/stm32c0xx_hal_gpio.c ****   * @brief  Handle EXTI interrupt request.
 516:Drivers/STM32C0xx_HAL_Driver/Src/stm32c0xx_hal_gpio.c ****   * @param  GPIO_Pin Specifies the port pin connected to corresponding EXTI line.
 517:Drivers/STM32C0xx_HAL_Driver/Src/stm32c0xx_hal_gpio.c ****   * @retval None
 518:Drivers/STM32C0xx_HAL_Driver/Src/stm32c0xx_hal_gpio.c ****   */
 519:Drivers/STM32C0xx_HAL_Driver/Src/stm32c0xx_hal_gpio.c **** void HAL_GPIO_EXTI_IRQHandler(uint16_t GPIO_Pin)
 520:Drivers/STM32C0xx_HAL_Driver/Src/stm32c0xx_hal_gpio.c **** {
 521:Drivers/STM32C0xx_HAL_Driver/Src/stm32c0xx_hal_gpio.c ****   /* EXTI line interrupt detected */
 522:Drivers/STM32C0xx_HAL_Driver/Src/stm32c0xx_hal_gpio.c ****   if (__HAL_GPIO_EXTI_GET_RISING_IT(GPIO_Pin) != 0U)
 523:Drivers/STM32C0xx_HAL_Driver/Src/stm32c0xx_hal_gpio.c ****   {
 524:Drivers/STM32C0xx_HAL_Driver/Src/stm32c0xx_hal_gpio.c ****     __HAL_GPIO_EXTI_CLEAR_RISING_IT(GPIO_Pin);
 525:Drivers/STM32C0xx_HAL_Driver/Src/stm32c0xx_hal_gpio.c ****     HAL_GPIO_EXTI_Rising_Callback(GPIO_Pin);
 526:Drivers/STM32C0xx_HAL_Driver/Src/stm32c0xx_hal_gpio.c ****   }
 527:Drivers/STM32C0xx_HAL_Driver/Src/stm32c0xx_hal_gpio.c **** 
 528:Drivers/STM32C0xx_HAL_Driver/Src/stm32c0xx_hal_gpio.c ****   if (__HAL_GPIO_EXTI_GET_FALLING_IT(GPIO_Pin) != 0U)
 529:Drivers/STM32C0xx_HAL_Driver/Src/stm32c0xx_hal_gpio.c ****   {
 530:Drivers/STM32C0xx_HAL_Driver/Src/stm32c0xx_hal_gpio.c ****     __HAL_GPIO_EXTI_CLEAR_FALLING_IT(GPIO_Pin);
 531:Drivers/STM32C0xx_HAL_Driver/Src/stm32c0xx_hal_gpio.c ****     HAL_GPIO_EXTI_Falling_Callback(GPIO_Pin);
 532:Drivers/STM32C0xx_HAL_Driver/Src/stm32c0xx_hal_gpio.c ****   }
 533:Drivers/STM32C0xx_HAL_Driver/Src/stm32c0xx_hal_gpio.c **** }
 534:Drivers/STM32C0xx_HAL_Driver/Src/stm32c0xx_hal_gpio.c **** 
 535:Drivers/STM32C0xx_HAL_Driver/Src/stm32c0xx_hal_gpio.c **** /**
 536:Drivers/STM32C0xx_HAL_Driver/Src/stm32c0xx_hal_gpio.c ****   * @brief  EXTI line detection callback.
 537:Drivers/STM32C0xx_HAL_Driver/Src/stm32c0xx_hal_gpio.c ****   * @param  GPIO_Pin Specifies the port pin connected to corresponding EXTI line.
 538:Drivers/STM32C0xx_HAL_Driver/Src/stm32c0xx_hal_gpio.c ****   * @retval None
 539:Drivers/STM32C0xx_HAL_Driver/Src/stm32c0xx_hal_gpio.c ****   */
 540:Drivers/STM32C0xx_HAL_Driver/Src/stm32c0xx_hal_gpio.c **** __weak void HAL_GPIO_EXTI_Rising_Callback(uint16_t GPIO_Pin)
 541:Drivers/STM32C0xx_HAL_Driver/Src/stm32c0xx_hal_gpio.c **** {
 1007              		.loc 1 541 1 is_stmt 1 view -0
 1008              		.cfi_startproc
 1009              		@ args = 0, pretend = 0, frame = 0
 1010              		@ frame_needed = 0, uses_anonymous_args = 0
 1011              		@ link register save eliminated.
 542:Drivers/STM32C0xx_HAL_Driver/Src/stm32c0xx_hal_gpio.c ****   /* Prevent unused argument(s) compilation warning */
 543:Drivers/STM32C0xx_HAL_Driver/Src/stm32c0xx_hal_gpio.c ****   UNUSED(GPIO_Pin);
 1012              		.loc 1 543 3 view .LVU312
 544:Drivers/STM32C0xx_HAL_Driver/Src/stm32c0xx_hal_gpio.c **** 
 545:Drivers/STM32C0xx_HAL_Driver/Src/stm32c0xx_hal_gpio.c ****   /* NOTE: This function should not be modified, when the callback is needed,
 546:Drivers/STM32C0xx_HAL_Driver/Src/stm32c0xx_hal_gpio.c ****            the HAL_GPIO_EXTI_Rising_Callback could be implemented in the user file
 547:Drivers/STM32C0xx_HAL_Driver/Src/stm32c0xx_hal_gpio.c ****    */
 548:Drivers/STM32C0xx_HAL_Driver/Src/stm32c0xx_hal_gpio.c **** }
 1013              		.loc 1 548 1 is_stmt 0 view .LVU313
 1014              		@ sp needed
 1015 0000 7047     		bx	lr
 1016              		.cfi_endproc
 1017              	.LFE222:
 1019              		.section	.text.HAL_GPIO_EXTI_Falling_Callback,"ax",%progbits
 1020              		.align	1
 1021              		.weak	HAL_GPIO_EXTI_Falling_Callback
 1022              		.syntax unified
 1023              		.code	16
 1024              		.thumb_func
 1026              	HAL_GPIO_EXTI_Falling_Callback:
 1027              	.LVL87:
 1028              	.LFB223:
 549:Drivers/STM32C0xx_HAL_Driver/Src/stm32c0xx_hal_gpio.c **** 
 550:Drivers/STM32C0xx_HAL_Driver/Src/stm32c0xx_hal_gpio.c **** /**
ARM GAS  /var/folders/nl/kwfz41d55ync1k9vlz8wmkc80000gn/T//ccmKWUpy.s 			page 31


 551:Drivers/STM32C0xx_HAL_Driver/Src/stm32c0xx_hal_gpio.c ****   * @brief  EXTI line detection callback.
 552:Drivers/STM32C0xx_HAL_Driver/Src/stm32c0xx_hal_gpio.c ****   * @param  GPIO_Pin Specifies the port pin connected to corresponding EXTI line.
 553:Drivers/STM32C0xx_HAL_Driver/Src/stm32c0xx_hal_gpio.c ****   * @retval None
 554:Drivers/STM32C0xx_HAL_Driver/Src/stm32c0xx_hal_gpio.c ****   */
 555:Drivers/STM32C0xx_HAL_Driver/Src/stm32c0xx_hal_gpio.c **** __weak void HAL_GPIO_EXTI_Falling_Callback(uint16_t GPIO_Pin)
 556:Drivers/STM32C0xx_HAL_Driver/Src/stm32c0xx_hal_gpio.c **** {
 1029              		.loc 1 556 1 is_stmt 1 view -0
 1030              		.cfi_startproc
 1031              		@ args = 0, pretend = 0, frame = 0
 1032              		@ frame_needed = 0, uses_anonymous_args = 0
 1033              		@ link register save eliminated.
 557:Drivers/STM32C0xx_HAL_Driver/Src/stm32c0xx_hal_gpio.c ****   /* Prevent unused argument(s) compilation warning */
 558:Drivers/STM32C0xx_HAL_Driver/Src/stm32c0xx_hal_gpio.c ****   UNUSED(GPIO_Pin);
 1034              		.loc 1 558 3 view .LVU315
 559:Drivers/STM32C0xx_HAL_Driver/Src/stm32c0xx_hal_gpio.c **** 
 560:Drivers/STM32C0xx_HAL_Driver/Src/stm32c0xx_hal_gpio.c ****   /* NOTE: This function should not be modified, when the callback is needed,
 561:Drivers/STM32C0xx_HAL_Driver/Src/stm32c0xx_hal_gpio.c ****            the HAL_GPIO_EXTI_Falling_Callback could be implemented in the user file
 562:Drivers/STM32C0xx_HAL_Driver/Src/stm32c0xx_hal_gpio.c ****    */
 563:Drivers/STM32C0xx_HAL_Driver/Src/stm32c0xx_hal_gpio.c **** }
 1035              		.loc 1 563 1 is_stmt 0 view .LVU316
 1036              		@ sp needed
 1037 0000 7047     		bx	lr
 1038              		.cfi_endproc
 1039              	.LFE223:
 1041              		.section	.text.HAL_GPIO_EXTI_IRQHandler,"ax",%progbits
 1042              		.align	1
 1043              		.global	HAL_GPIO_EXTI_IRQHandler
 1044              		.syntax unified
 1045              		.code	16
 1046              		.thumb_func
 1048              	HAL_GPIO_EXTI_IRQHandler:
 1049              	.LVL88:
 1050              	.LFB221:
 520:Drivers/STM32C0xx_HAL_Driver/Src/stm32c0xx_hal_gpio.c ****   /* EXTI line interrupt detected */
 1051              		.loc 1 520 1 is_stmt 1 view -0
 1052              		.cfi_startproc
 1053              		@ args = 0, pretend = 0, frame = 0
 1054              		@ frame_needed = 0, uses_anonymous_args = 0
 520:Drivers/STM32C0xx_HAL_Driver/Src/stm32c0xx_hal_gpio.c ****   /* EXTI line interrupt detected */
 1055              		.loc 1 520 1 is_stmt 0 view .LVU318
 1056 0000 10B5     		push	{r4, lr}
 1057              	.LCFI5:
 1058              		.cfi_def_cfa_offset 8
 1059              		.cfi_offset 4, -8
 1060              		.cfi_offset 14, -4
 1061 0002 0400     		movs	r4, r0
 522:Drivers/STM32C0xx_HAL_Driver/Src/stm32c0xx_hal_gpio.c ****   {
 1062              		.loc 1 522 3 is_stmt 1 view .LVU319
 522:Drivers/STM32C0xx_HAL_Driver/Src/stm32c0xx_hal_gpio.c ****   {
 1063              		.loc 1 522 7 is_stmt 0 view .LVU320
 1064 0004 094B     		ldr	r3, .L58
 1065 0006 DB68     		ldr	r3, [r3, #12]
 522:Drivers/STM32C0xx_HAL_Driver/Src/stm32c0xx_hal_gpio.c ****   {
 1066              		.loc 1 522 6 view .LVU321
 1067 0008 1842     		tst	r0, r3
 1068 000a 04D1     		bne	.L56
 1069              	.LVL89:
ARM GAS  /var/folders/nl/kwfz41d55ync1k9vlz8wmkc80000gn/T//ccmKWUpy.s 			page 32


 1070              	.L54:
 528:Drivers/STM32C0xx_HAL_Driver/Src/stm32c0xx_hal_gpio.c ****   {
 1071              		.loc 1 528 3 is_stmt 1 view .LVU322
 528:Drivers/STM32C0xx_HAL_Driver/Src/stm32c0xx_hal_gpio.c ****   {
 1072              		.loc 1 528 7 is_stmt 0 view .LVU323
 1073 000c 074B     		ldr	r3, .L58
 1074 000e 1B69     		ldr	r3, [r3, #16]
 528:Drivers/STM32C0xx_HAL_Driver/Src/stm32c0xx_hal_gpio.c ****   {
 1075              		.loc 1 528 6 view .LVU324
 1076 0010 2342     		tst	r3, r4
 1077 0012 05D1     		bne	.L57
 1078              	.L53:
 533:Drivers/STM32C0xx_HAL_Driver/Src/stm32c0xx_hal_gpio.c **** 
 1079              		.loc 1 533 1 view .LVU325
 1080              		@ sp needed
 1081 0014 10BD     		pop	{r4, pc}
 1082              	.LVL90:
 1083              	.L56:
 524:Drivers/STM32C0xx_HAL_Driver/Src/stm32c0xx_hal_gpio.c ****     HAL_GPIO_EXTI_Rising_Callback(GPIO_Pin);
 1084              		.loc 1 524 5 is_stmt 1 view .LVU326
 1085 0016 054B     		ldr	r3, .L58
 1086 0018 D860     		str	r0, [r3, #12]
 525:Drivers/STM32C0xx_HAL_Driver/Src/stm32c0xx_hal_gpio.c ****   }
 1087              		.loc 1 525 5 view .LVU327
 1088 001a FFF7FEFF 		bl	HAL_GPIO_EXTI_Rising_Callback
 1089              	.LVL91:
 525:Drivers/STM32C0xx_HAL_Driver/Src/stm32c0xx_hal_gpio.c ****   }
 1090              		.loc 1 525 5 is_stmt 0 view .LVU328
 1091 001e F5E7     		b	.L54
 1092              	.L57:
 530:Drivers/STM32C0xx_HAL_Driver/Src/stm32c0xx_hal_gpio.c ****     HAL_GPIO_EXTI_Falling_Callback(GPIO_Pin);
 1093              		.loc 1 530 5 is_stmt 1 view .LVU329
 1094 0020 024B     		ldr	r3, .L58
 1095 0022 1C61     		str	r4, [r3, #16]
 531:Drivers/STM32C0xx_HAL_Driver/Src/stm32c0xx_hal_gpio.c ****   }
 1096              		.loc 1 531 5 view .LVU330
 1097 0024 2000     		movs	r0, r4
 1098 0026 FFF7FEFF 		bl	HAL_GPIO_EXTI_Falling_Callback
 1099              	.LVL92:
 533:Drivers/STM32C0xx_HAL_Driver/Src/stm32c0xx_hal_gpio.c **** 
 1100              		.loc 1 533 1 is_stmt 0 view .LVU331
 1101 002a F3E7     		b	.L53
 1102              	.L59:
 1103              		.align	2
 1104              	.L58:
 1105 002c 00180240 		.word	1073879040
 1106              		.cfi_endproc
 1107              	.LFE221:
 1109              		.text
 1110              	.Letext0:
 1111              		.file 2 "/usr/local/arm-none-eabi/include/machine/_default_types.h"
 1112              		.file 3 "/usr/local/arm-none-eabi/include/sys/_stdint.h"
 1113              		.file 4 "Drivers/CMSIS/Device/ST/STM32C0xx/Include/stm32c031xx.h"
 1114              		.file 5 "Drivers/STM32C0xx_HAL_Driver/Inc/stm32c0xx_hal_def.h"
 1115              		.file 6 "Drivers/STM32C0xx_HAL_Driver/Inc/stm32c0xx_hal_gpio.h"
ARM GAS  /var/folders/nl/kwfz41d55ync1k9vlz8wmkc80000gn/T//ccmKWUpy.s 			page 33

